
idle.elf:     file format elf32-tradlittlemips


Disassembly of section .text:

00400000 <_startt>:
  400000:	8fa40000 	lw	a0,0(sp)
  400004:	8fa50004 	lw	a1,4(sp)
  400008:	0c100296 	jal	400a58 <libmain>
  40000c:	00000000 	nop
  400010:	00000000 	nop

00400014 <__asm_pgfault_handler>:
  400014:	00000000 	nop
  400018:	8fa4008c 	lw	a0,140(sp)
  40001c:	3c090041 	lui	t1,0x41
  400020:	8d29f010 	lw	t1,-4080(t1)
  400024:	0120f809 	jalr	t1
  400028:	00000000 	nop
  40002c:	8fa30088 	lw	v1,136(sp)
  400030:	00600013 	mtlo	v1
  400034:	8fa20084 	lw	v0,132(sp)
  400038:	8fa30094 	lw	v1,148(sp)
  40003c:	00400011 	mthi	v0
  400040:	40837000 	mtc0	v1,c0_epc
  400044:	8fbf007c 	lw	ra,124(sp)
  400048:	8fbe0078 	lw	s8,120(sp)
  40004c:	8fbc0070 	lw	gp,112(sp)
  400050:	8fb90064 	lw	t9,100(sp)
  400054:	8fb80060 	lw	t8,96(sp)
  400058:	8fb7005c 	lw	s7,92(sp)
  40005c:	8fb60058 	lw	s6,88(sp)
  400060:	8fb50054 	lw	s5,84(sp)
  400064:	8fb40050 	lw	s4,80(sp)
  400068:	8fb3004c 	lw	s3,76(sp)
  40006c:	8fb20048 	lw	s2,72(sp)
  400070:	8fb10044 	lw	s1,68(sp)
  400074:	8fb00040 	lw	s0,64(sp)
  400078:	8faf003c 	lw	t7,60(sp)
  40007c:	8fae0038 	lw	t6,56(sp)
  400080:	8fad0034 	lw	t5,52(sp)
  400084:	8fac0030 	lw	t4,48(sp)
  400088:	8fab002c 	lw	t3,44(sp)
  40008c:	8faa0028 	lw	t2,40(sp)
  400090:	8fa90024 	lw	t1,36(sp)
  400094:	8fa80020 	lw	t0,32(sp)
  400098:	8fa7001c 	lw	a3,28(sp)
  40009c:	8fa60018 	lw	a2,24(sp)
  4000a0:	8fa50014 	lw	a1,20(sp)
  4000a4:	8fa40010 	lw	a0,16(sp)
  4000a8:	8fa3000c 	lw	v1,12(sp)
  4000ac:	8fa20008 	lw	v0,8(sp)
  4000b0:	8fa10004 	lw	at,4(sp)
  4000b4:	8fba0094 	lw	k0,148(sp)
  4000b8:	03400008 	jr	k0
  4000bc:	8fbd0074 	lw	sp,116(sp)

004000c0 <msyscall>:
  4000c0:	afa40000 	sw	a0,0(sp)
  4000c4:	afa50004 	sw	a1,4(sp)
  4000c8:	afa60008 	sw	a2,8(sp)
  4000cc:	afa7000c 	sw	a3,12(sp)
  4000d0:	0000000c 	syscall
  4000d4:	03e00008 	jr	ra
  4000d8:	00000000 	nop

004000dc <user_myoutput>:
  4000dc:	24020001 	li	v0,1
  4000e0:	10c20007 	beq	a2,v0,400100 <user_myoutput+0x24>
  4000e4:	00000000 	nop
  4000e8:	18c00005 	blez	a2,400100 <user_myoutput+0x24>
  4000ec:	00001025 	move	v0,zero
  4000f0:	24420001 	addiu	v0,v0,1
  4000f4:	0046182a 	slt	v1,v0,a2
  4000f8:	1460fffe 	bnez	v1,4000f4 <user_myoutput+0x18>
  4000fc:	24420001 	addiu	v0,v0,1
  400100:	03e00008 	jr	ra
  400104:	00000000 	nop

00400108 <writef>:
  400108:	27bdffe0 	addiu	sp,sp,-32
  40010c:	afbf001c 	sw	ra,28(sp)
  400110:	afa50024 	sw	a1,36(sp)
  400114:	afa60028 	sw	a2,40(sp)
  400118:	afa7002c 	sw	a3,44(sp)
  40011c:	27a70024 	addiu	a3,sp,36
  400120:	afa70010 	sw	a3,16(sp)
  400124:	00803025 	move	a2,a0
  400128:	00002825 	move	a1,zero
  40012c:	3c040040 	lui	a0,0x40
  400130:	0c100134 	jal	4004d0 <user_lp_Print>
  400134:	248400dc 	addiu	a0,a0,220
  400138:	8fbf001c 	lw	ra,28(sp)
  40013c:	03e00008 	jr	ra
  400140:	27bd0020 	addiu	sp,sp,32

00400144 <_user_panic>:
  400144:	27bdffe0 	addiu	sp,sp,-32
  400148:	afbf001c 	sw	ra,28(sp)
  40014c:	afb00018 	sw	s0,24(sp)
  400150:	00c08025 	move	s0,a2
  400154:	afa7002c 	sw	a3,44(sp)
  400158:	27a2002c 	addiu	v0,sp,44
  40015c:	afa20010 	sw	v0,16(sp)
  400160:	00a03025 	move	a2,a1
  400164:	00802825 	move	a1,a0
  400168:	3c040042 	lui	a0,0x42
  40016c:	0c100042 	jal	400108 <writef>
  400170:	2484bd28 	addiu	a0,a0,-17112
  400174:	8fa70010 	lw	a3,16(sp)
  400178:	02003025 	move	a2,s0
  40017c:	00002825 	move	a1,zero
  400180:	3c040040 	lui	a0,0x40
  400184:	0c100134 	jal	4004d0 <user_lp_Print>
  400188:	248400dc 	addiu	a0,a0,220
  40018c:	3c040042 	lui	a0,0x42
  400190:	0c100042 	jal	400108 <writef>
  400194:	2484c1e0 	addiu	a0,a0,-15904
  400198:	1000ffff 	b	400198 <_user_panic+0x54>
  40019c:	00000000 	nop

004001a0 <user_PrintChar>:
  4001a0:	0006102a 	slt	v0,zero,a2
  4001a4:	24030001 	li	v1,1
  4001a8:	00c2180b 	movn	v1,a2,v0
  4001ac:	14e0000f 	bnez	a3,4001ec <user_PrintChar+0x4c>
  4001b0:	00601025 	move	v0,v1
  4001b4:	2463ffff 	addiu	v1,v1,-1
  4001b8:	5860000a 	blezl	v1,4001e4 <user_PrintChar+0x44>
  4001bc:	00822021 	addu	a0,a0,v0
  4001c0:	00801825 	move	v1,a0
  4001c4:	2447ffff 	addiu	a3,v0,-1
  4001c8:	00873821 	addu	a3,a0,a3
  4001cc:	24060020 	li	a2,32
  4001d0:	a0660000 	sb	a2,0(v1)
  4001d4:	24630001 	addiu	v1,v1,1
  4001d8:	5467fffe 	bnel	v1,a3,4001d4 <user_PrintChar+0x34>
  4001dc:	a0660000 	sb	a2,0(v1)
  4001e0:	00822021 	addu	a0,a0,v0
  4001e4:	03e00008 	jr	ra
  4001e8:	a085ffff 	sb	a1,-1(a0)
  4001ec:	28630002 	slti	v1,v1,2
  4001f0:	14600008 	bnez	v1,400214 <user_PrintChar+0x74>
  4001f4:	a0850000 	sb	a1,0(a0)
  4001f8:	24830001 	addiu	v1,a0,1
  4001fc:	00822021 	addu	a0,a0,v0
  400200:	24050020 	li	a1,32
  400204:	a0650000 	sb	a1,0(v1)
  400208:	24630001 	addiu	v1,v1,1
  40020c:	5483fffe 	bnel	a0,v1,400208 <user_PrintChar+0x68>
  400210:	a0650000 	sb	a1,0(v1)
  400214:	03e00008 	jr	ra
  400218:	00000000 	nop

0040021c <user_PrintString>:
  40021c:	90a20000 	lbu	v0,0(a1)
  400220:	10400039 	beqz	v0,400308 <user_PrintString+0xec>
  400224:	24a30001 	addiu	v1,a1,1
  400228:	00a04825 	move	t1,a1
  40022c:	00655023 	subu	t2,v1,a1
  400230:	24630001 	addiu	v1,v1,1
  400234:	906bffff 	lbu	t3,-1(v1)
  400238:	1560fffc 	bnez	t3,40022c <user_PrintString+0x10>
  40023c:	01404025 	move	t0,t2
  400240:	00ca102a 	slt	v0,a2,t2
  400244:	0142300b 	movn	a2,t2,v0
  400248:	14e00019 	bnez	a3,4002b0 <user_PrintString+0x94>
  40024c:	00c01025 	move	v0,a2
  400250:	00ca1823 	subu	v1,a2,t2
  400254:	18600009 	blez	v1,40027c <user_PrintString+0x60>
  400258:	0062302a 	slt	a2,v1,v0
  40025c:	00803825 	move	a3,a0
  400260:	00834821 	addu	t1,a0,v1
  400264:	24060020 	li	a2,32
  400268:	a0e60000 	sb	a2,0(a3)
  40026c:	24e70001 	addiu	a3,a3,1
  400270:	54e9fffe 	bnel	a3,t1,40026c <user_PrintString+0x50>
  400274:	a0e60000 	sb	a2,0(a3)
  400278:	0062302a 	slt	a2,v1,v0
  40027c:	10c0000a 	beqz	a2,4002a8 <user_PrintString+0x8c>
  400280:	00623023 	subu	a2,v1,v0
  400284:	00c84021 	addu	t0,a2,t0
  400288:	00a82821 	addu	a1,a1,t0
  40028c:	00831821 	addu	v1,a0,v1
  400290:	00822021 	addu	a0,a0,v0
  400294:	90a70000 	lbu	a3,0(a1)
  400298:	a0670000 	sb	a3,0(v1)
  40029c:	24630001 	addiu	v1,v1,1
  4002a0:	1464fffc 	bne	v1,a0,400294 <user_PrintString+0x78>
  4002a4:	24a50001 	addiu	a1,a1,1
  4002a8:	03e00008 	jr	ra
  4002ac:	00000000 	nop
  4002b0:	19400008 	blez	t2,4002d4 <user_PrintString+0xb8>
  4002b4:	01201825 	move	v1,t1
  4002b8:	00803825 	move	a3,a0
  4002bc:	00aa2821 	addu	a1,a1,t2
  4002c0:	90690000 	lbu	t1,0(v1)
  4002c4:	a0e90000 	sb	t1,0(a3)
  4002c8:	24630001 	addiu	v1,v1,1
  4002cc:	14a3fffc 	bne	a1,v1,4002c0 <user_PrintString+0xa4>
  4002d0:	24e70001 	addiu	a3,a3,1
  4002d4:	0102182a 	slt	v1,t0,v0
  4002d8:	1060fff3 	beqz	v1,4002a8 <user_PrintString+0x8c>
  4002dc:	00881821 	addu	v1,a0,t0
  4002e0:	00822021 	addu	a0,a0,v0
  4002e4:	24050020 	li	a1,32
  4002e8:	a0650000 	sb	a1,0(v1)
  4002ec:	24630001 	addiu	v1,v1,1
  4002f0:	5483fffe 	bnel	a0,v1,4002ec <user_PrintString+0xd0>
  4002f4:	a0650000 	sb	a1,0(v1)
  4002f8:	03e00008 	jr	ra
  4002fc:	00000000 	nop
  400300:	1000fff4 	b	4002d4 <user_PrintString+0xb8>
  400304:	00004025 	move	t0,zero
  400308:	28c20000 	slti	v0,a2,0
  40030c:	0002300b 	movn	a2,zero,v0
  400310:	14e0fffb 	bnez	a3,400300 <user_PrintString+0xe4>
  400314:	00c01025 	move	v0,a2
  400318:	00c01825 	move	v1,a2
  40031c:	1cc0ffcf 	bgtz	a2,40025c <user_PrintString+0x40>
  400320:	00e04025 	move	t0,a3
  400324:	03e00008 	jr	ra
  400328:	00000000 	nop

0040032c <user_PrintNum>:
  40032c:	8fa20010 	lw	v0,16(sp)
  400330:	8fad0014 	lw	t5,20(sp)
  400334:	93ac0018 	lbu	t4,24(sp)
  400338:	8fab001c 	lw	t3,28(sp)
  40033c:	24890001 	addiu	t1,a0,1
  400340:	1000000a 	b	40036c <user_PrintNum+0x40>
  400344:	00c05025 	move	t2,a2
  400348:	51600011 	beqzl	t3,400390 <user_PrintNum+0x64>
  40034c:	25080057 	addiu	t0,t0,87
  400350:	25080037 	addiu	t0,t0,55
  400354:	a128ffff 	sb	t0,-1(t1)
  400358:	00aa001b 	divu	zero,a1,t2
  40035c:	014001f4 	teq	t2,zero,0x7
  400360:	00002812 	mflo	a1
  400364:	10a0000c 	beqz	a1,400398 <user_PrintNum+0x6c>
  400368:	25290001 	addiu	t1,t1,1
  40036c:	00a6001b 	divu	zero,a1,a2
  400370:	00c001f4 	teq	a2,zero,0x7
  400374:	00004010 	mfhi	t0
  400378:	2903000a 	slti	v1,t0,10
  40037c:	1060fff2 	beqz	v1,400348 <user_PrintNum+0x1c>
  400380:	01201825 	move	v1,t1
  400384:	25080030 	addiu	t0,t0,48
  400388:	1000fff3 	b	400358 <user_PrintNum+0x2c>
  40038c:	a128ffff 	sb	t0,-1(t1)
  400390:	1000fff1 	b	400358 <user_PrintNum+0x2c>
  400394:	a128ffff 	sb	t0,-1(t1)
  400398:	50e0000f 	beqzl	a3,4003d8 <user_PrintNum+0xac>
  40039c:	00641823 	subu	v1,v1,a0
  4003a0:	2405002d 	li	a1,45
  4003a4:	a0650000 	sb	a1,0(v1)
  4003a8:	24630001 	addiu	v1,v1,1
  4003ac:	00641823 	subu	v1,v1,a0
  4003b0:	0043282a 	slt	a1,v0,v1
  4003b4:	15a00041 	bnez	t5,4004bc <user_PrintNum+0x190>
  4003b8:	0065100b 	movn	v0,v1,a1
  4003bc:	14e00028 	bnez	a3,400460 <user_PrintNum+0x134>
  4003c0:	24050030 	li	a1,48
  4003c4:	0062282a 	slt	a1,v1,v0
  4003c8:	54a0000b 	bnezl	a1,4003f8 <user_PrintNum+0xcc>
  4003cc:	00833021 	addu	a2,a0,v1
  4003d0:	10000012 	b	40041c <user_PrintNum+0xf0>
  4003d4:	2443ffff 	addiu	v1,v0,-1
  4003d8:	0062282a 	slt	a1,v1,v0
  4003dc:	11a0fff7 	beqz	t5,4003bc <user_PrintNum+0x90>
  4003e0:	0065100a 	movz	v0,v1,a1
  4003e4:	14e00035 	bnez	a3,4004bc <user_PrintNum+0x190>
  4003e8:	0062282a 	slt	a1,v1,v0
  4003ec:	10a0000a 	beqz	a1,400418 <user_PrintNum+0xec>
  4003f0:	240c0020 	li	t4,32
  4003f4:	00833021 	addu	a2,a0,v1
  4003f8:	00602825 	move	a1,v1
  4003fc:	a0cc0000 	sb	t4,0(a2)
  400400:	24a50001 	addiu	a1,a1,1
  400404:	00a2382a 	slt	a3,a1,v0
  400408:	14e0fffc 	bnez	a3,4003fc <user_PrintNum+0xd0>
  40040c:	24c60001 	addiu	a2,a2,1
  400410:	51a00002 	beqzl	t5,40041c <user_PrintNum+0xf0>
  400414:	2443ffff 	addiu	v1,v0,-1
  400418:	2463ffff 	addiu	v1,v1,-1
  40041c:	1860000e 	blez	v1,400458 <user_PrintNum+0x12c>
  400420:	00802825 	move	a1,a0
  400424:	00604025 	move	t0,v1
  400428:	00832021 	addu	a0,a0,v1
  40042c:	00001825 	move	v1,zero
  400430:	90a60000 	lbu	a2,0(a1)
  400434:	90870000 	lbu	a3,0(a0)
  400438:	a0a70000 	sb	a3,0(a1)
  40043c:	a0860000 	sb	a2,0(a0)
  400440:	24630001 	addiu	v1,v1,1
  400444:	24a50001 	addiu	a1,a1,1
  400448:	01033023 	subu	a2,t0,v1
  40044c:	0066302a 	slt	a2,v1,a2
  400450:	14c0fff7 	bnez	a2,400430 <user_PrintNum+0x104>
  400454:	2484ffff 	addiu	a0,a0,-1
  400458:	03e00008 	jr	ra
  40045c:	00000000 	nop
  400460:	11850005 	beq	t4,a1,400478 <user_PrintNum+0x14c>
  400464:	0062282a 	slt	a1,v1,v0
  400468:	54a0ffe3 	bnezl	a1,4003f8 <user_PrintNum+0xcc>
  40046c:	00833021 	addu	a2,a0,v1
  400470:	1000ffea 	b	40041c <user_PrintNum+0xf0>
  400474:	2443ffff 	addiu	v1,v0,-1
  400478:	2465ffff 	addiu	a1,v1,-1
  40047c:	2446ffff 	addiu	a2,v0,-1
  400480:	00a6282a 	slt	a1,a1,a2
  400484:	50a00009 	beqzl	a1,4004ac <user_PrintNum+0x180>
  400488:	00821821 	addu	v1,a0,v0
  40048c:	00831821 	addu	v1,a0,v1
  400490:	00823021 	addu	a2,a0,v0
  400494:	24050030 	li	a1,48
  400498:	a065ffff 	sb	a1,-1(v1)
  40049c:	24630001 	addiu	v1,v1,1
  4004a0:	5466fffe 	bnel	v1,a2,40049c <user_PrintNum+0x170>
  4004a4:	a065ffff 	sb	a1,-1(v1)
  4004a8:	00821821 	addu	v1,a0,v0
  4004ac:	2405002d 	li	a1,45
  4004b0:	a065ffff 	sb	a1,-1(v1)
  4004b4:	1000ffd9 	b	40041c <user_PrintNum+0xf0>
  4004b8:	2443ffff 	addiu	v1,v0,-1
  4004bc:	0062282a 	slt	a1,v1,v0
  4004c0:	14a0ffcc 	bnez	a1,4003f4 <user_PrintNum+0xc8>
  4004c4:	240c0020 	li	t4,32
  4004c8:	1000ffd4 	b	40041c <user_PrintNum+0xf0>
  4004cc:	2463ffff 	addiu	v1,v1,-1

004004d0 <user_lp_Print>:
  4004d0:	27bdfbd8 	addiu	sp,sp,-1064
  4004d4:	afbf0424 	sw	ra,1060(sp)
  4004d8:	afb60420 	sw	s6,1056(sp)
  4004dc:	afb5041c 	sw	s5,1052(sp)
  4004e0:	afb40418 	sw	s4,1048(sp)
  4004e4:	afb30414 	sw	s3,1044(sp)
  4004e8:	afb20410 	sw	s2,1040(sp)
  4004ec:	afb1040c 	sw	s1,1036(sp)
  4004f0:	afb00408 	sw	s0,1032(sp)
  4004f4:	00809825 	move	s3,a0
  4004f8:	00a0a025 	move	s4,a1
  4004fc:	00c02825 	move	a1,a2
  400500:	00e09025 	move	s2,a3
  400504:	24110025 	li	s1,37
  400508:	3c150042 	lui	s5,0x42
  40050c:	1000002f 	b	4005cc <user_lp_Print+0xfc>
  400510:	26b5b640 	addiu	s5,s5,-18880
  400514:	10000038 	b	4005f8 <user_lp_Print+0x128>
  400518:	00a08025 	move	s0,a1
  40051c:	3c050042 	lui	a1,0x42
  400520:	24a5b824 	addiu	a1,a1,-18396
  400524:	0260f809 	jalr	s3
  400528:	02802025 	move	a0,s4
  40052c:	1000ffff 	b	40052c <user_lp_Print+0x5c>
  400530:	00000000 	nop
  400534:	1000003e 	b	400630 <user_lp_Print+0x160>
  400538:	24050001 	li	a1,1
  40053c:	26100001 	addiu	s0,s0,1
  400540:	1000003f 	b	400640 <user_lp_Print+0x170>
  400544:	24070001 	li	a3,1
  400548:	92020001 	lbu	v0,1(s0)
  40054c:	2442ffd0 	addiu	v0,v0,-48
  400550:	304200ff 	andi	v0,v0,0xff
  400554:	2c42000a 	sltiu	v0,v0,10
  400558:	10400054 	beqz	v0,4006ac <user_lp_Print+0x1dc>
  40055c:	00608025 	move	s0,v1
  400560:	24630001 	addiu	v1,v1,1
  400564:	90620000 	lbu	v0,0(v1)
  400568:	2442ffd0 	addiu	v0,v0,-48
  40056c:	304200ff 	andi	v0,v0,0xff
  400570:	2c42000a 	sltiu	v0,v0,10
  400574:	5440fffb 	bnezl	v0,400564 <user_lp_Print+0x94>
  400578:	24630001 	addiu	v1,v1,1
  40057c:	1000004b 	b	4006ac <user_lp_Print+0x1dc>
  400580:	00608025 	move	s0,v1
  400584:	10a00053 	beqz	a1,4006d4 <user_lp_Print+0x204>
  400588:	8e450000 	lw	a1,0(s2)
  40058c:	26520004 	addiu	s2,s2,4
  400590:	afa0001c 	sw	zero,28(sp)
  400594:	afa80018 	sw	t0,24(sp)
  400598:	afa70014 	sw	a3,20(sp)
  40059c:	afa40010 	sw	a0,16(sp)
  4005a0:	00003825 	move	a3,zero
  4005a4:	24060002 	li	a2,2
  4005a8:	0c1000cb 	jal	40032c <user_PrintNum>
  4005ac:	27a40020 	addiu	a0,sp,32
  4005b0:	2c4303e9 	sltiu	v1,v0,1001
  4005b4:	10600049 	beqz	v1,4006dc <user_lp_Print+0x20c>
  4005b8:	00403025 	move	a2,v0
  4005bc:	27a50020 	addiu	a1,sp,32
  4005c0:	0260f809 	jalr	s3
  4005c4:	02802025 	move	a0,s4
  4005c8:	26050001 	addiu	a1,s0,1
  4005cc:	90a20000 	lbu	v0,0(a1)
  4005d0:	10400009 	beqz	v0,4005f8 <user_lp_Print+0x128>
  4005d4:	00a08025 	move	s0,a1
  4005d8:	10510008 	beq	v0,s1,4005fc <user_lp_Print+0x12c>
  4005dc:	02053023 	subu	a2,s0,a1
  4005e0:	26100001 	addiu	s0,s0,1
  4005e4:	92020000 	lbu	v0,0(s0)
  4005e8:	10400004 	beqz	v0,4005fc <user_lp_Print+0x12c>
  4005ec:	02053023 	subu	a2,s0,a1
  4005f0:	5451fffc 	bnel	v0,s1,4005e4 <user_lp_Print+0x114>
  4005f4:	26100001 	addiu	s0,s0,1
  4005f8:	02053023 	subu	a2,s0,a1
  4005fc:	2cc203e9 	sltiu	v0,a2,1001
  400600:	5040ffc6 	beqzl	v0,40051c <user_lp_Print+0x4c>
  400604:	2406001d 	li	a2,29
  400608:	0260f809 	jalr	s3
  40060c:	02802025 	move	a0,s4
  400610:	92020000 	lbu	v0,0(s0)
  400614:	104000fa 	beqz	v0,400a00 <user_lp_Print+0x530>
  400618:	2402006c 	li	v0,108
  40061c:	92030001 	lbu	v1,1(s0)
  400620:	5062ffc4 	beql	v1,v0,400534 <user_lp_Print+0x64>
  400624:	26100002 	addiu	s0,s0,2
  400628:	26100001 	addiu	s0,s0,1
  40062c:	00002825 	move	a1,zero
  400630:	92030000 	lbu	v1,0(s0)
  400634:	2402002d 	li	v0,45
  400638:	1062ffc0 	beq	v1,v0,40053c <user_lp_Print+0x6c>
  40063c:	00003825 	move	a3,zero
  400640:	92080000 	lbu	t0,0(s0)
  400644:	24020030 	li	v0,48
  400648:	51020002 	beql	t0,v0,400654 <user_lp_Print+0x184>
  40064c:	26100001 	addiu	s0,s0,1
  400650:	24080020 	li	t0,32
  400654:	92030000 	lbu	v1,0(s0)
  400658:	2462ffd0 	addiu	v0,v1,-48
  40065c:	304200ff 	andi	v0,v0,0xff
  400660:	2c42000a 	sltiu	v0,v0,10
  400664:	1040000e 	beqz	v0,4006a0 <user_lp_Print+0x1d0>
  400668:	00002025 	move	a0,zero
  40066c:	00043080 	sll	a2,a0,0x2
  400670:	00c43021 	addu	a2,a2,a0
  400674:	00063040 	sll	a2,a2,0x1
  400678:	26100001 	addiu	s0,s0,1
  40067c:	2463ffd0 	addiu	v1,v1,-48
  400680:	00662021 	addu	a0,v1,a2
  400684:	92030000 	lbu	v1,0(s0)
  400688:	2462ffd0 	addiu	v0,v1,-48
  40068c:	304200ff 	andi	v0,v0,0xff
  400690:	2c42000a 	sltiu	v0,v0,10
  400694:	1440fff6 	bnez	v0,400670 <user_lp_Print+0x1a0>
  400698:	00043080 	sll	a2,a0,0x2
  40069c:	92030000 	lbu	v1,0(s0)
  4006a0:	2402002e 	li	v0,46
  4006a4:	1062ffa8 	beq	v1,v0,400548 <user_lp_Print+0x78>
  4006a8:	26030001 	addiu	v1,s0,1
  4006ac:	92020000 	lbu	v0,0(s0)
  4006b0:	2c420079 	sltiu	v0,v0,121
  4006b4:	104000cd 	beqz	v0,4009ec <user_lp_Print+0x51c>
  4006b8:	24060001 	li	a2,1
  4006bc:	92020000 	lbu	v0,0(s0)
  4006c0:	00021080 	sll	v0,v0,0x2
  4006c4:	02a21021 	addu	v0,s5,v0
  4006c8:	8c420000 	lw	v0,0(v0)
  4006cc:	00400008 	jr	v0
  4006d0:	00000000 	nop
  4006d4:	1000ffae 	b	400590 <user_lp_Print+0xc0>
  4006d8:	26520004 	addiu	s2,s2,4
  4006dc:	2406001d 	li	a2,29
  4006e0:	3c050042 	lui	a1,0x42
  4006e4:	24a5b824 	addiu	a1,a1,-18396
  4006e8:	0260f809 	jalr	s3
  4006ec:	02802025 	move	a0,s4
  4006f0:	1000ffff 	b	4006f0 <user_lp_Print+0x220>
  4006f4:	00000000 	nop
  4006f8:	10a00014 	beqz	a1,40074c <user_lp_Print+0x27c>
  4006fc:	8e450000 	lw	a1,0(s2)
  400700:	26520004 	addiu	s2,s2,4
  400704:	04a00013 	bltz	a1,400754 <user_lp_Print+0x284>
  400708:	00001025 	move	v0,zero
  40070c:	afa0001c 	sw	zero,28(sp)
  400710:	afa80018 	sw	t0,24(sp)
  400714:	afa70014 	sw	a3,20(sp)
  400718:	afa40010 	sw	a0,16(sp)
  40071c:	00403825 	move	a3,v0
  400720:	2406000a 	li	a2,10
  400724:	0c1000cb 	jal	40032c <user_PrintNum>
  400728:	27a40020 	addiu	a0,sp,32
  40072c:	2c4303e9 	sltiu	v1,v0,1001
  400730:	1060000b 	beqz	v1,400760 <user_lp_Print+0x290>
  400734:	00403025 	move	a2,v0
  400738:	27a50020 	addiu	a1,sp,32
  40073c:	0260f809 	jalr	s3
  400740:	02802025 	move	a0,s4
  400744:	1000ffa1 	b	4005cc <user_lp_Print+0xfc>
  400748:	26050001 	addiu	a1,s0,1
  40074c:	1000ffed 	b	400704 <user_lp_Print+0x234>
  400750:	26520004 	addiu	s2,s2,4
  400754:	00052823 	negu	a1,a1
  400758:	1000ffec 	b	40070c <user_lp_Print+0x23c>
  40075c:	24020001 	li	v0,1
  400760:	2406001d 	li	a2,29
  400764:	3c050042 	lui	a1,0x42
  400768:	24a5b824 	addiu	a1,a1,-18396
  40076c:	0260f809 	jalr	s3
  400770:	02802025 	move	a0,s4
  400774:	1000ffff 	b	400774 <user_lp_Print+0x2a4>
  400778:	00000000 	nop
  40077c:	10a00012 	beqz	a1,4007c8 <user_lp_Print+0x2f8>
  400780:	8e450000 	lw	a1,0(s2)
  400784:	26520004 	addiu	s2,s2,4
  400788:	afa0001c 	sw	zero,28(sp)
  40078c:	afa80018 	sw	t0,24(sp)
  400790:	afa70014 	sw	a3,20(sp)
  400794:	afa40010 	sw	a0,16(sp)
  400798:	00003825 	move	a3,zero
  40079c:	24060008 	li	a2,8
  4007a0:	0c1000cb 	jal	40032c <user_PrintNum>
  4007a4:	27a40020 	addiu	a0,sp,32
  4007a8:	2c4303e9 	sltiu	v1,v0,1001
  4007ac:	10600008 	beqz	v1,4007d0 <user_lp_Print+0x300>
  4007b0:	00403025 	move	a2,v0
  4007b4:	27a50020 	addiu	a1,sp,32
  4007b8:	0260f809 	jalr	s3
  4007bc:	02802025 	move	a0,s4
  4007c0:	1000ff82 	b	4005cc <user_lp_Print+0xfc>
  4007c4:	26050001 	addiu	a1,s0,1
  4007c8:	1000ffef 	b	400788 <user_lp_Print+0x2b8>
  4007cc:	26520004 	addiu	s2,s2,4
  4007d0:	2406001d 	li	a2,29
  4007d4:	3c050042 	lui	a1,0x42
  4007d8:	24a5b824 	addiu	a1,a1,-18396
  4007dc:	0260f809 	jalr	s3
  4007e0:	02802025 	move	a0,s4
  4007e4:	1000ffff 	b	4007e4 <user_lp_Print+0x314>
  4007e8:	00000000 	nop
  4007ec:	10a00012 	beqz	a1,400838 <user_lp_Print+0x368>
  4007f0:	8e450000 	lw	a1,0(s2)
  4007f4:	26520004 	addiu	s2,s2,4
  4007f8:	afa0001c 	sw	zero,28(sp)
  4007fc:	afa80018 	sw	t0,24(sp)
  400800:	afa70014 	sw	a3,20(sp)
  400804:	afa40010 	sw	a0,16(sp)
  400808:	00003825 	move	a3,zero
  40080c:	2406000a 	li	a2,10
  400810:	0c1000cb 	jal	40032c <user_PrintNum>
  400814:	27a40020 	addiu	a0,sp,32
  400818:	2c4303e9 	sltiu	v1,v0,1001
  40081c:	10600008 	beqz	v1,400840 <user_lp_Print+0x370>
  400820:	00403025 	move	a2,v0
  400824:	27a50020 	addiu	a1,sp,32
  400828:	0260f809 	jalr	s3
  40082c:	02802025 	move	a0,s4
  400830:	1000ff66 	b	4005cc <user_lp_Print+0xfc>
  400834:	26050001 	addiu	a1,s0,1
  400838:	1000ffef 	b	4007f8 <user_lp_Print+0x328>
  40083c:	26520004 	addiu	s2,s2,4
  400840:	2406001d 	li	a2,29
  400844:	3c050042 	lui	a1,0x42
  400848:	24a5b824 	addiu	a1,a1,-18396
  40084c:	0260f809 	jalr	s3
  400850:	02802025 	move	a0,s4
  400854:	1000ffff 	b	400854 <user_lp_Print+0x384>
  400858:	00000000 	nop
  40085c:	10a00012 	beqz	a1,4008a8 <user_lp_Print+0x3d8>
  400860:	8e450000 	lw	a1,0(s2)
  400864:	26520004 	addiu	s2,s2,4
  400868:	afa0001c 	sw	zero,28(sp)
  40086c:	afa80018 	sw	t0,24(sp)
  400870:	afa70014 	sw	a3,20(sp)
  400874:	afa40010 	sw	a0,16(sp)
  400878:	00003825 	move	a3,zero
  40087c:	24060010 	li	a2,16
  400880:	0c1000cb 	jal	40032c <user_PrintNum>
  400884:	27a40020 	addiu	a0,sp,32
  400888:	2c4303e9 	sltiu	v1,v0,1001
  40088c:	10600008 	beqz	v1,4008b0 <user_lp_Print+0x3e0>
  400890:	00403025 	move	a2,v0
  400894:	27a50020 	addiu	a1,sp,32
  400898:	0260f809 	jalr	s3
  40089c:	02802025 	move	a0,s4
  4008a0:	1000ff4a 	b	4005cc <user_lp_Print+0xfc>
  4008a4:	26050001 	addiu	a1,s0,1
  4008a8:	1000ffef 	b	400868 <user_lp_Print+0x398>
  4008ac:	26520004 	addiu	s2,s2,4
  4008b0:	2406001d 	li	a2,29
  4008b4:	3c050042 	lui	a1,0x42
  4008b8:	24a5b824 	addiu	a1,a1,-18396
  4008bc:	0260f809 	jalr	s3
  4008c0:	02802025 	move	a0,s4
  4008c4:	1000ffff 	b	4008c4 <user_lp_Print+0x3f4>
  4008c8:	00000000 	nop
  4008cc:	10a00013 	beqz	a1,40091c <user_lp_Print+0x44c>
  4008d0:	8e450000 	lw	a1,0(s2)
  4008d4:	26520004 	addiu	s2,s2,4
  4008d8:	24020001 	li	v0,1
  4008dc:	afa2001c 	sw	v0,28(sp)
  4008e0:	afa80018 	sw	t0,24(sp)
  4008e4:	afa70014 	sw	a3,20(sp)
  4008e8:	afa40010 	sw	a0,16(sp)
  4008ec:	00003825 	move	a3,zero
  4008f0:	24060010 	li	a2,16
  4008f4:	0c1000cb 	jal	40032c <user_PrintNum>
  4008f8:	27a40020 	addiu	a0,sp,32
  4008fc:	2c4303e9 	sltiu	v1,v0,1001
  400900:	10600008 	beqz	v1,400924 <user_lp_Print+0x454>
  400904:	00403025 	move	a2,v0
  400908:	27a50020 	addiu	a1,sp,32
  40090c:	0260f809 	jalr	s3
  400910:	02802025 	move	a0,s4
  400914:	1000ff2d 	b	4005cc <user_lp_Print+0xfc>
  400918:	26050001 	addiu	a1,s0,1
  40091c:	1000ffee 	b	4008d8 <user_lp_Print+0x408>
  400920:	26520004 	addiu	s2,s2,4
  400924:	2406001d 	li	a2,29
  400928:	3c050042 	lui	a1,0x42
  40092c:	24a5b824 	addiu	a1,a1,-18396
  400930:	0260f809 	jalr	s3
  400934:	02802025 	move	a0,s4
  400938:	1000ffff 	b	400938 <user_lp_Print+0x468>
  40093c:	00000000 	nop
  400940:	26560004 	addiu	s6,s2,4
  400944:	00803025 	move	a2,a0
  400948:	92450000 	lbu	a1,0(s2)
  40094c:	0c100068 	jal	4001a0 <user_PrintChar>
  400950:	27a40020 	addiu	a0,sp,32
  400954:	2c4303e9 	sltiu	v1,v0,1001
  400958:	10600006 	beqz	v1,400974 <user_lp_Print+0x4a4>
  40095c:	00403025 	move	a2,v0
  400960:	27a50020 	addiu	a1,sp,32
  400964:	0260f809 	jalr	s3
  400968:	02802025 	move	a0,s4
  40096c:	1000ff16 	b	4005c8 <user_lp_Print+0xf8>
  400970:	02c09025 	move	s2,s6
  400974:	2406001d 	li	a2,29
  400978:	3c050042 	lui	a1,0x42
  40097c:	24a5b824 	addiu	a1,a1,-18396
  400980:	0260f809 	jalr	s3
  400984:	02802025 	move	a0,s4
  400988:	1000ffff 	b	400988 <user_lp_Print+0x4b8>
  40098c:	00000000 	nop
  400990:	26560004 	addiu	s6,s2,4
  400994:	00803025 	move	a2,a0
  400998:	8e450000 	lw	a1,0(s2)
  40099c:	0c100087 	jal	40021c <user_PrintString>
  4009a0:	27a40020 	addiu	a0,sp,32
  4009a4:	2c4303e9 	sltiu	v1,v0,1001
  4009a8:	10600006 	beqz	v1,4009c4 <user_lp_Print+0x4f4>
  4009ac:	00403025 	move	a2,v0
  4009b0:	27a50020 	addiu	a1,sp,32
  4009b4:	0260f809 	jalr	s3
  4009b8:	02802025 	move	a0,s4
  4009bc:	1000ff02 	b	4005c8 <user_lp_Print+0xf8>
  4009c0:	02c09025 	move	s2,s6
  4009c4:	2406001d 	li	a2,29
  4009c8:	3c050042 	lui	a1,0x42
  4009cc:	24a5b824 	addiu	a1,a1,-18396
  4009d0:	0260f809 	jalr	s3
  4009d4:	02802025 	move	a0,s4
  4009d8:	1000ffff 	b	4009d8 <user_lp_Print+0x508>
  4009dc:	00000000 	nop
  4009e0:	1000fef9 	b	4005c8 <user_lp_Print+0xf8>
  4009e4:	2610ffff 	addiu	s0,s0,-1
  4009e8:	24060001 	li	a2,1
  4009ec:	02002825 	move	a1,s0
  4009f0:	0260f809 	jalr	s3
  4009f4:	02802025 	move	a0,s4
  4009f8:	1000fef4 	b	4005cc <user_lp_Print+0xfc>
  4009fc:	26050001 	addiu	a1,s0,1
  400a00:	24060001 	li	a2,1
  400a04:	3c050042 	lui	a1,0x42
  400a08:	24a5b63c 	addiu	a1,a1,-18884
  400a0c:	0260f809 	jalr	s3
  400a10:	02802025 	move	a0,s4
  400a14:	8fbf0424 	lw	ra,1060(sp)
  400a18:	8fb60420 	lw	s6,1056(sp)
  400a1c:	8fb5041c 	lw	s5,1052(sp)
  400a20:	8fb40418 	lw	s4,1048(sp)
  400a24:	8fb30414 	lw	s3,1044(sp)
  400a28:	8fb20410 	lw	s2,1040(sp)
  400a2c:	8fb1040c 	lw	s1,1036(sp)
  400a30:	8fb00408 	lw	s0,1032(sp)
  400a34:	03e00008 	jr	ra
  400a38:	27bd0428 	addiu	sp,sp,1064

00400a3c <exit>:
  400a3c:	27bdffe8 	addiu	sp,sp,-24
  400a40:	afbf0014 	sw	ra,20(sp)
  400a44:	0c100400 	jal	401000 <syscall_env_destroy>
  400a48:	00002025 	move	a0,zero
  400a4c:	8fbf0014 	lw	ra,20(sp)
  400a50:	03e00008 	jr	ra
  400a54:	27bd0018 	addiu	sp,sp,24

00400a58 <libmain>:
  400a58:	27bdffe0 	addiu	sp,sp,-32
  400a5c:	afbf001c 	sw	ra,28(sp)
  400a60:	afb20018 	sw	s2,24(sp)
  400a64:	afb10014 	sw	s1,20(sp)
  400a68:	afb00010 	sw	s0,16(sp)
  400a6c:	00808825 	move	s1,a0
  400a70:	00a09025 	move	s2,a1
  400a74:	3c100042 	lui	s0,0x42
  400a78:	0c1003e8 	jal	400fa0 <syscall_getenvid>
  400a7c:	ae005d64 	sw	zero,23908(s0)
  400a80:	304303ff 	andi	v1,v0,0x3ff
  400a84:	00031100 	sll	v0,v1,0x4
  400a88:	00431023 	subu	v0,v0,v1
  400a8c:	00021080 	sll	v0,v0,0x2
  400a90:	00431023 	subu	v0,v0,v1
  400a94:	00021080 	sll	v0,v0,0x2
  400a98:	3c030042 	lui	v1,0x42
  400a9c:	8c635744 	lw	v1,22340(v1)
  400aa0:	00621021 	addu	v0,v1,v0
  400aa4:	ae025d64 	sw	v0,23908(s0)
  400aa8:	02402825 	move	a1,s2
  400aac:	0c102c5a 	jal	40b168 <umain>
  400ab0:	02202025 	move	a0,s1
  400ab4:	0c10028f 	jal	400a3c <exit>
  400ab8:	00000000 	nop

00400abc <user_bcopy>:
  400abc:	00851025 	or	v0,a0,a1
  400ac0:	30420003 	andi	v0,v0,0x3
  400ac4:	14400013 	bnez	v0,400b14 <user_bcopy+0x58>
  400ac8:	00a63021 	addu	a2,a1,a2
  400acc:	24a20003 	addiu	v0,a1,3
  400ad0:	0046102b 	sltu	v0,v0,a2
  400ad4:	00a01825 	move	v1,a1
  400ad8:	1040000e 	beqz	v0,400b14 <user_bcopy+0x58>
  400adc:	00803825 	move	a3,a0
  400ae0:	8ce20000 	lw	v0,0(a3)
  400ae4:	ac620000 	sw	v0,0(v1)
  400ae8:	24e70004 	addiu	a3,a3,4
  400aec:	24620007 	addiu	v0,v1,7
  400af0:	0046102b 	sltu	v0,v0,a2
  400af4:	1440fffa 	bnez	v0,400ae0 <user_bcopy+0x24>
  400af8:	24630004 	addiu	v1,v1,4
  400afc:	00c51023 	subu	v0,a2,a1
  400b00:	2442fffc 	addiu	v0,v0,-4
  400b04:	7c020804 	ins	v0,zero,0x0,0x2
  400b08:	24420004 	addiu	v0,v0,4
  400b0c:	00a22821 	addu	a1,a1,v0
  400b10:	00822021 	addu	a0,a0,v0
  400b14:	00a6102b 	sltu	v0,a1,a2
  400b18:	10400008 	beqz	v0,400b3c <user_bcopy+0x80>
  400b1c:	00000000 	nop
  400b20:	90820000 	lbu	v0,0(a0)
  400b24:	a0a20000 	sb	v0,0(a1)
  400b28:	24a50001 	addiu	a1,a1,1
  400b2c:	14c5fffc 	bne	a2,a1,400b20 <user_bcopy+0x64>
  400b30:	24840001 	addiu	a0,a0,1
  400b34:	03e00008 	jr	ra
  400b38:	00000000 	nop
  400b3c:	03e00008 	jr	ra
  400b40:	00000000 	nop

00400b44 <pgfault>:
  400b44:	27bdffd8 	addiu	sp,sp,-40
  400b48:	afbf0024 	sw	ra,36(sp)
  400b4c:	afb20020 	sw	s2,32(sp)
  400b50:	afb1001c 	sw	s1,28(sp)
  400b54:	afb00018 	sw	s0,24(sp)
  400b58:	00808825 	move	s1,a0
  400b5c:	00042302 	srl	a0,a0,0xc
  400b60:	00042080 	sll	a0,a0,0x2
  400b64:	3c020041 	lui	v0,0x41
  400b68:	8c42f008 	lw	v0,-4088(v0)
  400b6c:	00442021 	addu	a0,v0,a0
  400b70:	8c820000 	lw	v0,0(a0)
  400b74:	30500fff 	andi	s0,v0,0xfff
  400b78:	30420001 	andi	v0,v0,0x1
  400b7c:	1040001f 	beqz	v0,400bfc <pgfault+0xb8>
  400b80:	7c115804 	ins	s1,zero,0x0,0xc
  400b84:	7c100004 	ins	s0,zero,0x0,0x1
  400b88:	02003025 	move	a2,s0
  400b8c:	3c057f3f 	lui	a1,0x7f3f
  400b90:	34a5e000 	ori	a1,a1,0xe000
  400b94:	0c100418 	jal	401060 <syscall_mem_alloc>
  400b98:	00002025 	move	a0,zero
  400b9c:	0440001d 	bltz	v0,400c14 <pgfault+0xd0>
  400ba0:	24061000 	li	a2,4096
  400ba4:	3c127f3f 	lui	s2,0x7f3f
  400ba8:	3645e000 	ori	a1,s2,0xe000
  400bac:	0c1002af 	jal	400abc <user_bcopy>
  400bb0:	02202025 	move	a0,s1
  400bb4:	afb00010 	sw	s0,16(sp)
  400bb8:	02203825 	move	a3,s1
  400bbc:	00003025 	move	a2,zero
  400bc0:	3645e000 	ori	a1,s2,0xe000
  400bc4:	0c100424 	jal	401090 <syscall_mem_map>
  400bc8:	00002025 	move	a0,zero
  400bcc:	04400017 	bltz	v0,400c2c <pgfault+0xe8>
  400bd0:	3c057f3f 	lui	a1,0x7f3f
  400bd4:	34a5e000 	ori	a1,a1,0xe000
  400bd8:	0c100431 	jal	4010c4 <syscall_mem_unmap>
  400bdc:	00002025 	move	a0,zero
  400be0:	04400018 	bltz	v0,400c44 <pgfault+0x100>
  400be4:	8fbf0024 	lw	ra,36(sp)
  400be8:	8fb20020 	lw	s2,32(sp)
  400bec:	8fb1001c 	lw	s1,28(sp)
  400bf0:	8fb00018 	lw	s0,24(sp)
  400bf4:	03e00008 	jr	ra
  400bf8:	27bd0028 	addiu	sp,sp,40
  400bfc:	3c060042 	lui	a2,0x42
  400c00:	24c6bd3c 	addiu	a2,a2,-17092
  400c04:	2405005b 	li	a1,91
  400c08:	3c040042 	lui	a0,0x42
  400c0c:	0c100051 	jal	400144 <_user_panic>
  400c10:	2484bd4c 	addiu	a0,a0,-17076
  400c14:	3c060042 	lui	a2,0x42
  400c18:	24c6bd54 	addiu	a2,a2,-17068
  400c1c:	2405005f 	li	a1,95
  400c20:	3c040042 	lui	a0,0x42
  400c24:	0c100051 	jal	400144 <_user_panic>
  400c28:	2484bd4c 	addiu	a0,a0,-17076
  400c2c:	3c060042 	lui	a2,0x42
  400c30:	24c6bd6c 	addiu	a2,a2,-17044
  400c34:	24050063 	li	a1,99
  400c38:	3c040042 	lui	a0,0x42
  400c3c:	0c100051 	jal	400144 <_user_panic>
  400c40:	2484bd4c 	addiu	a0,a0,-17076
  400c44:	3c060042 	lui	a2,0x42
  400c48:	24c6bd84 	addiu	a2,a2,-17020
  400c4c:	24050066 	li	a1,102
  400c50:	3c040042 	lui	a0,0x42
  400c54:	0c100051 	jal	400144 <_user_panic>
  400c58:	2484bd4c 	addiu	a0,a0,-17076

00400c5c <user_bzero>:
  400c5c:	24a2ffff 	addiu	v0,a1,-1
  400c60:	04400005 	bltz	v0,400c78 <user_bzero+0x1c>
  400c64:	00000000 	nop
  400c68:	00852821 	addu	a1,a0,a1
  400c6c:	24840001 	addiu	a0,a0,1
  400c70:	14a4fffe 	bne	a1,a0,400c6c <user_bzero+0x10>
  400c74:	a080ffff 	sb	zero,-1(a0)
  400c78:	03e00008 	jr	ra
  400c7c:	00000000 	nop

00400c80 <fork>:
  400c80:	27bdffc0 	addiu	sp,sp,-64
  400c84:	afbf003c 	sw	ra,60(sp)
  400c88:	afbe0038 	sw	s8,56(sp)
  400c8c:	afb70034 	sw	s7,52(sp)
  400c90:	afb60030 	sw	s6,48(sp)
  400c94:	afb5002c 	sw	s5,44(sp)
  400c98:	afb40028 	sw	s4,40(sp)
  400c9c:	afb30024 	sw	s3,36(sp)
  400ca0:	afb20020 	sw	s2,32(sp)
  400ca4:	afb1001c 	sw	s1,28(sp)
  400ca8:	afb00018 	sw	s0,24(sp)
  400cac:	3c040040 	lui	a0,0x40
  400cb0:	0c1003bd 	jal	400ef4 <set_pgfault_handler>
  400cb4:	24840b44 	addiu	a0,a0,2884
  400cb8:	afa00014 	sw	zero,20(sp)
  400cbc:	afa00010 	sw	zero,16(sp)
  400cc0:	00003825 	move	a3,zero
  400cc4:	00003025 	move	a2,zero
  400cc8:	00002825 	move	a1,zero
  400ccc:	0c100030 	jal	4000c0 <msyscall>
  400cd0:	2404253f 	li	a0,9535
  400cd4:	10400009 	beqz	v0,400cfc <fork+0x7c>
  400cd8:	0040b025 	move	s6,v0
  400cdc:	0040a025 	move	s4,v0
  400ce0:	00008025 	move	s0,zero
  400ce4:	3c120041 	lui	s2,0x41
  400ce8:	3c130041 	lui	s3,0x41
  400cec:	24150400 	li	s5,1024
  400cf0:	3c117f3f 	lui	s1,0x7f3f
  400cf4:	10000021 	b	400d7c <fork+0xfc>
  400cf8:	3631e000 	ori	s1,s1,0xe000
  400cfc:	3c020042 	lui	v0,0x42
  400d00:	0c1003e8 	jal	400fa0 <syscall_getenvid>
  400d04:	8c505744 	lw	s0,22340(v0)
  400d08:	304303ff 	andi	v1,v0,0x3ff
  400d0c:	00031100 	sll	v0,v1,0x4
  400d10:	00431023 	subu	v0,v0,v1
  400d14:	00021080 	sll	v0,v0,0x2
  400d18:	00431023 	subu	v0,v0,v1
  400d1c:	00021080 	sll	v0,v0,0x2
  400d20:	02021021 	addu	v0,s0,v0
  400d24:	3c030042 	lui	v1,0x42
  400d28:	10000051 	b	400e70 <fork+0x1f0>
  400d2c:	ac625d64 	sw	v0,23908(v1)
  400d30:	36f70001 	ori	s7,s7,0x1
  400d34:	0005f300 	sll	s8,a1,0xc
  400d38:	afb70010 	sw	s7,16(sp)
  400d3c:	03c03825 	move	a3,s8
  400d40:	03c02825 	move	a1,s8
  400d44:	0c100424 	jal	401090 <syscall_mem_map>
  400d48:	00002025 	move	a0,zero
  400d4c:	0440002f 	bltz	v0,400e0c <fork+0x18c>
  400d50:	03c03825 	move	a3,s8
  400d54:	afb70010 	sw	s7,16(sp)
  400d58:	00003025 	move	a2,zero
  400d5c:	03c02825 	move	a1,s8
  400d60:	0c100424 	jal	401090 <syscall_mem_map>
  400d64:	00002025 	move	a0,zero
  400d68:	0440002e 	bltz	v0,400e24 <fork+0x1a4>
  400d6c:	3c060042 	lui	a2,0x42
  400d70:	26101000 	addiu	s0,s0,4096
  400d74:	12110030 	beq	s0,s1,400e38 <fork+0x1b8>
  400d78:	24060600 	li	a2,1536
  400d7c:	00101582 	srl	v0,s0,0x16
  400d80:	00021880 	sll	v1,v0,0x2
  400d84:	8e42f00c 	lw	v0,-4084(s2)
  400d88:	00431021 	addu	v0,v0,v1
  400d8c:	8c420000 	lw	v0,0(v0)
  400d90:	30420200 	andi	v0,v0,0x200
  400d94:	5040fff7 	beqzl	v0,400d74 <fork+0xf4>
  400d98:	26101000 	addiu	s0,s0,4096
  400d9c:	00102b02 	srl	a1,s0,0xc
  400da0:	00051880 	sll	v1,a1,0x2
  400da4:	8e62f008 	lw	v0,-4088(s3)
  400da8:	00431021 	addu	v0,v0,v1
  400dac:	8c430000 	lw	v1,0(v0)
  400db0:	30630200 	andi	v1,v1,0x200
  400db4:	5060ffef 	beqzl	v1,400d74 <fork+0xf4>
  400db8:	26101000 	addiu	s0,s0,4096
  400dbc:	8c420000 	lw	v0,0(v0)
  400dc0:	30430200 	andi	v1,v0,0x200
  400dc4:	1060ffea 	beqz	v1,400d70 <fork+0xf0>
  400dc8:	30570fff 	andi	s7,v0,0xfff
  400dcc:	30420404 	andi	v0,v0,0x404
  400dd0:	1055ffd7 	beq	v0,s5,400d30 <fork+0xb0>
  400dd4:	02803025 	move	a2,s4
  400dd8:	00052b00 	sll	a1,a1,0xc
  400ddc:	afb70010 	sw	s7,16(sp)
  400de0:	00a03825 	move	a3,a1
  400de4:	0c100424 	jal	401090 <syscall_mem_map>
  400de8:	00002025 	move	a0,zero
  400dec:	0443ffe1 	bgezl	v0,400d74 <fork+0xf4>
  400df0:	26101000 	addiu	s0,s0,4096
  400df4:	3c060042 	lui	a2,0x42
  400df8:	24c6bd9c 	addiu	a2,a2,-16996
  400dfc:	24050094 	li	a1,148
  400e00:	3c040042 	lui	a0,0x42
  400e04:	0c100051 	jal	400144 <_user_panic>
  400e08:	2484bd4c 	addiu	a0,a0,-17076
  400e0c:	3c060042 	lui	a2,0x42
  400e10:	24c6bd9c 	addiu	a2,a2,-16996
  400e14:	2405008e 	li	a1,142
  400e18:	3c040042 	lui	a0,0x42
  400e1c:	0c100051 	jal	400144 <_user_panic>
  400e20:	2484bd4c 	addiu	a0,a0,-17076
  400e24:	24c6bdc8 	addiu	a2,a2,-16952
  400e28:	24050090 	li	a1,144
  400e2c:	3c040042 	lui	a0,0x42
  400e30:	0c100051 	jal	400144 <_user_panic>
  400e34:	2484bd4c 	addiu	a0,a0,-17076
  400e38:	3c057f3f 	lui	a1,0x7f3f
  400e3c:	34a5f000 	ori	a1,a1,0xf000
  400e40:	0c100418 	jal	401060 <syscall_mem_alloc>
  400e44:	02802025 	move	a0,s4
  400e48:	04400016 	bltz	v0,400ea4 <fork+0x224>
  400e4c:	3c067f40 	lui	a2,0x7f40
  400e50:	3c050040 	lui	a1,0x40
  400e54:	24a50014 	addiu	a1,a1,20
  400e58:	0c10040c 	jal	401030 <syscall_set_pgfault_handler>
  400e5c:	02802025 	move	a0,s4
  400e60:	04400016 	bltz	v0,400ebc <fork+0x23c>
  400e64:	24050001 	li	a1,1
  400e68:	0c10043d 	jal	4010f4 <syscall_set_env_status>
  400e6c:	02802025 	move	a0,s4
  400e70:	02c01025 	move	v0,s6
  400e74:	8fbf003c 	lw	ra,60(sp)
  400e78:	8fbe0038 	lw	s8,56(sp)
  400e7c:	8fb70034 	lw	s7,52(sp)
  400e80:	8fb60030 	lw	s6,48(sp)
  400e84:	8fb5002c 	lw	s5,44(sp)
  400e88:	8fb40028 	lw	s4,40(sp)
  400e8c:	8fb30024 	lw	s3,36(sp)
  400e90:	8fb20020 	lw	s2,32(sp)
  400e94:	8fb1001c 	lw	s1,28(sp)
  400e98:	8fb00018 	lw	s0,24(sp)
  400e9c:	03e00008 	jr	ra
  400ea0:	27bd0040 	addiu	sp,sp,64
  400ea4:	3c060042 	lui	a2,0x42
  400ea8:	24c6bdf8 	addiu	a2,a2,-16904
  400eac:	240500c3 	li	a1,195
  400eb0:	3c040042 	lui	a0,0x42
  400eb4:	0c100051 	jal	400144 <_user_panic>
  400eb8:	2484bd4c 	addiu	a0,a0,-17076
  400ebc:	3c060042 	lui	a2,0x42
  400ec0:	24c6be10 	addiu	a2,a2,-16880
  400ec4:	240500c6 	li	a1,198
  400ec8:	3c040042 	lui	a0,0x42
  400ecc:	0c100051 	jal	400144 <_user_panic>
  400ed0:	2484bd4c 	addiu	a0,a0,-17076

00400ed4 <sfork>:
  400ed4:	27bdffe8 	addiu	sp,sp,-24
  400ed8:	afbf0014 	sw	ra,20(sp)
  400edc:	3c060042 	lui	a2,0x42
  400ee0:	24c6be28 	addiu	a2,a2,-16856
  400ee4:	240500d1 	li	a1,209
  400ee8:	3c040042 	lui	a0,0x42
  400eec:	0c100051 	jal	400144 <_user_panic>
  400ef0:	2484bd4c 	addiu	a0,a0,-17076

00400ef4 <set_pgfault_handler>:
  400ef4:	27bdffe8 	addiu	sp,sp,-24
  400ef8:	afbf0014 	sw	ra,20(sp)
  400efc:	afb00010 	sw	s0,16(sp)
  400f00:	3c020041 	lui	v0,0x41
  400f04:	8c42f010 	lw	v0,-4080(v0)
  400f08:	10400007 	beqz	v0,400f28 <set_pgfault_handler+0x34>
  400f0c:	00808025 	move	s0,a0
  400f10:	3c020041 	lui	v0,0x41
  400f14:	ac50f010 	sw	s0,-4080(v0)
  400f18:	8fbf0014 	lw	ra,20(sp)
  400f1c:	8fb00010 	lw	s0,16(sp)
  400f20:	03e00008 	jr	ra
  400f24:	27bd0018 	addiu	sp,sp,24
  400f28:	24060600 	li	a2,1536
  400f2c:	3c057f3f 	lui	a1,0x7f3f
  400f30:	34a5f000 	ori	a1,a1,0xf000
  400f34:	0c100418 	jal	401060 <syscall_mem_alloc>
  400f38:	00002025 	move	a0,zero
  400f3c:	04400007 	bltz	v0,400f5c <set_pgfault_handler+0x68>
  400f40:	3c067f40 	lui	a2,0x7f40
  400f44:	3c050040 	lui	a1,0x40
  400f48:	24a50014 	addiu	a1,a1,20
  400f4c:	0c10040c 	jal	401030 <syscall_set_pgfault_handler>
  400f50:	00002025 	move	a0,zero
  400f54:	0441ffef 	bgez	v0,400f14 <set_pgfault_handler+0x20>
  400f58:	3c020041 	lui	v0,0x41
  400f5c:	3c040042 	lui	a0,0x42
  400f60:	0c100042 	jal	400108 <writef>
  400f64:	2484be40 	addiu	a0,a0,-16832
  400f68:	1000ffec 	b	400f1c <set_pgfault_handler+0x28>
  400f6c:	8fbf0014 	lw	ra,20(sp)

00400f70 <syscall_putchar>:
  400f70:	27bdffe0 	addiu	sp,sp,-32
  400f74:	afbf001c 	sw	ra,28(sp)
  400f78:	afa00014 	sw	zero,20(sp)
  400f7c:	afa00010 	sw	zero,16(sp)
  400f80:	00003825 	move	a3,zero
  400f84:	00003025 	move	a2,zero
  400f88:	00802825 	move	a1,a0
  400f8c:	0c100030 	jal	4000c0 <msyscall>
  400f90:	24042537 	li	a0,9527
  400f94:	8fbf001c 	lw	ra,28(sp)
  400f98:	03e00008 	jr	ra
  400f9c:	27bd0020 	addiu	sp,sp,32

00400fa0 <syscall_getenvid>:
  400fa0:	27bdffe0 	addiu	sp,sp,-32
  400fa4:	afbf001c 	sw	ra,28(sp)
  400fa8:	afa00014 	sw	zero,20(sp)
  400fac:	afa00010 	sw	zero,16(sp)
  400fb0:	00003825 	move	a3,zero
  400fb4:	00003025 	move	a2,zero
  400fb8:	00002825 	move	a1,zero
  400fbc:	0c100030 	jal	4000c0 <msyscall>
  400fc0:	24042538 	li	a0,9528
  400fc4:	8fbf001c 	lw	ra,28(sp)
  400fc8:	03e00008 	jr	ra
  400fcc:	27bd0020 	addiu	sp,sp,32

00400fd0 <syscall_yield>:
  400fd0:	27bdffe0 	addiu	sp,sp,-32
  400fd4:	afbf001c 	sw	ra,28(sp)
  400fd8:	afa00014 	sw	zero,20(sp)
  400fdc:	afa00010 	sw	zero,16(sp)
  400fe0:	00003825 	move	a3,zero
  400fe4:	00003025 	move	a2,zero
  400fe8:	00002825 	move	a1,zero
  400fec:	0c100030 	jal	4000c0 <msyscall>
  400ff0:	24042539 	li	a0,9529
  400ff4:	8fbf001c 	lw	ra,28(sp)
  400ff8:	03e00008 	jr	ra
  400ffc:	27bd0020 	addiu	sp,sp,32

00401000 <syscall_env_destroy>:
  401000:	27bdffe0 	addiu	sp,sp,-32
  401004:	afbf001c 	sw	ra,28(sp)
  401008:	afa00014 	sw	zero,20(sp)
  40100c:	afa00010 	sw	zero,16(sp)
  401010:	00003825 	move	a3,zero
  401014:	00003025 	move	a2,zero
  401018:	00802825 	move	a1,a0
  40101c:	0c100030 	jal	4000c0 <msyscall>
  401020:	2404253a 	li	a0,9530
  401024:	8fbf001c 	lw	ra,28(sp)
  401028:	03e00008 	jr	ra
  40102c:	27bd0020 	addiu	sp,sp,32

00401030 <syscall_set_pgfault_handler>:
  401030:	27bdffe0 	addiu	sp,sp,-32
  401034:	afbf001c 	sw	ra,28(sp)
  401038:	afa00014 	sw	zero,20(sp)
  40103c:	afa00010 	sw	zero,16(sp)
  401040:	00c03825 	move	a3,a2
  401044:	00a03025 	move	a2,a1
  401048:	00802825 	move	a1,a0
  40104c:	0c100030 	jal	4000c0 <msyscall>
  401050:	2404253b 	li	a0,9531
  401054:	8fbf001c 	lw	ra,28(sp)
  401058:	03e00008 	jr	ra
  40105c:	27bd0020 	addiu	sp,sp,32

00401060 <syscall_mem_alloc>:
  401060:	27bdffe0 	addiu	sp,sp,-32
  401064:	afbf001c 	sw	ra,28(sp)
  401068:	afa00014 	sw	zero,20(sp)
  40106c:	afa00010 	sw	zero,16(sp)
  401070:	00c03825 	move	a3,a2
  401074:	00a03025 	move	a2,a1
  401078:	00802825 	move	a1,a0
  40107c:	0c100030 	jal	4000c0 <msyscall>
  401080:	2404253c 	li	a0,9532
  401084:	8fbf001c 	lw	ra,28(sp)
  401088:	03e00008 	jr	ra
  40108c:	27bd0020 	addiu	sp,sp,32

00401090 <syscall_mem_map>:
  401090:	27bdffe0 	addiu	sp,sp,-32
  401094:	afbf001c 	sw	ra,28(sp)
  401098:	8fa20030 	lw	v0,48(sp)
  40109c:	afa20014 	sw	v0,20(sp)
  4010a0:	afa70010 	sw	a3,16(sp)
  4010a4:	00c03825 	move	a3,a2
  4010a8:	00a03025 	move	a2,a1
  4010ac:	00802825 	move	a1,a0
  4010b0:	0c100030 	jal	4000c0 <msyscall>
  4010b4:	2404253d 	li	a0,9533
  4010b8:	8fbf001c 	lw	ra,28(sp)
  4010bc:	03e00008 	jr	ra
  4010c0:	27bd0020 	addiu	sp,sp,32

004010c4 <syscall_mem_unmap>:
  4010c4:	27bdffe0 	addiu	sp,sp,-32
  4010c8:	afbf001c 	sw	ra,28(sp)
  4010cc:	afa00014 	sw	zero,20(sp)
  4010d0:	afa00010 	sw	zero,16(sp)
  4010d4:	00003825 	move	a3,zero
  4010d8:	00a03025 	move	a2,a1
  4010dc:	00802825 	move	a1,a0
  4010e0:	0c100030 	jal	4000c0 <msyscall>
  4010e4:	2404253e 	li	a0,9534
  4010e8:	8fbf001c 	lw	ra,28(sp)
  4010ec:	03e00008 	jr	ra
  4010f0:	27bd0020 	addiu	sp,sp,32

004010f4 <syscall_set_env_status>:
  4010f4:	27bdffe0 	addiu	sp,sp,-32
  4010f8:	afbf001c 	sw	ra,28(sp)
  4010fc:	afa00014 	sw	zero,20(sp)
  401100:	afa00010 	sw	zero,16(sp)
  401104:	00003825 	move	a3,zero
  401108:	00a03025 	move	a2,a1
  40110c:	00802825 	move	a1,a0
  401110:	0c100030 	jal	4000c0 <msyscall>
  401114:	24042540 	li	a0,9536
  401118:	8fbf001c 	lw	ra,28(sp)
  40111c:	03e00008 	jr	ra
  401120:	27bd0020 	addiu	sp,sp,32

00401124 <syscall_set_trapframe>:
  401124:	27bdffe0 	addiu	sp,sp,-32
  401128:	afbf001c 	sw	ra,28(sp)
  40112c:	afa00014 	sw	zero,20(sp)
  401130:	afa00010 	sw	zero,16(sp)
  401134:	00003825 	move	a3,zero
  401138:	00a03025 	move	a2,a1
  40113c:	00802825 	move	a1,a0
  401140:	0c100030 	jal	4000c0 <msyscall>
  401144:	24042541 	li	a0,9537
  401148:	8fbf001c 	lw	ra,28(sp)
  40114c:	03e00008 	jr	ra
  401150:	27bd0020 	addiu	sp,sp,32

00401154 <syscall_panic>:
  401154:	27bdffe0 	addiu	sp,sp,-32
  401158:	afbf001c 	sw	ra,28(sp)
  40115c:	afa00014 	sw	zero,20(sp)
  401160:	afa00010 	sw	zero,16(sp)
  401164:	00003825 	move	a3,zero
  401168:	00003025 	move	a2,zero
  40116c:	00802825 	move	a1,a0
  401170:	0c100030 	jal	4000c0 <msyscall>
  401174:	24042542 	li	a0,9538
  401178:	8fbf001c 	lw	ra,28(sp)
  40117c:	03e00008 	jr	ra
  401180:	27bd0020 	addiu	sp,sp,32

00401184 <syscall_ipc_can_send>:
  401184:	27bdffe0 	addiu	sp,sp,-32
  401188:	afbf001c 	sw	ra,28(sp)
  40118c:	afa00014 	sw	zero,20(sp)
  401190:	afa70010 	sw	a3,16(sp)
  401194:	00c03825 	move	a3,a2
  401198:	00a03025 	move	a2,a1
  40119c:	00802825 	move	a1,a0
  4011a0:	0c100030 	jal	4000c0 <msyscall>
  4011a4:	24042543 	li	a0,9539
  4011a8:	8fbf001c 	lw	ra,28(sp)
  4011ac:	03e00008 	jr	ra
  4011b0:	27bd0020 	addiu	sp,sp,32

004011b4 <syscall_ipc_recv>:
  4011b4:	27bdffe0 	addiu	sp,sp,-32
  4011b8:	afbf001c 	sw	ra,28(sp)
  4011bc:	afa00014 	sw	zero,20(sp)
  4011c0:	afa00010 	sw	zero,16(sp)
  4011c4:	00003825 	move	a3,zero
  4011c8:	00003025 	move	a2,zero
  4011cc:	00802825 	move	a1,a0
  4011d0:	0c100030 	jal	4000c0 <msyscall>
  4011d4:	24042544 	li	a0,9540
  4011d8:	8fbf001c 	lw	ra,28(sp)
  4011dc:	03e00008 	jr	ra
  4011e0:	27bd0020 	addiu	sp,sp,32

004011e4 <syscall_cgetc>:
  4011e4:	27bdffe0 	addiu	sp,sp,-32
  4011e8:	afbf001c 	sw	ra,28(sp)
  4011ec:	afa00014 	sw	zero,20(sp)
  4011f0:	afa00010 	sw	zero,16(sp)
  4011f4:	00003825 	move	a3,zero
  4011f8:	00003025 	move	a2,zero
  4011fc:	00002825 	move	a1,zero
  401200:	0c100030 	jal	4000c0 <msyscall>
  401204:	24042545 	li	a0,9541
  401208:	8fbf001c 	lw	ra,28(sp)
  40120c:	03e00008 	jr	ra
  401210:	27bd0020 	addiu	sp,sp,32

00401214 <syscall_write_dev>:
  401214:	27bdffe0 	addiu	sp,sp,-32
  401218:	afbf001c 	sw	ra,28(sp)
  40121c:	afa00014 	sw	zero,20(sp)
  401220:	afa00010 	sw	zero,16(sp)
  401224:	00c03825 	move	a3,a2
  401228:	00a03025 	move	a2,a1
  40122c:	00802825 	move	a1,a0
  401230:	0c100030 	jal	4000c0 <msyscall>
  401234:	24042546 	li	a0,9542
  401238:	8fbf001c 	lw	ra,28(sp)
  40123c:	03e00008 	jr	ra
  401240:	27bd0020 	addiu	sp,sp,32

00401244 <syscall_read_dev>:
  401244:	27bdffe0 	addiu	sp,sp,-32
  401248:	afbf001c 	sw	ra,28(sp)
  40124c:	afa00014 	sw	zero,20(sp)
  401250:	afa00010 	sw	zero,16(sp)
  401254:	00c03825 	move	a3,a2
  401258:	00a03025 	move	a2,a1
  40125c:	00802825 	move	a1,a0
  401260:	0c100030 	jal	4000c0 <msyscall>
  401264:	24042547 	li	a0,9543
  401268:	8fbf001c 	lw	ra,28(sp)
  40126c:	03e00008 	jr	ra
  401270:	27bd0020 	addiu	sp,sp,32

00401274 <ipc_send>:
  401274:	27bdffd8 	addiu	sp,sp,-40
  401278:	afbf0024 	sw	ra,36(sp)
  40127c:	afb40020 	sw	s4,32(sp)
  401280:	afb3001c 	sw	s3,28(sp)
  401284:	afb20018 	sw	s2,24(sp)
  401288:	afb10014 	sw	s1,20(sp)
  40128c:	afb00010 	sw	s0,16(sp)
  401290:	0080a025 	move	s4,a0
  401294:	00a09825 	move	s3,a1
  401298:	00c09025 	move	s2,a2
  40129c:	00e08825 	move	s1,a3
  4012a0:	10000003 	b	4012b0 <ipc_send+0x3c>
  4012a4:	2410fffa 	li	s0,-6
  4012a8:	0c1003f4 	jal	400fd0 <syscall_yield>
  4012ac:	00000000 	nop
  4012b0:	02203825 	move	a3,s1
  4012b4:	02403025 	move	a2,s2
  4012b8:	02602825 	move	a1,s3
  4012bc:	0c100461 	jal	401184 <syscall_ipc_can_send>
  4012c0:	02802025 	move	a0,s4
  4012c4:	1050fff8 	beq	v0,s0,4012a8 <ipc_send+0x34>
  4012c8:	00000000 	nop
  4012cc:	14400008 	bnez	v0,4012f0 <ipc_send+0x7c>
  4012d0:	8fbf0024 	lw	ra,36(sp)
  4012d4:	8fb40020 	lw	s4,32(sp)
  4012d8:	8fb3001c 	lw	s3,28(sp)
  4012dc:	8fb20018 	lw	s2,24(sp)
  4012e0:	8fb10014 	lw	s1,20(sp)
  4012e4:	8fb00010 	lw	s0,16(sp)
  4012e8:	03e00008 	jr	ra
  4012ec:	27bd0028 	addiu	sp,sp,40
  4012f0:	00403825 	move	a3,v0
  4012f4:	3c060042 	lui	a2,0x42
  4012f8:	24c6be5c 	addiu	a2,a2,-16804
  4012fc:	24050019 	li	a1,25
  401300:	3c040042 	lui	a0,0x42
  401304:	0c100051 	jal	400144 <_user_panic>
  401308:	2484be74 	addiu	a0,a0,-16780

0040130c <ipc_recv>:
  40130c:	27bdffe0 	addiu	sp,sp,-32
  401310:	afbf001c 	sw	ra,28(sp)
  401314:	afb10018 	sw	s1,24(sp)
  401318:	afb00014 	sw	s0,20(sp)
  40131c:	00808825 	move	s1,a0
  401320:	00c08025 	move	s0,a2
  401324:	0c10046d 	jal	4011b4 <syscall_ipc_recv>
  401328:	00a02025 	move	a0,a1
  40132c:	12200004 	beqz	s1,401340 <ipc_recv+0x34>
  401330:	3c020042 	lui	v0,0x42
  401334:	8c425d64 	lw	v0,23908(v0)
  401338:	8c4200c8 	lw	v0,200(v0)
  40133c:	ae220000 	sw	v0,0(s1)
  401340:	12000004 	beqz	s0,401354 <ipc_recv+0x48>
  401344:	3c020042 	lui	v0,0x42
  401348:	8c425d64 	lw	v0,23908(v0)
  40134c:	8c4200d4 	lw	v0,212(v0)
  401350:	ae020000 	sw	v0,0(s0)
  401354:	3c020042 	lui	v0,0x42
  401358:	8c425d64 	lw	v0,23908(v0)
  40135c:	8c4200c4 	lw	v0,196(v0)
  401360:	8fbf001c 	lw	ra,28(sp)
  401364:	8fb10018 	lw	s1,24(sp)
  401368:	8fb00014 	lw	s0,20(sp)
  40136c:	03e00008 	jr	ra
  401370:	27bd0020 	addiu	sp,sp,32

00401374 <dev_lookup>:
  401374:	3c020041 	lui	v0,0x41
  401378:	8c42f014 	lw	v0,-4076(v0)
  40137c:	1082001a 	beq	a0,v0,4013e8 <dev_lookup+0x74>
  401380:	3c020041 	lui	v0,0x41
  401384:	3c020041 	lui	v0,0x41
  401388:	8c42f04c 	lw	v0,-4020(v0)
  40138c:	10820012 	beq	a0,v0,4013d8 <dev_lookup+0x64>
  401390:	3c020041 	lui	v0,0x41
  401394:	3c020041 	lui	v0,0x41
  401398:	8c42f030 	lw	v0,-4048(v0)
  40139c:	10820010 	beq	a0,v0,4013e0 <dev_lookup+0x6c>
  4013a0:	3c020041 	lui	v0,0x41
  4013a4:	27bdffe8 	addiu	sp,sp,-24
  4013a8:	afbf0014 	sw	ra,20(sp)
  4013ac:	00803025 	move	a2,a0
  4013b0:	3c020042 	lui	v0,0x42
  4013b4:	8c425d64 	lw	v0,23908(v0)
  4013b8:	8c4500a4 	lw	a1,164(v0)
  4013bc:	3c040042 	lui	a0,0x42
  4013c0:	0c100042 	jal	400108 <writef>
  4013c4:	2484be7c 	addiu	a0,a0,-16772
  4013c8:	2402fffd 	li	v0,-3
  4013cc:	8fbf0014 	lw	ra,20(sp)
  4013d0:	03e00008 	jr	ra
  4013d4:	27bd0018 	addiu	sp,sp,24
  4013d8:	10000004 	b	4013ec <dev_lookup+0x78>
  4013dc:	2442f04c 	addiu	v0,v0,-4020
  4013e0:	10000002 	b	4013ec <dev_lookup+0x78>
  4013e4:	2442f030 	addiu	v0,v0,-4048
  4013e8:	2442f014 	addiu	v0,v0,-4076
  4013ec:	aca20000 	sw	v0,0(a1)
  4013f0:	03e00008 	jr	ra
  4013f4:	00001025 	move	v0,zero

004013f8 <fd_alloc>:
  4013f8:	3c020041 	lui	v0,0x41
  4013fc:	8c47f00c 	lw	a3,-4084(v0)
  401400:	8ce205fc 	lw	v0,1532(a3)
  401404:	30420200 	andi	v0,v0,0x200
  401408:	1040001f 	beqz	v0,401488 <fd_alloc+0x90>
  40140c:	3c055fc0 	lui	a1,0x5fc0
  401410:	3c020041 	lui	v0,0x41
  401414:	8c48f008 	lw	t0,-4088(v0)
  401418:	3c020018 	lui	v0,0x18
  40141c:	01021021 	addu	v0,t0,v0
  401420:	8c42f000 	lw	v0,-4096(v0)
  401424:	30420200 	andi	v0,v0,0x200
  401428:	1040001a 	beqz	v0,401494 <fd_alloc+0x9c>
  40142c:	3c030005 	lui	v1,0x5
  401430:	3463fc01 	ori	v1,v1,0xfc01
  401434:	3c060005 	lui	a2,0x5
  401438:	34c6fc1f 	ori	a2,a2,0xfc1f
  40143c:	00032b00 	sll	a1,v1,0xc
  401440:	00051582 	srl	v0,a1,0x16
  401444:	00021080 	sll	v0,v0,0x2
  401448:	00e21021 	addu	v0,a3,v0
  40144c:	8c420000 	lw	v0,0(v0)
  401450:	30420200 	andi	v0,v0,0x200
  401454:	5040000d 	beqzl	v0,40148c <fd_alloc+0x94>
  401458:	ac850000 	sw	a1,0(a0)
  40145c:	7c629800 	ext	v0,v1,0x0,0x14
  401460:	00021080 	sll	v0,v0,0x2
  401464:	01021021 	addu	v0,t0,v0
  401468:	8c420000 	lw	v0,0(v0)
  40146c:	30420200 	andi	v0,v0,0x200
  401470:	10400008 	beqz	v0,401494 <fd_alloc+0x9c>
  401474:	24630001 	addiu	v1,v1,1
  401478:	5466fff1 	bnel	v1,a2,401440 <fd_alloc+0x48>
  40147c:	00032b00 	sll	a1,v1,0xc
  401480:	03e00008 	jr	ra
  401484:	2402fff8 	li	v0,-8
  401488:	ac850000 	sw	a1,0(a0)
  40148c:	03e00008 	jr	ra
  401490:	00001025 	move	v0,zero
  401494:	ac850000 	sw	a1,0(a0)
  401498:	03e00008 	jr	ra
  40149c:	00001025 	move	v0,zero

004014a0 <fd_close>:
  4014a0:	27bdffe8 	addiu	sp,sp,-24
  4014a4:	afbf0014 	sw	ra,20(sp)
  4014a8:	00802825 	move	a1,a0
  4014ac:	0c100431 	jal	4010c4 <syscall_mem_unmap>
  4014b0:	00002025 	move	a0,zero
  4014b4:	8fbf0014 	lw	ra,20(sp)
  4014b8:	03e00008 	jr	ra
  4014bc:	27bd0018 	addiu	sp,sp,24

004014c0 <fd_lookup>:
  4014c0:	28820020 	slti	v0,a0,32
  4014c4:	10400010 	beqz	v0,401508 <fd_lookup+0x48>
  4014c8:	00000000 	nop
  4014cc:	3c020005 	lui	v0,0x5
  4014d0:	3442fc00 	ori	v0,v0,0xfc00
  4014d4:	00822021 	addu	a0,a0,v0
  4014d8:	00042300 	sll	a0,a0,0xc
  4014dc:	00041a82 	srl	v1,a0,0xa
  4014e0:	3c020041 	lui	v0,0x41
  4014e4:	8c42f008 	lw	v0,-4088(v0)
  4014e8:	00431021 	addu	v0,v0,v1
  4014ec:	8c420000 	lw	v0,0(v0)
  4014f0:	30420200 	andi	v0,v0,0x200
  4014f4:	10400006 	beqz	v0,401510 <fd_lookup+0x50>
  4014f8:	00000000 	nop
  4014fc:	aca40000 	sw	a0,0(a1)
  401500:	03e00008 	jr	ra
  401504:	00001025 	move	v0,zero
  401508:	03e00008 	jr	ra
  40150c:	2402fffd 	li	v0,-3
  401510:	03e00008 	jr	ra
  401514:	2402fffd 	li	v0,-3

00401518 <fd2data>:
  401518:	3c02a040 	lui	v0,0xa040
  40151c:	00821021 	addu	v0,a0,v0
  401520:	00021302 	srl	v0,v0,0xc
  401524:	24420180 	addiu	v0,v0,384
  401528:	03e00008 	jr	ra
  40152c:	00021580 	sll	v0,v0,0x16

00401530 <fd2num>:
  401530:	3c02a040 	lui	v0,0xa040
  401534:	00821021 	addu	v0,a0,v0
  401538:	03e00008 	jr	ra
  40153c:	00021302 	srl	v0,v0,0xc

00401540 <num2fd>:
  401540:	3c020005 	lui	v0,0x5
  401544:	3442fc00 	ori	v0,v0,0xfc00
  401548:	00821021 	addu	v0,a0,v0
  40154c:	03e00008 	jr	ra
  401550:	00021300 	sll	v0,v0,0xc

00401554 <close>:
  401554:	27bdffe0 	addiu	sp,sp,-32
  401558:	afbf001c 	sw	ra,28(sp)
  40155c:	afb00018 	sw	s0,24(sp)
  401560:	0c100530 	jal	4014c0 <fd_lookup>
  401564:	27a50014 	addiu	a1,sp,20
  401568:	0440000e 	bltz	v0,4015a4 <close+0x50>
  40156c:	00408025 	move	s0,v0
  401570:	27a50010 	addiu	a1,sp,16
  401574:	8fa20014 	lw	v0,20(sp)
  401578:	0c1004dd 	jal	401374 <dev_lookup>
  40157c:	8c440000 	lw	a0,0(v0)
  401580:	04400008 	bltz	v0,4015a4 <close+0x50>
  401584:	00408025 	move	s0,v0
  401588:	8fa20010 	lw	v0,16(sp)
  40158c:	8c420010 	lw	v0,16(v0)
  401590:	0040f809 	jalr	v0
  401594:	8fa40014 	lw	a0,20(sp)
  401598:	00408025 	move	s0,v0
  40159c:	0c100528 	jal	4014a0 <fd_close>
  4015a0:	8fa40014 	lw	a0,20(sp)
  4015a4:	02001025 	move	v0,s0
  4015a8:	8fbf001c 	lw	ra,28(sp)
  4015ac:	8fb00018 	lw	s0,24(sp)
  4015b0:	03e00008 	jr	ra
  4015b4:	27bd0020 	addiu	sp,sp,32

004015b8 <close_all>:
  4015b8:	27bdffe0 	addiu	sp,sp,-32
  4015bc:	afbf001c 	sw	ra,28(sp)
  4015c0:	afb10018 	sw	s1,24(sp)
  4015c4:	afb00014 	sw	s0,20(sp)
  4015c8:	00008025 	move	s0,zero
  4015cc:	24110020 	li	s1,32
  4015d0:	0c100555 	jal	401554 <close>
  4015d4:	02002025 	move	a0,s0
  4015d8:	26100001 	addiu	s0,s0,1
  4015dc:	1611fffc 	bne	s0,s1,4015d0 <close_all+0x18>
  4015e0:	8fbf001c 	lw	ra,28(sp)
  4015e4:	8fb10018 	lw	s1,24(sp)
  4015e8:	8fb00014 	lw	s0,20(sp)
  4015ec:	03e00008 	jr	ra
  4015f0:	27bd0020 	addiu	sp,sp,32

004015f4 <dup>:
  4015f4:	27bdffb8 	addiu	sp,sp,-72
  4015f8:	afbf0044 	sw	ra,68(sp)
  4015fc:	afb70040 	sw	s7,64(sp)
  401600:	afb6003c 	sw	s6,60(sp)
  401604:	afb50038 	sw	s5,56(sp)
  401608:	afb40034 	sw	s4,52(sp)
  40160c:	afb30030 	sw	s3,48(sp)
  401610:	afb2002c 	sw	s2,44(sp)
  401614:	afb10028 	sw	s1,40(sp)
  401618:	afb00024 	sw	s0,36(sp)
  40161c:	00a0b025 	move	s6,a1
  401620:	0c100530 	jal	4014c0 <fd_lookup>
  401624:	27a50018 	addiu	a1,sp,24
  401628:	04400039 	bltz	v0,401710 <dup+0x11c>
  40162c:	0040b825 	move	s7,v0
  401630:	0c100555 	jal	401554 <close>
  401634:	02c02025 	move	a0,s6
  401638:	3c150005 	lui	s5,0x5
  40163c:	36b5fc00 	ori	s5,s5,0xfc00
  401640:	02d5a821 	addu	s5,s6,s5
  401644:	0015ab00 	sll	s5,s5,0xc
  401648:	0c100546 	jal	401518 <fd2data>
  40164c:	8fa40018 	lw	a0,24(sp)
  401650:	0040a025 	move	s4,v0
  401654:	0c100546 	jal	401518 <fd2data>
  401658:	02a02025 	move	a0,s5
  40165c:	00408025 	move	s0,v0
  401660:	00141582 	srl	v0,s4,0x16
  401664:	00021880 	sll	v1,v0,0x2
  401668:	3c020041 	lui	v0,0x41
  40166c:	8c42f00c 	lw	v0,-4084(v0)
  401670:	00431021 	addu	v0,v0,v1
  401674:	8c420000 	lw	v0,0(v0)
  401678:	10400031 	beqz	v0,401740 <dup+0x14c>
  40167c:	3c120040 	lui	s2,0x40
  401680:	02929021 	addu	s2,s4,s2
  401684:	02808825 	move	s1,s4
  401688:	3c130041 	lui	s3,0x41
  40168c:	10000004 	b	4016a0 <dup+0xac>
  401690:	0214a023 	subu	s4,s0,s4
  401694:	26311000 	addiu	s1,s1,4096
  401698:	1232002a 	beq	s1,s2,401744 <dup+0x150>
  40169c:	8fa50018 	lw	a1,24(sp)
  4016a0:	00111302 	srl	v0,s1,0xc
  4016a4:	00021880 	sll	v1,v0,0x2
  4016a8:	8e62f008 	lw	v0,-4088(s3)
  4016ac:	00431021 	addu	v0,v0,v1
  4016b0:	8c420000 	lw	v0,0(v0)
  4016b4:	30430200 	andi	v1,v0,0x200
  4016b8:	5060fff7 	beqzl	v1,401698 <dup+0xa4>
  4016bc:	26311000 	addiu	s1,s1,4096
  4016c0:	30420604 	andi	v0,v0,0x604
  4016c4:	afa20010 	sw	v0,16(sp)
  4016c8:	02913821 	addu	a3,s4,s1
  4016cc:	00003025 	move	a2,zero
  4016d0:	02202825 	move	a1,s1
  4016d4:	0c100424 	jal	401090 <syscall_mem_map>
  4016d8:	00002025 	move	a0,zero
  4016dc:	0441ffed 	bgez	v0,401694 <dup+0xa0>
  4016e0:	0040b825 	move	s7,v0
  4016e4:	02a02825 	move	a1,s5
  4016e8:	0c100431 	jal	4010c4 <syscall_mem_unmap>
  4016ec:	00002025 	move	a0,zero
  4016f0:	3c110040 	lui	s1,0x40
  4016f4:	02118821 	addu	s1,s0,s1
  4016f8:	02002825 	move	a1,s0
  4016fc:	0c100431 	jal	4010c4 <syscall_mem_unmap>
  401700:	00002025 	move	a0,zero
  401704:	26101000 	addiu	s0,s0,4096
  401708:	1630fffc 	bne	s1,s0,4016fc <dup+0x108>
  40170c:	02002825 	move	a1,s0
  401710:	02e01025 	move	v0,s7
  401714:	8fbf0044 	lw	ra,68(sp)
  401718:	8fb70040 	lw	s7,64(sp)
  40171c:	8fb6003c 	lw	s6,60(sp)
  401720:	8fb50038 	lw	s5,56(sp)
  401724:	8fb40034 	lw	s4,52(sp)
  401728:	8fb30030 	lw	s3,48(sp)
  40172c:	8fb2002c 	lw	s2,44(sp)
  401730:	8fb10028 	lw	s1,40(sp)
  401734:	8fb00024 	lw	s0,36(sp)
  401738:	03e00008 	jr	ra
  40173c:	27bd0048 	addiu	sp,sp,72
  401740:	8fa50018 	lw	a1,24(sp)
  401744:	00051302 	srl	v0,a1,0xc
  401748:	00021880 	sll	v1,v0,0x2
  40174c:	3c020041 	lui	v0,0x41
  401750:	8c42f008 	lw	v0,-4088(v0)
  401754:	00431021 	addu	v0,v0,v1
  401758:	8c420000 	lw	v0,0(v0)
  40175c:	30420604 	andi	v0,v0,0x604
  401760:	afa20010 	sw	v0,16(sp)
  401764:	02a03825 	move	a3,s5
  401768:	00003025 	move	a2,zero
  40176c:	0c100424 	jal	401090 <syscall_mem_map>
  401770:	00002025 	move	a0,zero
  401774:	0440ffdb 	bltz	v0,4016e4 <dup+0xf0>
  401778:	0040b825 	move	s7,v0
  40177c:	1000ffe4 	b	401710 <dup+0x11c>
  401780:	02c0b825 	move	s7,s6

00401784 <read>:
  401784:	27bdffd8 	addiu	sp,sp,-40
  401788:	afbf0024 	sw	ra,36(sp)
  40178c:	afb20020 	sw	s2,32(sp)
  401790:	afb1001c 	sw	s1,28(sp)
  401794:	afb00018 	sw	s0,24(sp)
  401798:	00809025 	move	s2,a0
  40179c:	00a08025 	move	s0,a1
  4017a0:	00c08825 	move	s1,a2
  4017a4:	0c100530 	jal	4014c0 <fd_lookup>
  4017a8:	27a50014 	addiu	a1,sp,20
  4017ac:	04400019 	bltz	v0,401814 <read+0x90>
  4017b0:	8fbf0024 	lw	ra,36(sp)
  4017b4:	27a50010 	addiu	a1,sp,16
  4017b8:	8fa20014 	lw	v0,20(sp)
  4017bc:	0c1004dd 	jal	401374 <dev_lookup>
  4017c0:	8c440000 	lw	a0,0(v0)
  4017c4:	04400012 	bltz	v0,401810 <read+0x8c>
  4017c8:	8fa40014 	lw	a0,20(sp)
  4017cc:	8c820008 	lw	v0,8(a0)
  4017d0:	30420003 	andi	v0,v0,0x3
  4017d4:	24030001 	li	v1,1
  4017d8:	10430013 	beq	v0,v1,401828 <read+0xa4>
  4017dc:	02203025 	move	a2,s1
  4017e0:	8fa20010 	lw	v0,16(sp)
  4017e4:	8c420008 	lw	v0,8(v0)
  4017e8:	8c870004 	lw	a3,4(a0)
  4017ec:	0040f809 	jalr	v0
  4017f0:	02002825 	move	a1,s0
  4017f4:	18400006 	blez	v0,401810 <read+0x8c>
  4017f8:	8fa40014 	lw	a0,20(sp)
  4017fc:	8c830004 	lw	v1,4(a0)
  401800:	00621821 	addu	v1,v1,v0
  401804:	ac830004 	sw	v1,4(a0)
  401808:	02028021 	addu	s0,s0,v0
  40180c:	a2000000 	sb	zero,0(s0)
  401810:	8fbf0024 	lw	ra,36(sp)
  401814:	8fb20020 	lw	s2,32(sp)
  401818:	8fb1001c 	lw	s1,28(sp)
  40181c:	8fb00018 	lw	s0,24(sp)
  401820:	03e00008 	jr	ra
  401824:	27bd0028 	addiu	sp,sp,40
  401828:	3c020042 	lui	v0,0x42
  40182c:	8c425d64 	lw	v0,23908(v0)
  401830:	02403025 	move	a2,s2
  401834:	8c4500a4 	lw	a1,164(v0)
  401838:	3c040042 	lui	a0,0x42
  40183c:	0c100042 	jal	400108 <writef>
  401840:	2484be9c 	addiu	a0,a0,-16740
  401844:	1000fff2 	b	401810 <read+0x8c>
  401848:	2402fffd 	li	v0,-3

0040184c <readn>:
  40184c:	10c0001a 	beqz	a2,4018b8 <readn+0x6c>
  401850:	00000000 	nop
  401854:	27bdffd8 	addiu	sp,sp,-40
  401858:	afbf0024 	sw	ra,36(sp)
  40185c:	afb30020 	sw	s3,32(sp)
  401860:	afb2001c 	sw	s2,28(sp)
  401864:	afb10018 	sw	s1,24(sp)
  401868:	afb00014 	sw	s0,20(sp)
  40186c:	00c08825 	move	s1,a2
  401870:	00a09825 	move	s3,a1
  401874:	00809025 	move	s2,a0
  401878:	00002825 	move	a1,zero
  40187c:	00008025 	move	s0,zero
  401880:	02253023 	subu	a2,s1,a1
  401884:	02652821 	addu	a1,s3,a1
  401888:	0c1005e1 	jal	401784 <read>
  40188c:	02402025 	move	a0,s2
  401890:	0440000c 	bltz	v0,4018c4 <readn+0x78>
  401894:	8fbf0024 	lw	ra,36(sp)
  401898:	50400009 	beqzl	v0,4018c0 <readn+0x74>
  40189c:	02001025 	move	v0,s0
  4018a0:	02028021 	addu	s0,s0,v0
  4018a4:	0211102b 	sltu	v0,s0,s1
  4018a8:	1440fff5 	bnez	v0,401880 <readn+0x34>
  4018ac:	02002825 	move	a1,s0
  4018b0:	10000003 	b	4018c0 <readn+0x74>
  4018b4:	02001025 	move	v0,s0
  4018b8:	03e00008 	jr	ra
  4018bc:	00001025 	move	v0,zero
  4018c0:	8fbf0024 	lw	ra,36(sp)
  4018c4:	8fb30020 	lw	s3,32(sp)
  4018c8:	8fb2001c 	lw	s2,28(sp)
  4018cc:	8fb10018 	lw	s1,24(sp)
  4018d0:	8fb00014 	lw	s0,20(sp)
  4018d4:	03e00008 	jr	ra
  4018d8:	27bd0028 	addiu	sp,sp,40

004018dc <write>:
  4018dc:	27bdffd8 	addiu	sp,sp,-40
  4018e0:	afbf0024 	sw	ra,36(sp)
  4018e4:	afb20020 	sw	s2,32(sp)
  4018e8:	afb1001c 	sw	s1,28(sp)
  4018ec:	afb00018 	sw	s0,24(sp)
  4018f0:	00809025 	move	s2,a0
  4018f4:	00a08025 	move	s0,a1
  4018f8:	00c08825 	move	s1,a2
  4018fc:	0c100530 	jal	4014c0 <fd_lookup>
  401900:	27a50014 	addiu	a1,sp,20
  401904:	04400016 	bltz	v0,401960 <write+0x84>
  401908:	8fbf0024 	lw	ra,36(sp)
  40190c:	27a50010 	addiu	a1,sp,16
  401910:	8fa20014 	lw	v0,20(sp)
  401914:	0c1004dd 	jal	401374 <dev_lookup>
  401918:	8c440000 	lw	a0,0(v0)
  40191c:	0440000f 	bltz	v0,40195c <write+0x80>
  401920:	8fa40014 	lw	a0,20(sp)
  401924:	8c820008 	lw	v0,8(a0)
  401928:	30420003 	andi	v0,v0,0x3
  40192c:	10400011 	beqz	v0,401974 <write+0x98>
  401930:	02203025 	move	a2,s1
  401934:	8fa20010 	lw	v0,16(sp)
  401938:	8c42000c 	lw	v0,12(v0)
  40193c:	8c870004 	lw	a3,4(a0)
  401940:	0040f809 	jalr	v0
  401944:	02002825 	move	a1,s0
  401948:	18400004 	blez	v0,40195c <write+0x80>
  40194c:	8fa40014 	lw	a0,20(sp)
  401950:	8c830004 	lw	v1,4(a0)
  401954:	00621821 	addu	v1,v1,v0
  401958:	ac830004 	sw	v1,4(a0)
  40195c:	8fbf0024 	lw	ra,36(sp)
  401960:	8fb20020 	lw	s2,32(sp)
  401964:	8fb1001c 	lw	s1,28(sp)
  401968:	8fb00018 	lw	s0,24(sp)
  40196c:	03e00008 	jr	ra
  401970:	27bd0028 	addiu	sp,sp,40
  401974:	3c020042 	lui	v0,0x42
  401978:	8c425d64 	lw	v0,23908(v0)
  40197c:	02403025 	move	a2,s2
  401980:	8c4500a4 	lw	a1,164(v0)
  401984:	3c040042 	lui	a0,0x42
  401988:	0c100042 	jal	400108 <writef>
  40198c:	2484beb8 	addiu	a0,a0,-16712
  401990:	1000fff2 	b	40195c <write+0x80>
  401994:	2402fffd 	li	v0,-3

00401998 <seek>:
  401998:	27bdffe0 	addiu	sp,sp,-32
  40199c:	afbf001c 	sw	ra,28(sp)
  4019a0:	afb00018 	sw	s0,24(sp)
  4019a4:	00a08025 	move	s0,a1
  4019a8:	0c100530 	jal	4014c0 <fd_lookup>
  4019ac:	27a50010 	addiu	a1,sp,16
  4019b0:	04400005 	bltz	v0,4019c8 <seek+0x30>
  4019b4:	8fbf001c 	lw	ra,28(sp)
  4019b8:	8fa20010 	lw	v0,16(sp)
  4019bc:	ac500004 	sw	s0,4(v0)
  4019c0:	00001025 	move	v0,zero
  4019c4:	8fbf001c 	lw	ra,28(sp)
  4019c8:	8fb00018 	lw	s0,24(sp)
  4019cc:	03e00008 	jr	ra
  4019d0:	27bd0020 	addiu	sp,sp,32

004019d4 <fstat>:
  4019d4:	27bdffe0 	addiu	sp,sp,-32
  4019d8:	afbf001c 	sw	ra,28(sp)
  4019dc:	afb00018 	sw	s0,24(sp)
  4019e0:	00a08025 	move	s0,a1
  4019e4:	0c100530 	jal	4014c0 <fd_lookup>
  4019e8:	27a50014 	addiu	a1,sp,20
  4019ec:	0440000e 	bltz	v0,401a28 <fstat+0x54>
  4019f0:	27a50010 	addiu	a1,sp,16
  4019f4:	8fa20014 	lw	v0,20(sp)
  4019f8:	0c1004dd 	jal	401374 <dev_lookup>
  4019fc:	8c440000 	lw	a0,0(v0)
  401a00:	04400009 	bltz	v0,401a28 <fstat+0x54>
  401a04:	02002825 	move	a1,s0
  401a08:	a2000000 	sb	zero,0(s0)
  401a0c:	ae000080 	sw	zero,128(s0)
  401a10:	ae000084 	sw	zero,132(s0)
  401a14:	8fa20010 	lw	v0,16(sp)
  401a18:	ae020088 	sw	v0,136(s0)
  401a1c:	8c420014 	lw	v0,20(v0)
  401a20:	0040f809 	jalr	v0
  401a24:	8fa40014 	lw	a0,20(sp)
  401a28:	8fbf001c 	lw	ra,28(sp)
  401a2c:	8fb00018 	lw	s0,24(sp)
  401a30:	03e00008 	jr	ra
  401a34:	27bd0020 	addiu	sp,sp,32

00401a38 <stat>:
  401a38:	27bdffe0 	addiu	sp,sp,-32
  401a3c:	afbf001c 	sw	ra,28(sp)
  401a40:	afb10018 	sw	s1,24(sp)
  401a44:	afb00014 	sw	s0,20(sp)
  401a48:	00a08825 	move	s1,a1
  401a4c:	0c10072a 	jal	401ca8 <open>
  401a50:	00002825 	move	a1,zero
  401a54:	04400008 	bltz	v0,401a78 <stat+0x40>
  401a58:	00408025 	move	s0,v0
  401a5c:	02202825 	move	a1,s1
  401a60:	0c100675 	jal	4019d4 <fstat>
  401a64:	00402025 	move	a0,v0
  401a68:	00408825 	move	s1,v0
  401a6c:	0c100555 	jal	401554 <close>
  401a70:	02002025 	move	a0,s0
  401a74:	02208025 	move	s0,s1
  401a78:	02001025 	move	v0,s0
  401a7c:	8fbf001c 	lw	ra,28(sp)
  401a80:	8fb10018 	lw	s1,24(sp)
  401a84:	8fb00014 	lw	s0,20(sp)
  401a88:	03e00008 	jr	ra
  401a8c:	27bd0020 	addiu	sp,sp,32

00401a90 <pageref>:
  401a90:	00041582 	srl	v0,a0,0x16
  401a94:	00021880 	sll	v1,v0,0x2
  401a98:	3c020041 	lui	v0,0x41
  401a9c:	8c42f00c 	lw	v0,-4084(v0)
  401aa0:	00431021 	addu	v0,v0,v1
  401aa4:	8c430000 	lw	v1,0(v0)
  401aa8:	30630200 	andi	v1,v1,0x200
  401aac:	10600012 	beqz	v1,401af8 <pageref+0x68>
  401ab0:	00001025 	move	v0,zero
  401ab4:	00042302 	srl	a0,a0,0xc
  401ab8:	00042080 	sll	a0,a0,0x2
  401abc:	3c020041 	lui	v0,0x41
  401ac0:	8c42f008 	lw	v0,-4088(v0)
  401ac4:	00442021 	addu	a0,v0,a0
  401ac8:	8c830000 	lw	v1,0(a0)
  401acc:	30640200 	andi	a0,v1,0x200
  401ad0:	10800009 	beqz	a0,401af8 <pageref+0x68>
  401ad4:	00001025 	move	v0,zero
  401ad8:	00031b02 	srl	v1,v1,0xc
  401adc:	3c020041 	lui	v0,0x41
  401ae0:	8c44f004 	lw	a0,-4092(v0)
  401ae4:	00031040 	sll	v0,v1,0x1
  401ae8:	00431821 	addu	v1,v0,v1
  401aec:	00031880 	sll	v1,v1,0x2
  401af0:	00831821 	addu	v1,a0,v1
  401af4:	94620008 	lhu	v0,8(v1)
  401af8:	03e00008 	jr	ra
  401afc:	00000000 	nop

00401b00 <file_stat>:
  401b00:	27bdffe0 	addiu	sp,sp,-32
  401b04:	afbf001c 	sw	ra,28(sp)
  401b08:	afb10018 	sw	s1,24(sp)
  401b0c:	afb00014 	sw	s0,20(sp)
  401b10:	00808825 	move	s1,a0
  401b14:	00a08025 	move	s0,a1
  401b18:	24850010 	addiu	a1,a0,16
  401b1c:	0c10130c 	jal	404c30 <strcpy>
  401b20:	02002025 	move	a0,s0
  401b24:	8e220090 	lw	v0,144(s1)
  401b28:	ae020080 	sw	v0,128(s0)
  401b2c:	8e220094 	lw	v0,148(s1)
  401b30:	38420001 	xori	v0,v0,0x1
  401b34:	2c420001 	sltiu	v0,v0,1
  401b38:	ae020084 	sw	v0,132(s0)
  401b3c:	00001025 	move	v0,zero
  401b40:	8fbf001c 	lw	ra,28(sp)
  401b44:	8fb10018 	lw	s1,24(sp)
  401b48:	8fb00014 	lw	s0,20(sp)
  401b4c:	03e00008 	jr	ra
  401b50:	27bd0020 	addiu	sp,sp,32

00401b54 <file_close>:
  401b54:	27bdffd8 	addiu	sp,sp,-40
  401b58:	afbf0024 	sw	ra,36(sp)
  401b5c:	afb30020 	sw	s3,32(sp)
  401b60:	afb2001c 	sw	s2,28(sp)
  401b64:	afb10018 	sw	s1,24(sp)
  401b68:	afb00014 	sw	s0,20(sp)
  401b6c:	8c92000c 	lw	s2,12(a0)
  401b70:	0c100546 	jal	401518 <fd2data>
  401b74:	8c910090 	lw	s1,144(a0)
  401b78:	12200029 	beqz	s1,401c20 <file_close+0xcc>
  401b7c:	00409825 	move	s3,v0
  401b80:	00008025 	move	s0,zero
  401b84:	02002825 	move	a1,s0
  401b88:	0c100990 	jal	402640 <fsipc_dirty>
  401b8c:	02402025 	move	a0,s2
  401b90:	26101000 	addiu	s0,s0,4096
  401b94:	0211102b 	sltu	v0,s0,s1
  401b98:	1440fffb 	bnez	v0,401b88 <file_close+0x34>
  401b9c:	02002825 	move	a1,s0
  401ba0:	0c100983 	jal	40260c <fsipc_close>
  401ba4:	02402025 	move	a0,s2
  401ba8:	00409025 	move	s2,v0
  401bac:	0440000c 	bltz	v0,401be0 <file_close+0x8c>
  401bb0:	00008025 	move	s0,zero
  401bb4:	02702821 	addu	a1,s3,s0
  401bb8:	0c100431 	jal	4010c4 <syscall_mem_unmap>
  401bbc:	00002025 	move	a0,zero
  401bc0:	0440000c 	bltz	v0,401bf4 <file_close+0xa0>
  401bc4:	00409025 	move	s2,v0
  401bc8:	26101000 	addiu	s0,s0,4096
  401bcc:	0211102b 	sltu	v0,s0,s1
  401bd0:	1440fff9 	bnez	v0,401bb8 <file_close+0x64>
  401bd4:	02702821 	addu	a1,s3,s0
  401bd8:	10000009 	b	401c00 <file_close+0xac>
  401bdc:	00009025 	move	s2,zero
  401be0:	3c040042 	lui	a0,0x42
  401be4:	0c100042 	jal	400108 <writef>
  401be8:	2484bed8 	addiu	a0,a0,-16680
  401bec:	10000005 	b	401c04 <file_close+0xb0>
  401bf0:	02401025 	move	v0,s2
  401bf4:	3c040042 	lui	a0,0x42
  401bf8:	0c100042 	jal	400108 <writef>
  401bfc:	2484bef0 	addiu	a0,a0,-16656
  401c00:	02401025 	move	v0,s2
  401c04:	8fbf0024 	lw	ra,36(sp)
  401c08:	8fb30020 	lw	s3,32(sp)
  401c0c:	8fb2001c 	lw	s2,28(sp)
  401c10:	8fb10018 	lw	s1,24(sp)
  401c14:	8fb00014 	lw	s0,20(sp)
  401c18:	03e00008 	jr	ra
  401c1c:	27bd0028 	addiu	sp,sp,40
  401c20:	0c100983 	jal	40260c <fsipc_close>
  401c24:	02402025 	move	a0,s2
  401c28:	0440ffed 	bltz	v0,401be0 <file_close+0x8c>
  401c2c:	00409025 	move	s2,v0
  401c30:	1000fff3 	b	401c00 <file_close+0xac>
  401c34:	00009025 	move	s2,zero

00401c38 <file_read>:
  401c38:	27bdffe0 	addiu	sp,sp,-32
  401c3c:	afbf001c 	sw	ra,28(sp)
  401c40:	afb20018 	sw	s2,24(sp)
  401c44:	afb10014 	sw	s1,20(sp)
  401c48:	afb00010 	sw	s0,16(sp)
  401c4c:	00a09025 	move	s2,a1
  401c50:	8c830090 	lw	v1,144(a0)
  401c54:	0067282b 	sltu	a1,v1,a3
  401c58:	14a0000d 	bnez	a1,401c90 <file_read+0x58>
  401c5c:	00001025 	move	v0,zero
  401c60:	00c08025 	move	s0,a2
  401c64:	00e08825 	move	s1,a3
  401c68:	00e61021 	addu	v0,a3,a2
  401c6c:	0062102b 	sltu	v0,v1,v0
  401c70:	00671823 	subu	v1,v1,a3
  401c74:	0c100546 	jal	401518 <fd2data>
  401c78:	0062800b 	movn	s0,v1,v0
  401c7c:	02003025 	move	a2,s0
  401c80:	02402825 	move	a1,s2
  401c84:	0c1002af 	jal	400abc <user_bcopy>
  401c88:	02222021 	addu	a0,s1,v0
  401c8c:	02001025 	move	v0,s0
  401c90:	8fbf001c 	lw	ra,28(sp)
  401c94:	8fb20018 	lw	s2,24(sp)
  401c98:	8fb10014 	lw	s1,20(sp)
  401c9c:	8fb00010 	lw	s0,16(sp)
  401ca0:	03e00008 	jr	ra
  401ca4:	27bd0020 	addiu	sp,sp,32

00401ca8 <open>:
  401ca8:	27bdffd0 	addiu	sp,sp,-48
  401cac:	afbf002c 	sw	ra,44(sp)
  401cb0:	afb30028 	sw	s3,40(sp)
  401cb4:	afb20024 	sw	s2,36(sp)
  401cb8:	afb10020 	sw	s1,32(sp)
  401cbc:	afb0001c 	sw	s0,28(sp)
  401cc0:	00808025 	move	s0,a0
  401cc4:	00a08825 	move	s1,a1
  401cc8:	0c1004fe 	jal	4013f8 <fd_alloc>
  401ccc:	27a40010 	addiu	a0,sp,16
  401cd0:	04400019 	bltz	v0,401d38 <open+0x90>
  401cd4:	8fa60010 	lw	a2,16(sp)
  401cd8:	02202825 	move	a1,s1
  401cdc:	0c100935 	jal	4024d4 <fsipc_open>
  401ce0:	02002025 	move	a0,s0
  401ce4:	04400015 	bltz	v0,401d3c <open+0x94>
  401ce8:	8fbf002c 	lw	ra,44(sp)
  401cec:	0c100546 	jal	401518 <fd2data>
  401cf0:	8fa40010 	lw	a0,16(sp)
  401cf4:	00409025 	move	s2,v0
  401cf8:	8fa20010 	lw	v0,16(sp)
  401cfc:	8c510090 	lw	s1,144(v0)
  401d00:	1220000b 	beqz	s1,401d30 <open+0x88>
  401d04:	8c53000c 	lw	s3,12(v0)
  401d08:	00008025 	move	s0,zero
  401d0c:	02503021 	addu	a2,s2,s0
  401d10:	02002825 	move	a1,s0
  401d14:	0c100953 	jal	40254c <fsipc_map>
  401d18:	02602025 	move	a0,s3
  401d1c:	04400006 	bltz	v0,401d38 <open+0x90>
  401d20:	26101000 	addiu	s0,s0,4096
  401d24:	0211102b 	sltu	v0,s0,s1
  401d28:	1440fff9 	bnez	v0,401d10 <open+0x68>
  401d2c:	02503021 	addu	a2,s2,s0
  401d30:	0c10054c 	jal	401530 <fd2num>
  401d34:	8fa40010 	lw	a0,16(sp)
  401d38:	8fbf002c 	lw	ra,44(sp)
  401d3c:	8fb30028 	lw	s3,40(sp)
  401d40:	8fb20024 	lw	s2,36(sp)
  401d44:	8fb10020 	lw	s1,32(sp)
  401d48:	8fb0001c 	lw	s0,28(sp)
  401d4c:	03e00008 	jr	ra
  401d50:	27bd0030 	addiu	sp,sp,48

00401d54 <read_map>:
  401d54:	27bdffd8 	addiu	sp,sp,-40
  401d58:	afbf0024 	sw	ra,36(sp)
  401d5c:	afb10020 	sw	s1,32(sp)
  401d60:	afb0001c 	sw	s0,28(sp)
  401d64:	00a08025 	move	s0,a1
  401d68:	00c08825 	move	s1,a2
  401d6c:	0c100530 	jal	4014c0 <fd_lookup>
  401d70:	27a50010 	addiu	a1,sp,16
  401d74:	04400020 	bltz	v0,401df8 <read_map+0xa4>
  401d78:	8fa40010 	lw	a0,16(sp)
  401d7c:	8c830000 	lw	v1,0(a0)
  401d80:	3c020041 	lui	v0,0x41
  401d84:	8c42f014 	lw	v0,-4076(v0)
  401d88:	1462001b 	bne	v1,v0,401df8 <read_map+0xa4>
  401d8c:	2402fffd 	li	v0,-3
  401d90:	0c100546 	jal	401518 <fd2data>
  401d94:	00000000 	nop
  401d98:	00501021 	addu	v0,v0,s0
  401d9c:	3c030040 	lui	v1,0x40
  401da0:	0203802b 	sltu	s0,s0,v1
  401da4:	52000014 	beqzl	s0,401df8 <read_map+0xa4>
  401da8:	2402fff9 	li	v0,-7
  401dac:	00021d82 	srl	v1,v0,0x16
  401db0:	00032080 	sll	a0,v1,0x2
  401db4:	3c030041 	lui	v1,0x41
  401db8:	8c63f00c 	lw	v1,-4084(v1)
  401dbc:	00641821 	addu	v1,v1,a0
  401dc0:	8c630000 	lw	v1,0(v1)
  401dc4:	30630200 	andi	v1,v1,0x200
  401dc8:	10600012 	beqz	v1,401e14 <read_map+0xc0>
  401dcc:	00021b02 	srl	v1,v0,0xc
  401dd0:	00032080 	sll	a0,v1,0x2
  401dd4:	3c030041 	lui	v1,0x41
  401dd8:	8c63f008 	lw	v1,-4088(v1)
  401ddc:	00641821 	addu	v1,v1,a0
  401de0:	8c630000 	lw	v1,0(v1)
  401de4:	30630200 	andi	v1,v1,0x200
  401de8:	50600003 	beqzl	v1,401df8 <read_map+0xa4>
  401dec:	2402fff9 	li	v0,-7
  401df0:	ae220000 	sw	v0,0(s1)
  401df4:	00001025 	move	v0,zero
  401df8:	8fbf0024 	lw	ra,36(sp)
  401dfc:	8fb10020 	lw	s1,32(sp)
  401e00:	8fb0001c 	lw	s0,28(sp)
  401e04:	03e00008 	jr	ra
  401e08:	27bd0028 	addiu	sp,sp,40
  401e0c:	1000fffa 	b	401df8 <read_map+0xa4>
  401e10:	2402fff9 	li	v0,-7
  401e14:	1000fff8 	b	401df8 <read_map+0xa4>
  401e18:	2402fff9 	li	v0,-7

00401e1c <ftruncate>:
  401e1c:	27bdffb8 	addiu	sp,sp,-72
  401e20:	afbf0044 	sw	ra,68(sp)
  401e24:	afb70040 	sw	s7,64(sp)
  401e28:	afb6003c 	sw	s6,60(sp)
  401e2c:	afb50038 	sw	s5,56(sp)
  401e30:	afb40034 	sw	s4,52(sp)
  401e34:	afb30030 	sw	s3,48(sp)
  401e38:	afb2002c 	sw	s2,44(sp)
  401e3c:	afb10028 	sw	s1,40(sp)
  401e40:	3c020040 	lui	v0,0x40
  401e44:	24420001 	addiu	v0,v0,1
  401e48:	00a2102b 	sltu	v0,a1,v0
  401e4c:	10400050 	beqz	v0,401f90 <ftruncate+0x174>
  401e50:	afb00024 	sw	s0,36(sp)
  401e54:	00a08025 	move	s0,a1
  401e58:	0c100530 	jal	4014c0 <fd_lookup>
  401e5c:	27a50018 	addiu	a1,sp,24
  401e60:	04400037 	bltz	v0,401f40 <ftruncate+0x124>
  401e64:	00409025 	move	s2,v0
  401e68:	8fa20018 	lw	v0,24(sp)
  401e6c:	8c440000 	lw	a0,0(v0)
  401e70:	3c030041 	lui	v1,0x41
  401e74:	8c63f014 	lw	v1,-4076(v1)
  401e78:	14830047 	bne	a0,v1,401f98 <ftruncate+0x17c>
  401e7c:	02002825 	move	a1,s0
  401e80:	8c54000c 	lw	s4,12(v0)
  401e84:	8c560090 	lw	s6,144(v0)
  401e88:	ac500090 	sw	s0,144(v0)
  401e8c:	0c100973 	jal	4025cc <fsipc_set_size>
  401e90:	02802025 	move	a0,s4
  401e94:	0440002a 	bltz	v0,401f40 <ftruncate+0x124>
  401e98:	00409025 	move	s2,v0
  401e9c:	0c100546 	jal	401518 <fd2data>
  401ea0:	8fa40018 	lw	a0,24(sp)
  401ea4:	00409825 	move	s3,v0
  401ea8:	26d50fff 	addiu	s5,s6,4095
  401eac:	02a08825 	move	s1,s5
  401eb0:	7c115804 	ins	s1,zero,0x0,0xc
  401eb4:	26100fff 	addiu	s0,s0,4095
  401eb8:	0200b825 	move	s7,s0
  401ebc:	7c175804 	ins	s7,zero,0x0,0xc
  401ec0:	0237102b 	sltu	v0,s1,s7
  401ec4:	5040000c 	beqzl	v0,401ef8 <ftruncate+0xdc>
  401ec8:	7c105804 	ins	s0,zero,0x0,0xc
  401ecc:	02713021 	addu	a2,s3,s1
  401ed0:	02202825 	move	a1,s1
  401ed4:	0c100953 	jal	40254c <fsipc_map>
  401ed8:	02802025 	move	a0,s4
  401edc:	04400015 	bltz	v0,401f34 <ftruncate+0x118>
  401ee0:	00409025 	move	s2,v0
  401ee4:	26311000 	addiu	s1,s1,4096
  401ee8:	0237102b 	sltu	v0,s1,s7
  401eec:	1440fff8 	bnez	v0,401ed0 <ftruncate+0xb4>
  401ef0:	02713021 	addu	a2,s3,s1
  401ef4:	7c105804 	ins	s0,zero,0x0,0xc
  401ef8:	7c155804 	ins	s5,zero,0x0,0xc
  401efc:	0215102b 	sltu	v0,s0,s5
  401f00:	5040000f 	beqzl	v0,401f40 <ftruncate+0x124>
  401f04:	00009025 	move	s2,zero
  401f08:	02138821 	addu	s1,s0,s3
  401f0c:	02202825 	move	a1,s1
  401f10:	0c100431 	jal	4010c4 <syscall_mem_unmap>
  401f14:	00002025 	move	a0,zero
  401f18:	04400015 	bltz	v0,401f70 <ftruncate+0x154>
  401f1c:	26101000 	addiu	s0,s0,4096
  401f20:	0215102b 	sltu	v0,s0,s5
  401f24:	1440fff9 	bnez	v0,401f0c <ftruncate+0xf0>
  401f28:	02138821 	addu	s1,s0,s3
  401f2c:	10000004 	b	401f40 <ftruncate+0x124>
  401f30:	00009025 	move	s2,zero
  401f34:	02c02825 	move	a1,s6
  401f38:	0c100973 	jal	4025cc <fsipc_set_size>
  401f3c:	02802025 	move	a0,s4
  401f40:	02401025 	move	v0,s2
  401f44:	8fbf0044 	lw	ra,68(sp)
  401f48:	8fb70040 	lw	s7,64(sp)
  401f4c:	8fb6003c 	lw	s6,60(sp)
  401f50:	8fb50038 	lw	s5,56(sp)
  401f54:	8fb40034 	lw	s4,52(sp)
  401f58:	8fb30030 	lw	s3,48(sp)
  401f5c:	8fb2002c 	lw	s2,44(sp)
  401f60:	8fb10028 	lw	s1,40(sp)
  401f64:	8fb00024 	lw	s0,36(sp)
  401f68:	03e00008 	jr	ra
  401f6c:	27bd0048 	addiu	sp,sp,72
  401f70:	afa20010 	sw	v0,16(sp)
  401f74:	02203825 	move	a3,s1
  401f78:	3c060042 	lui	a2,0x42
  401f7c:	24c6bf0c 	addiu	a2,a2,-16628
  401f80:	24050102 	li	a1,258
  401f84:	3c040042 	lui	a0,0x42
  401f88:	0c100051 	jal	400144 <_user_panic>
  401f8c:	2484bf34 	addiu	a0,a0,-16588
  401f90:	1000ffeb 	b	401f40 <ftruncate+0x124>
  401f94:	2412fff9 	li	s2,-7
  401f98:	1000ffe9 	b	401f40 <ftruncate+0x124>
  401f9c:	2412fffd 	li	s2,-3

00401fa0 <file_write>:
  401fa0:	27bdffd8 	addiu	sp,sp,-40
  401fa4:	afbf0024 	sw	ra,36(sp)
  401fa8:	afb40020 	sw	s4,32(sp)
  401fac:	afb3001c 	sw	s3,28(sp)
  401fb0:	afb20018 	sw	s2,24(sp)
  401fb4:	afb10014 	sw	s1,20(sp)
  401fb8:	00e68821 	addu	s1,a3,a2
  401fbc:	3c020040 	lui	v0,0x40
  401fc0:	24420001 	addiu	v0,v0,1
  401fc4:	0222102b 	sltu	v0,s1,v0
  401fc8:	1040001e 	beqz	v0,402044 <file_write+0xa4>
  401fcc:	afb00010 	sw	s0,16(sp)
  401fd0:	00e09825 	move	s3,a3
  401fd4:	00c0a025 	move	s4,a2
  401fd8:	00a09025 	move	s2,a1
  401fdc:	8c820090 	lw	v0,144(a0)
  401fe0:	0051102b 	sltu	v0,v0,s1
  401fe4:	10400008 	beqz	v0,402008 <file_write+0x68>
  401fe8:	00808025 	move	s0,a0
  401fec:	0c10054c 	jal	401530 <fd2num>
  401ff0:	00000000 	nop
  401ff4:	02202825 	move	a1,s1
  401ff8:	0c100787 	jal	401e1c <ftruncate>
  401ffc:	00402025 	move	a0,v0
  402000:	04400009 	bltz	v0,402028 <file_write+0x88>
  402004:	8fbf0024 	lw	ra,36(sp)
  402008:	0c100546 	jal	401518 <fd2data>
  40200c:	02002025 	move	a0,s0
  402010:	02803025 	move	a2,s4
  402014:	02622821 	addu	a1,s3,v0
  402018:	0c1002af 	jal	400abc <user_bcopy>
  40201c:	02402025 	move	a0,s2
  402020:	02801025 	move	v0,s4
  402024:	8fbf0024 	lw	ra,36(sp)
  402028:	8fb40020 	lw	s4,32(sp)
  40202c:	8fb3001c 	lw	s3,28(sp)
  402030:	8fb20018 	lw	s2,24(sp)
  402034:	8fb10014 	lw	s1,20(sp)
  402038:	8fb00010 	lw	s0,16(sp)
  40203c:	03e00008 	jr	ra
  402040:	27bd0028 	addiu	sp,sp,40
  402044:	1000fff7 	b	402024 <file_write+0x84>
  402048:	2402fff9 	li	v0,-7

0040204c <remove>:
  40204c:	27bdffe8 	addiu	sp,sp,-24
  402050:	afbf0014 	sw	ra,20(sp)
  402054:	0c1009a0 	jal	402680 <fsipc_remove>
  402058:	00000000 	nop
  40205c:	8fbf0014 	lw	ra,20(sp)
  402060:	03e00008 	jr	ra
  402064:	27bd0018 	addiu	sp,sp,24

00402068 <sync>:
  402068:	27bdffe8 	addiu	sp,sp,-24
  40206c:	afbf0014 	sw	ra,20(sp)
  402070:	0c1009b6 	jal	4026d8 <fsipc_sync>
  402074:	00000000 	nop
  402078:	8fbf0014 	lw	ra,20(sp)
  40207c:	03e00008 	jr	ra
  402080:	27bd0018 	addiu	sp,sp,24

00402084 <pipestat>:
  402084:	03e00008 	jr	ra
  402088:	00000000 	nop

0040208c <pipeclose>:
  40208c:	27bdffe8 	addiu	sp,sp,-24
  402090:	afbf0014 	sw	ra,20(sp)
  402094:	afb00010 	sw	s0,16(sp)
  402098:	00808025 	move	s0,a0
  40209c:	00802825 	move	a1,a0
  4020a0:	0c100431 	jal	4010c4 <syscall_mem_unmap>
  4020a4:	00002025 	move	a0,zero
  4020a8:	0c100546 	jal	401518 <fd2data>
  4020ac:	02002025 	move	a0,s0
  4020b0:	00402825 	move	a1,v0
  4020b4:	0c100431 	jal	4010c4 <syscall_mem_unmap>
  4020b8:	00002025 	move	a0,zero
  4020bc:	00001025 	move	v0,zero
  4020c0:	8fbf0014 	lw	ra,20(sp)
  4020c4:	8fb00010 	lw	s0,16(sp)
  4020c8:	03e00008 	jr	ra
  4020cc:	27bd0018 	addiu	sp,sp,24

004020d0 <_pipeisclosed>:
  4020d0:	27bdffd8 	addiu	sp,sp,-40
  4020d4:	afbf0024 	sw	ra,36(sp)
  4020d8:	afb40020 	sw	s4,32(sp)
  4020dc:	afb3001c 	sw	s3,28(sp)
  4020e0:	afb20018 	sw	s2,24(sp)
  4020e4:	afb10014 	sw	s1,20(sp)
  4020e8:	afb00010 	sw	s0,16(sp)
  4020ec:	0080a025 	move	s4,a0
  4020f0:	00a09825 	move	s3,a1
  4020f4:	3c100042 	lui	s0,0x42
  4020f8:	8e025d64 	lw	v0,23908(s0)
  4020fc:	8c5100e0 	lw	s1,224(v0)
  402100:	0c1006a4 	jal	401a90 <pageref>
  402104:	02802025 	move	a0,s4
  402108:	00409025 	move	s2,v0
  40210c:	0c1006a4 	jal	401a90 <pageref>
  402110:	02602025 	move	a0,s3
  402114:	8e035d64 	lw	v1,23908(s0)
  402118:	8c6300e0 	lw	v1,224(v1)
  40211c:	5623fff7 	bnel	s1,v1,4020fc <_pipeisclosed+0x2c>
  402120:	8e025d64 	lw	v0,23908(s0)
  402124:	02421026 	xor	v0,s2,v0
  402128:	2c420001 	sltiu	v0,v0,1
  40212c:	8fbf0024 	lw	ra,36(sp)
  402130:	8fb40020 	lw	s4,32(sp)
  402134:	8fb3001c 	lw	s3,28(sp)
  402138:	8fb20018 	lw	s2,24(sp)
  40213c:	8fb10014 	lw	s1,20(sp)
  402140:	8fb00010 	lw	s0,16(sp)
  402144:	03e00008 	jr	ra
  402148:	27bd0028 	addiu	sp,sp,40

0040214c <pipewrite>:
  40214c:	27bdffd8 	addiu	sp,sp,-40
  402150:	afbf0024 	sw	ra,36(sp)
  402154:	afb40020 	sw	s4,32(sp)
  402158:	afb3001c 	sw	s3,28(sp)
  40215c:	afb20018 	sw	s2,24(sp)
  402160:	afb10014 	sw	s1,20(sp)
  402164:	afb00010 	sw	s0,16(sp)
  402168:	0080a025 	move	s4,a0
  40216c:	00a09025 	move	s2,a1
  402170:	0c100546 	jal	401518 <fd2data>
  402174:	00c09825 	move	s3,a2
  402178:	00408025 	move	s0,v0
  40217c:	10000003 	b	40218c <pipewrite+0x40>
  402180:	00008825 	move	s1,zero
  402184:	0c1003f4 	jal	400fd0 <syscall_yield>
  402188:	00000000 	nop
  40218c:	0233102b 	sltu	v0,s1,s3
  402190:	10400013 	beqz	v0,4021e0 <pipewrite+0x94>
  402194:	02002825 	move	a1,s0
  402198:	0c100834 	jal	4020d0 <_pipeisclosed>
  40219c:	02802025 	move	a0,s4
  4021a0:	14400010 	bnez	v0,4021e4 <pipewrite+0x98>
  4021a4:	02201025 	move	v0,s1
  4021a8:	8e030004 	lw	v1,4(s0)
  4021ac:	8e020000 	lw	v0,0(s0)
  4021b0:	00621023 	subu	v0,v1,v0
  4021b4:	2c420020 	sltiu	v0,v0,32
  4021b8:	1040fff2 	beqz	v0,402184 <pipewrite+0x38>
  4021bc:	3062001f 	andi	v0,v1,0x1f
  4021c0:	92440000 	lbu	a0,0(s2)
  4021c4:	02021021 	addu	v0,s0,v0
  4021c8:	a0440008 	sb	a0,8(v0)
  4021cc:	26520001 	addiu	s2,s2,1
  4021d0:	26310001 	addiu	s1,s1,1
  4021d4:	24630001 	addiu	v1,v1,1
  4021d8:	1000ffec 	b	40218c <pipewrite+0x40>
  4021dc:	ae030004 	sw	v1,4(s0)
  4021e0:	02201025 	move	v0,s1
  4021e4:	8fbf0024 	lw	ra,36(sp)
  4021e8:	8fb40020 	lw	s4,32(sp)
  4021ec:	8fb3001c 	lw	s3,28(sp)
  4021f0:	8fb20018 	lw	s2,24(sp)
  4021f4:	8fb10014 	lw	s1,20(sp)
  4021f8:	8fb00010 	lw	s0,16(sp)
  4021fc:	03e00008 	jr	ra
  402200:	27bd0028 	addiu	sp,sp,40

00402204 <piperead>:
  402204:	27bdffd8 	addiu	sp,sp,-40
  402208:	afbf0024 	sw	ra,36(sp)
  40220c:	afb40020 	sw	s4,32(sp)
  402210:	afb3001c 	sw	s3,28(sp)
  402214:	afb20018 	sw	s2,24(sp)
  402218:	afb10014 	sw	s1,20(sp)
  40221c:	afb00010 	sw	s0,16(sp)
  402220:	0080a025 	move	s4,a0
  402224:	00a09025 	move	s2,a1
  402228:	0c100546 	jal	401518 <fd2data>
  40222c:	00c09825 	move	s3,a2
  402230:	00408025 	move	s0,v0
  402234:	10000011 	b	40227c <piperead+0x78>
  402238:	00008825 	move	s1,zero
  40223c:	8e030004 	lw	v1,4(s0)
  402240:	0043182b 	sltu	v1,v0,v1
  402244:	54600005 	bnezl	v1,40225c <piperead+0x58>
  402248:	3042001f 	andi	v0,v0,0x1f
  40224c:	0c1003f4 	jal	400fd0 <syscall_yield>
  402250:	00000000 	nop
  402254:	1000000a 	b	402280 <piperead+0x7c>
  402258:	0233102b 	sltu	v0,s1,s3
  40225c:	02021021 	addu	v0,s0,v0
  402260:	90420008 	lbu	v0,8(v0)
  402264:	a2420000 	sb	v0,0(s2)
  402268:	26520001 	addiu	s2,s2,1
  40226c:	26310001 	addiu	s1,s1,1
  402270:	8e020000 	lw	v0,0(s0)
  402274:	24420001 	addiu	v0,v0,1
  402278:	ae020000 	sw	v0,0(s0)
  40227c:	0233102b 	sltu	v0,s1,s3
  402280:	10400009 	beqz	v0,4022a8 <piperead+0xa4>
  402284:	02002825 	move	a1,s0
  402288:	0c100834 	jal	4020d0 <_pipeisclosed>
  40228c:	02802025 	move	a0,s4
  402290:	1040ffea 	beqz	v0,40223c <piperead+0x38>
  402294:	8e020000 	lw	v0,0(s0)
  402298:	8e030004 	lw	v1,4(s0)
  40229c:	0043182b 	sltu	v1,v0,v1
  4022a0:	1460ffee 	bnez	v1,40225c <piperead+0x58>
  4022a4:	3042001f 	andi	v0,v0,0x1f
  4022a8:	02201025 	move	v0,s1
  4022ac:	8fbf0024 	lw	ra,36(sp)
  4022b0:	8fb40020 	lw	s4,32(sp)
  4022b4:	8fb3001c 	lw	s3,28(sp)
  4022b8:	8fb20018 	lw	s2,24(sp)
  4022bc:	8fb10014 	lw	s1,20(sp)
  4022c0:	8fb00010 	lw	s0,16(sp)
  4022c4:	03e00008 	jr	ra
  4022c8:	27bd0028 	addiu	sp,sp,40

004022cc <pipe>:
  4022cc:	27bdffd0 	addiu	sp,sp,-48
  4022d0:	afbf002c 	sw	ra,44(sp)
  4022d4:	afb20028 	sw	s2,40(sp)
  4022d8:	afb10024 	sw	s1,36(sp)
  4022dc:	afb00020 	sw	s0,32(sp)
  4022e0:	00808825 	move	s1,a0
  4022e4:	0c1004fe 	jal	4013f8 <fd_alloc>
  4022e8:	27a40018 	addiu	a0,sp,24
  4022ec:	0440004e 	bltz	v0,402428 <pipe+0x15c>
  4022f0:	00408025 	move	s0,v0
  4022f4:	24060604 	li	a2,1540
  4022f8:	8fa50018 	lw	a1,24(sp)
  4022fc:	0c100418 	jal	401060 <syscall_mem_alloc>
  402300:	00002025 	move	a0,zero
  402304:	04400048 	bltz	v0,402428 <pipe+0x15c>
  402308:	00408025 	move	s0,v0
  40230c:	0c1004fe 	jal	4013f8 <fd_alloc>
  402310:	27a4001c 	addiu	a0,sp,28
  402314:	04400041 	bltz	v0,40241c <pipe+0x150>
  402318:	00408025 	move	s0,v0
  40231c:	24060604 	li	a2,1540
  402320:	8fa5001c 	lw	a1,28(sp)
  402324:	0c100418 	jal	401060 <syscall_mem_alloc>
  402328:	00002025 	move	a0,zero
  40232c:	0440003b 	bltz	v0,40241c <pipe+0x150>
  402330:	00408025 	move	s0,v0
  402334:	0c100546 	jal	401518 <fd2data>
  402338:	8fa40018 	lw	a0,24(sp)
  40233c:	00409025 	move	s2,v0
  402340:	24060604 	li	a2,1540
  402344:	00402825 	move	a1,v0
  402348:	0c100418 	jal	401060 <syscall_mem_alloc>
  40234c:	00002025 	move	a0,zero
  402350:	0440002f 	bltz	v0,402410 <pipe+0x144>
  402354:	00408025 	move	s0,v0
  402358:	0c100546 	jal	401518 <fd2data>
  40235c:	8fa4001c 	lw	a0,28(sp)
  402360:	24030604 	li	v1,1540
  402364:	afa30010 	sw	v1,16(sp)
  402368:	00403825 	move	a3,v0
  40236c:	00003025 	move	a2,zero
  402370:	02402825 	move	a1,s2
  402374:	0c100424 	jal	401090 <syscall_mem_map>
  402378:	00002025 	move	a0,zero
  40237c:	04400021 	bltz	v0,402404 <pipe+0x138>
  402380:	00408025 	move	s0,v0
  402384:	3c020041 	lui	v0,0x41
  402388:	8c44f030 	lw	a0,-4048(v0)
  40238c:	8fa30018 	lw	v1,24(sp)
  402390:	ac640000 	sw	a0,0(v1)
  402394:	8fa30018 	lw	v1,24(sp)
  402398:	ac600008 	sw	zero,8(v1)
  40239c:	8c43f030 	lw	v1,-4048(v0)
  4023a0:	8fa2001c 	lw	v0,28(sp)
  4023a4:	ac430000 	sw	v1,0(v0)
  4023a8:	24030001 	li	v1,1
  4023ac:	8fa2001c 	lw	v0,28(sp)
  4023b0:	ac430008 	sw	v1,8(v0)
  4023b4:	00129302 	srl	s2,s2,0xc
  4023b8:	00121080 	sll	v0,s2,0x2
  4023bc:	3c030041 	lui	v1,0x41
  4023c0:	8c72f008 	lw	s2,-4088(v1)
  4023c4:	02429021 	addu	s2,s2,v0
  4023c8:	8e460000 	lw	a2,0(s2)
  4023cc:	3c020042 	lui	v0,0x42
  4023d0:	8c425d64 	lw	v0,23908(v0)
  4023d4:	8c4500a4 	lw	a1,164(v0)
  4023d8:	3c040042 	lui	a0,0x42
  4023dc:	0c100042 	jal	400108 <writef>
  4023e0:	2484bf44 	addiu	a0,a0,-16572
  4023e4:	0c10054c 	jal	401530 <fd2num>
  4023e8:	8fa40018 	lw	a0,24(sp)
  4023ec:	ae220000 	sw	v0,0(s1)
  4023f0:	0c10054c 	jal	401530 <fd2num>
  4023f4:	8fa4001c 	lw	a0,28(sp)
  4023f8:	ae220004 	sw	v0,4(s1)
  4023fc:	1000000a 	b	402428 <pipe+0x15c>
  402400:	00008025 	move	s0,zero
  402404:	02402825 	move	a1,s2
  402408:	0c100431 	jal	4010c4 <syscall_mem_unmap>
  40240c:	00002025 	move	a0,zero
  402410:	8fa5001c 	lw	a1,28(sp)
  402414:	0c100431 	jal	4010c4 <syscall_mem_unmap>
  402418:	00002025 	move	a0,zero
  40241c:	8fa50018 	lw	a1,24(sp)
  402420:	0c100431 	jal	4010c4 <syscall_mem_unmap>
  402424:	00002025 	move	a0,zero
  402428:	02001025 	move	v0,s0
  40242c:	8fbf002c 	lw	ra,44(sp)
  402430:	8fb20028 	lw	s2,40(sp)
  402434:	8fb10024 	lw	s1,36(sp)
  402438:	8fb00020 	lw	s0,32(sp)
  40243c:	03e00008 	jr	ra
  402440:	27bd0030 	addiu	sp,sp,48

00402444 <pipeisclosed>:
  402444:	27bdffe0 	addiu	sp,sp,-32
  402448:	afbf001c 	sw	ra,28(sp)
  40244c:	0c100530 	jal	4014c0 <fd_lookup>
  402450:	27a50010 	addiu	a1,sp,16
  402454:	04400007 	bltz	v0,402474 <pipeisclosed+0x30>
  402458:	8fbf001c 	lw	ra,28(sp)
  40245c:	0c100546 	jal	401518 <fd2data>
  402460:	8fa40010 	lw	a0,16(sp)
  402464:	00402825 	move	a1,v0
  402468:	0c100834 	jal	4020d0 <_pipeisclosed>
  40246c:	8fa40010 	lw	a0,16(sp)
  402470:	8fbf001c 	lw	ra,28(sp)
  402474:	03e00008 	jr	ra
  402478:	27bd0020 	addiu	sp,sp,32

0040247c <fsipc>:
  40247c:	27bdffd8 	addiu	sp,sp,-40
  402480:	afbf0024 	sw	ra,36(sp)
  402484:	afb10020 	sw	s1,32(sp)
  402488:	afb0001c 	sw	s0,28(sp)
  40248c:	00c08025 	move	s0,a2
  402490:	00e08825 	move	s1,a3
  402494:	3c020042 	lui	v0,0x42
  402498:	8c425744 	lw	v0,22340(v0)
  40249c:	24070600 	li	a3,1536
  4024a0:	00a03025 	move	a2,a1
  4024a4:	00802825 	move	a1,a0
  4024a8:	0c10049d 	jal	401274 <ipc_send>
  4024ac:	8c440190 	lw	a0,400(v0)
  4024b0:	02203025 	move	a2,s1
  4024b4:	02002825 	move	a1,s0
  4024b8:	0c1004c3 	jal	40130c <ipc_recv>
  4024bc:	27a40010 	addiu	a0,sp,16
  4024c0:	8fbf0024 	lw	ra,36(sp)
  4024c4:	8fb10020 	lw	s1,32(sp)
  4024c8:	8fb0001c 	lw	s0,28(sp)
  4024cc:	03e00008 	jr	ra
  4024d0:	27bd0028 	addiu	sp,sp,40

004024d4 <fsipc_open>:
  4024d4:	27bdffd8 	addiu	sp,sp,-40
  4024d8:	afbf0024 	sw	ra,36(sp)
  4024dc:	afb20020 	sw	s2,32(sp)
  4024e0:	afb1001c 	sw	s1,28(sp)
  4024e4:	afb00018 	sw	s0,24(sp)
  4024e8:	00808025 	move	s0,a0
  4024ec:	00a08825 	move	s1,a1
  4024f0:	0c1012ed 	jal	404bb4 <strlen>
  4024f4:	00c09025 	move	s2,a2
  4024f8:	2c420400 	sltiu	v0,v0,1024
  4024fc:	10400011 	beqz	v0,402544 <fsipc_open+0x70>
  402500:	02002825 	move	a1,s0
  402504:	3c100041 	lui	s0,0x41
  402508:	0c10130c 	jal	404c30 <strcpy>
  40250c:	2604d000 	addiu	a0,s0,-12288
  402510:	2605d000 	addiu	a1,s0,-12288
  402514:	a8b10403 	swl	s1,1027(a1)
  402518:	b8b10400 	swr	s1,1024(a1)
  40251c:	27a70010 	addiu	a3,sp,16
  402520:	02403025 	move	a2,s2
  402524:	0c10091f 	jal	40247c <fsipc>
  402528:	24040001 	li	a0,1
  40252c:	8fbf0024 	lw	ra,36(sp)
  402530:	8fb20020 	lw	s2,32(sp)
  402534:	8fb1001c 	lw	s1,28(sp)
  402538:	8fb00018 	lw	s0,24(sp)
  40253c:	03e00008 	jr	ra
  402540:	27bd0028 	addiu	sp,sp,40
  402544:	1000fff9 	b	40252c <fsipc_open+0x58>
  402548:	2402fff6 	li	v0,-10

0040254c <fsipc_map>:
  40254c:	27bdffd8 	addiu	sp,sp,-40
  402550:	afbf0024 	sw	ra,36(sp)
  402554:	afb00020 	sw	s0,32(sp)
  402558:	00c08025 	move	s0,a2
  40255c:	3c030041 	lui	v1,0x41
  402560:	2462d000 	addiu	v0,v1,-12288
  402564:	a8440003 	swl	a0,3(v0)
  402568:	b864d000 	swr	a0,-12288(v1)
  40256c:	a8450007 	swl	a1,7(v0)
  402570:	b8450004 	swr	a1,4(v0)
  402574:	27a70018 	addiu	a3,sp,24
  402578:	00402825 	move	a1,v0
  40257c:	0c10091f 	jal	40247c <fsipc>
  402580:	24040002 	li	a0,2
  402584:	04400006 	bltz	v0,4025a0 <fsipc_map+0x54>
  402588:	2403fbfb 	li	v1,-1029
  40258c:	8fa70018 	lw	a3,24(sp)
  402590:	00e31824 	and	v1,a3,v1
  402594:	24040200 	li	a0,512
  402598:	14640005 	bne	v1,a0,4025b0 <fsipc_map+0x64>
  40259c:	00001025 	move	v0,zero
  4025a0:	8fbf0024 	lw	ra,36(sp)
  4025a4:	8fb00020 	lw	s0,32(sp)
  4025a8:	03e00008 	jr	ra
  4025ac:	27bd0028 	addiu	sp,sp,40
  4025b0:	afb00010 	sw	s0,16(sp)
  4025b4:	3c060042 	lui	a2,0x42
  4025b8:	24c6bf60 	addiu	a2,a2,-16544
  4025bc:	24050051 	li	a1,81
  4025c0:	3c040042 	lui	a0,0x42
  4025c4:	0c100051 	jal	400144 <_user_panic>
  4025c8:	2484bf98 	addiu	a0,a0,-16488

004025cc <fsipc_set_size>:
  4025cc:	27bdffe8 	addiu	sp,sp,-24
  4025d0:	afbf0014 	sw	ra,20(sp)
  4025d4:	3c030041 	lui	v1,0x41
  4025d8:	2462d000 	addiu	v0,v1,-12288
  4025dc:	a8440003 	swl	a0,3(v0)
  4025e0:	b864d000 	swr	a0,-12288(v1)
  4025e4:	a8450007 	swl	a1,7(v0)
  4025e8:	b8450004 	swr	a1,4(v0)
  4025ec:	00003825 	move	a3,zero
  4025f0:	00003025 	move	a2,zero
  4025f4:	00402825 	move	a1,v0
  4025f8:	0c10091f 	jal	40247c <fsipc>
  4025fc:	24040003 	li	a0,3
  402600:	8fbf0014 	lw	ra,20(sp)
  402604:	03e00008 	jr	ra
  402608:	27bd0018 	addiu	sp,sp,24

0040260c <fsipc_close>:
  40260c:	27bdffe8 	addiu	sp,sp,-24
  402610:	afbf0014 	sw	ra,20(sp)
  402614:	3c020041 	lui	v0,0x41
  402618:	2445d000 	addiu	a1,v0,-12288
  40261c:	a8a40003 	swl	a0,3(a1)
  402620:	b844d000 	swr	a0,-12288(v0)
  402624:	00003825 	move	a3,zero
  402628:	00003025 	move	a2,zero
  40262c:	0c10091f 	jal	40247c <fsipc>
  402630:	24040004 	li	a0,4
  402634:	8fbf0014 	lw	ra,20(sp)
  402638:	03e00008 	jr	ra
  40263c:	27bd0018 	addiu	sp,sp,24

00402640 <fsipc_dirty>:
  402640:	27bdffe8 	addiu	sp,sp,-24
  402644:	afbf0014 	sw	ra,20(sp)
  402648:	3c030041 	lui	v1,0x41
  40264c:	2462d000 	addiu	v0,v1,-12288
  402650:	a8440003 	swl	a0,3(v0)
  402654:	b864d000 	swr	a0,-12288(v1)
  402658:	a8450007 	swl	a1,7(v0)
  40265c:	b8450004 	swr	a1,4(v0)
  402660:	00003825 	move	a3,zero
  402664:	00003025 	move	a2,zero
  402668:	00402825 	move	a1,v0
  40266c:	0c10091f 	jal	40247c <fsipc>
  402670:	24040005 	li	a0,5
  402674:	8fbf0014 	lw	ra,20(sp)
  402678:	03e00008 	jr	ra
  40267c:	27bd0018 	addiu	sp,sp,24

00402680 <fsipc_remove>:
  402680:	27bdffe8 	addiu	sp,sp,-24
  402684:	afbf0014 	sw	ra,20(sp)
  402688:	afb00010 	sw	s0,16(sp)
  40268c:	0c1012ed 	jal	404bb4 <strlen>
  402690:	00808025 	move	s0,a0
  402694:	2c420400 	sltiu	v0,v0,1024
  402698:	1040000d 	beqz	v0,4026d0 <fsipc_remove+0x50>
  40269c:	02002825 	move	a1,s0
  4026a0:	3c100041 	lui	s0,0x41
  4026a4:	0c10130c 	jal	404c30 <strcpy>
  4026a8:	2604d000 	addiu	a0,s0,-12288
  4026ac:	00003825 	move	a3,zero
  4026b0:	00003025 	move	a2,zero
  4026b4:	2605d000 	addiu	a1,s0,-12288
  4026b8:	0c10091f 	jal	40247c <fsipc>
  4026bc:	24040006 	li	a0,6
  4026c0:	8fbf0014 	lw	ra,20(sp)
  4026c4:	8fb00010 	lw	s0,16(sp)
  4026c8:	03e00008 	jr	ra
  4026cc:	27bd0018 	addiu	sp,sp,24
  4026d0:	1000fffb 	b	4026c0 <fsipc_remove+0x40>
  4026d4:	2402fff6 	li	v0,-10

004026d8 <fsipc_sync>:
  4026d8:	27bdffe8 	addiu	sp,sp,-24
  4026dc:	afbf0014 	sw	ra,20(sp)
  4026e0:	00003825 	move	a3,zero
  4026e4:	00003025 	move	a2,zero
  4026e8:	3c050041 	lui	a1,0x41
  4026ec:	24a5d000 	addiu	a1,a1,-12288
  4026f0:	0c10091f 	jal	40247c <fsipc>
  4026f4:	24040007 	li	a0,7
  4026f8:	8fbf0014 	lw	ra,20(sp)
  4026fc:	03e00008 	jr	ra
  402700:	27bd0018 	addiu	sp,sp,24

00402704 <wait>:
  402704:	27bdffe0 	addiu	sp,sp,-32
  402708:	afbf001c 	sw	ra,28(sp)
  40270c:	afb10018 	sw	s1,24(sp)
  402710:	afb00014 	sw	s0,20(sp)
  402714:	308203ff 	andi	v0,a0,0x3ff
  402718:	00028100 	sll	s0,v0,0x4
  40271c:	02028023 	subu	s0,s0,v0
  402720:	00108080 	sll	s0,s0,0x2
  402724:	02028023 	subu	s0,s0,v0
  402728:	00101080 	sll	v0,s0,0x2
  40272c:	3c030042 	lui	v1,0x42
  402730:	8c705744 	lw	s0,22340(v1)
  402734:	02028021 	addu	s0,s0,v0
  402738:	8e0200a4 	lw	v0,164(s0)
  40273c:	1482000c 	bne	a0,v0,402770 <wait+0x6c>
  402740:	8fbf001c 	lw	ra,28(sp)
  402744:	8e0200ac 	lw	v0,172(s0)
  402748:	10400009 	beqz	v0,402770 <wait+0x6c>
  40274c:	00808825 	move	s1,a0
  402750:	0c1003f4 	jal	400fd0 <syscall_yield>
  402754:	00000000 	nop
  402758:	8e0200a4 	lw	v0,164(s0)
  40275c:	16220004 	bne	s1,v0,402770 <wait+0x6c>
  402760:	8fbf001c 	lw	ra,28(sp)
  402764:	8e0200ac 	lw	v0,172(s0)
  402768:	1440fff9 	bnez	v0,402750 <wait+0x4c>
  40276c:	00000000 	nop
  402770:	8fb10018 	lw	s1,24(sp)
  402774:	8fb00014 	lw	s0,20(sp)
  402778:	03e00008 	jr	ra
  40277c:	27bd0020 	addiu	sp,sp,32

00402780 <init_stack>:
  402780:	27bdffb0 	addiu	sp,sp,-80
  402784:	afbf004c 	sw	ra,76(sp)
  402788:	afbe0048 	sw	s8,72(sp)
  40278c:	afb70044 	sw	s7,68(sp)
  402790:	afb60040 	sw	s6,64(sp)
  402794:	afb5003c 	sw	s5,60(sp)
  402798:	afb40038 	sw	s4,56(sp)
  40279c:	afb30034 	sw	s3,52(sp)
  4027a0:	afb20030 	sw	s2,48(sp)
  4027a4:	afb1002c 	sw	s1,44(sp)
  4027a8:	afb00028 	sw	s0,40(sp)
  4027ac:	afa40050 	sw	a0,80(sp)
  4027b0:	afa60058 	sw	a2,88(sp)
  4027b4:	8ca40000 	lw	a0,0(a1)
  4027b8:	1080007c 	beqz	a0,4029ac <init_stack+0x22c>
  4027bc:	00a0a025 	move	s4,a1
  4027c0:	24b30004 	addiu	s3,a1,4
  4027c4:	00008825 	move	s1,zero
  4027c8:	10000002 	b	4027d4 <init_stack+0x54>
  4027cc:	00009025 	move	s2,zero
  4027d0:	02009025 	move	s2,s0
  4027d4:	0c1012ed 	jal	404bb4 <strlen>
  4027d8:	26310001 	addiu	s1,s1,1
  4027dc:	02228821 	addu	s1,s1,v0
  4027e0:	26500001 	addiu	s0,s2,1
  4027e4:	0200f025 	move	s8,s0
  4027e8:	26730004 	addiu	s3,s3,4
  4027ec:	8e64fffc 	lw	a0,-4(s3)
  4027f0:	1480fff7 	bnez	a0,4027d0 <init_stack+0x50>
  4027f4:	0010b880 	sll	s7,s0,0x2
  4027f8:	26240003 	addiu	a0,s1,3
  4027fc:	7c040804 	ins	a0,zero,0x0,0x2
  402800:	26430004 	addiu	v1,s2,4
  402804:	00031880 	sll	v1,v1,0x2
  402808:	00641821 	addu	v1,v1,a0
  40280c:	2c631001 	sltiu	v1,v1,4097
  402810:	10600039 	beqz	v1,4028f8 <init_stack+0x178>
  402814:	24032000 	li	v1,8192
  402818:	00711023 	subu	v0,v1,s1
  40281c:	00409825 	move	s3,v0
  402820:	afa20018 	sw	v0,24(sp)
  402824:	26510002 	addiu	s1,s2,2
  402828:	00118880 	sll	s1,s1,0x2
  40282c:	00911021 	addu	v0,a0,s1
  402830:	afa20020 	sw	v0,32(sp)
  402834:	00621023 	subu	v0,v1,v0
  402838:	afa20024 	sw	v0,36(sp)
  40283c:	afa2001c 	sw	v0,28(sp)
  402840:	24060600 	li	a2,1536
  402844:	24051000 	li	a1,4096
  402848:	0c100418 	jal	401060 <syscall_mem_alloc>
  40284c:	00002025 	move	a0,zero
  402850:	0440001c 	bltz	v0,4028c4 <init_stack+0x144>
  402854:	00409025 	move	s2,v0
  402858:	5a000063 	blezl	s0,4029e8 <init_stack+0x268>
  40285c:	3c107f3f 	lui	s0,0x7f3f
  402860:	0280b025 	move	s6,s4
  402864:	2631fffc 	addiu	s1,s1,-4
  402868:	0291a821 	addu	s5,s4,s1
  40286c:	1000000e 	b	4028a8 <init_stack+0x128>
  402870:	02609025 	move	s2,s3
  402874:	a2020000 	sb	v0,0(s0)
  402878:	26100001 	addiu	s0,s0,1
  40287c:	26310001 	addiu	s1,s1,1
  402880:	0c1012ed 	jal	404bb4 <strlen>
  402884:	8e640000 	lw	a0,0(s3)
  402888:	02121823 	subu	v1,s0,s2
  40288c:	0062102b 	sltu	v0,v1,v0
  402890:	5440fff8 	bnezl	v0,402874 <init_stack+0xf4>
  402894:	92220000 	lbu	v0,0(s1)
  402898:	a2000000 	sb	zero,0(s0)
  40289c:	26940004 	addiu	s4,s4,4
  4028a0:	12b40017 	beq	s5,s4,402900 <init_stack+0x180>
  4028a4:	26120001 	addiu	s2,s0,1
  4028a8:	02809825 	move	s3,s4
  4028ac:	8e910000 	lw	s1,0(s4)
  4028b0:	1000fff3 	b	402880 <init_stack+0x100>
  4028b4:	02408025 	move	s0,s2
  4028b8:	24051000 	li	a1,4096
  4028bc:	0c100431 	jal	4010c4 <syscall_mem_unmap>
  4028c0:	00002025 	move	a0,zero
  4028c4:	02401025 	move	v0,s2
  4028c8:	8fbf004c 	lw	ra,76(sp)
  4028cc:	8fbe0048 	lw	s8,72(sp)
  4028d0:	8fb70044 	lw	s7,68(sp)
  4028d4:	8fb60040 	lw	s6,64(sp)
  4028d8:	8fb5003c 	lw	s5,60(sp)
  4028dc:	8fb40038 	lw	s4,56(sp)
  4028e0:	8fb30034 	lw	s3,52(sp)
  4028e4:	8fb20030 	lw	s2,48(sp)
  4028e8:	8fb1002c 	lw	s1,44(sp)
  4028ec:	8fb00028 	lw	s0,40(sp)
  4028f0:	03e00008 	jr	ra
  4028f4:	27bd0050 	addiu	sp,sp,80
  4028f8:	1000fff2 	b	4028c4 <init_stack+0x144>
  4028fc:	2412fffc 	li	s2,-4
  402900:	3c107f3f 	lui	s0,0x7f3f
  402904:	3610c000 	ori	s0,s0,0xc000
  402908:	8fa20018 	lw	v0,24(sp)
  40290c:	00508021 	addu	s0,v0,s0
  402910:	8fb10024 	lw	s1,36(sp)
  402914:	ae300000 	sw	s0,0(s1)
  402918:	0c1012ed 	jal	404bb4 <strlen>
  40291c:	8ec40000 	lw	a0,0(s6)
  402920:	24420001 	addiu	v0,v0,1
  402924:	02028021 	addu	s0,s0,v0
  402928:	26d60004 	addiu	s6,s6,4
  40292c:	16d4fff9 	bne	s6,s4,402914 <init_stack+0x194>
  402930:	26310004 	addiu	s1,s1,4
  402934:	8fa3001c 	lw	v1,28(sp)
  402938:	0077b821 	addu	s7,v1,s7
  40293c:	2610ffff 	addiu	s0,s0,-1
  402940:	aef00000 	sw	s0,0(s7)
  402944:	3c077f3f 	lui	a3,0x7f3f
  402948:	34e7e000 	ori	a3,a3,0xe000
  40294c:	8fa20020 	lw	v0,32(sp)
  402950:	00e21023 	subu	v0,a3,v0
  402954:	ac62fffc 	sw	v0,-4(v1)
  402958:	ac7efff8 	sw	s8,-8(v1)
  40295c:	00671021 	addu	v0,v1,a3
  402960:	2442dff8 	addiu	v0,v0,-8200
  402964:	8fa30058 	lw	v1,88(sp)
  402968:	ac620000 	sw	v0,0(v1)
  40296c:	24020600 	li	v0,1536
  402970:	afa20010 	sw	v0,16(sp)
  402974:	24e7f000 	addiu	a3,a3,-4096
  402978:	8fa60050 	lw	a2,80(sp)
  40297c:	24051000 	li	a1,4096
  402980:	0c100424 	jal	401090 <syscall_mem_map>
  402984:	00002025 	move	a0,zero
  402988:	0440ffcb 	bltz	v0,4028b8 <init_stack+0x138>
  40298c:	00409025 	move	s2,v0
  402990:	24051000 	li	a1,4096
  402994:	0c100431 	jal	4010c4 <syscall_mem_unmap>
  402998:	00002025 	move	a0,zero
  40299c:	0440ffc6 	bltz	v0,4028b8 <init_stack+0x138>
  4029a0:	00409025 	move	s2,v0
  4029a4:	1000ffc7 	b	4028c4 <init_stack+0x144>
  4029a8:	00009025 	move	s2,zero
  4029ac:	24060600 	li	a2,1536
  4029b0:	24051000 	li	a1,4096
  4029b4:	0c100418 	jal	401060 <syscall_mem_alloc>
  4029b8:	00002025 	move	a0,zero
  4029bc:	0440ffc1 	bltz	v0,4028c4 <init_stack+0x144>
  4029c0:	00409025 	move	s2,v0
  4029c4:	0000b825 	move	s7,zero
  4029c8:	0000f025 	move	s8,zero
  4029cc:	24020004 	li	v0,4
  4029d0:	afa20020 	sw	v0,32(sp)
  4029d4:	24021ffc 	li	v0,8188
  4029d8:	afa2001c 	sw	v0,28(sp)
  4029dc:	24022000 	li	v0,8192
  4029e0:	afa20018 	sw	v0,24(sp)
  4029e4:	3c107f3f 	lui	s0,0x7f3f
  4029e8:	3610c000 	ori	s0,s0,0xc000
  4029ec:	8fa20018 	lw	v0,24(sp)
  4029f0:	1000ffd0 	b	402934 <init_stack+0x1b4>
  4029f4:	00508021 	addu	s0,v0,s0

004029f8 <usr_is_elf_format>:
  4029f8:	8c820000 	lw	v0,0(a0)
  4029fc:	3c03b9b3 	lui	v1,0xb9b3
  402a00:	3463ba81 	ori	v1,v1,0xba81
  402a04:	00431021 	addu	v0,v0,v1
  402a08:	03e00008 	jr	ra
  402a0c:	2c420001 	sltiu	v0,v0,1

00402a10 <usr_load_elf>:
  402a10:	03e00008 	jr	ra
  402a14:	00001025 	move	v0,zero

00402a18 <fuck_elf>:
  402a18:	27bdffb8 	addiu	sp,sp,-72
  402a1c:	afbf0044 	sw	ra,68(sp)
  402a20:	afbe0040 	sw	s8,64(sp)
  402a24:	afb7003c 	sw	s7,60(sp)
  402a28:	afb60038 	sw	s6,56(sp)
  402a2c:	afb50034 	sw	s5,52(sp)
  402a30:	afb40030 	sw	s4,48(sp)
  402a34:	afb3002c 	sw	s3,44(sp)
  402a38:	afb20028 	sw	s2,40(sp)
  402a3c:	afb10024 	sw	s1,36(sp)
  402a40:	afb00020 	sw	s0,32(sp)
  402a44:	0080b825 	move	s7,a0
  402a48:	0c100550 	jal	401540 <num2fd>
  402a4c:	afa5004c 	sw	a1,76(sp)
  402a50:	0c100546 	jal	401518 <fd2data>
  402a54:	00402025 	move	a0,v0
  402a58:	8c440000 	lw	a0,0(v0)
  402a5c:	3c03464c 	lui	v1,0x464c
  402a60:	2463457f 	addiu	v1,v1,17791
  402a64:	5483000d 	bnel	a0,v1,402a9c <fuck_elf+0x84>
  402a68:	3c040042 	lui	a0,0x42
  402a6c:	8c53001c 	lw	s3,28(v0)
  402a70:	00539821 	addu	s3,v0,s3
  402a74:	9443002c 	lhu	v1,44(v0)
  402a78:	945e002a 	lhu	s8,42(v0)
  402a7c:	2475ffff 	addiu	s5,v1,-1
  402a80:	10600057 	beqz	v1,402be0 <fuck_elf+0x1c8>
  402a84:	32b5ffff 	andi	s5,s5,0xffff
  402a88:	3c115fff 	lui	s1,0x5fff
  402a8c:	3631f000 	ori	s1,s1,0xf000
  402a90:	3c16003f 	lui	s6,0x3f
  402a94:	10000047 	b	402bb4 <fuck_elf+0x19c>
  402a98:	36d6f000 	ori	s6,s6,0xf000
  402a9c:	0c100042 	jal	400108 <writef>
  402aa0:	2484bfa0 	addiu	a0,a0,-16480
  402aa4:	10000004 	b	402ab8 <fuck_elf+0xa0>
  402aa8:	2414ffff 	li	s4,-1
  402aac:	3c040042 	lui	a0,0x42
  402ab0:	0c100042 	jal	400108 <writef>
  402ab4:	2484bfac 	addiu	a0,a0,-16468
  402ab8:	02801025 	move	v0,s4
  402abc:	8fbf0044 	lw	ra,68(sp)
  402ac0:	8fbe0040 	lw	s8,64(sp)
  402ac4:	8fb7003c 	lw	s7,60(sp)
  402ac8:	8fb60038 	lw	s6,56(sp)
  402acc:	8fb50034 	lw	s5,52(sp)
  402ad0:	8fb40030 	lw	s4,48(sp)
  402ad4:	8fb3002c 	lw	s3,44(sp)
  402ad8:	8fb20028 	lw	s2,40(sp)
  402adc:	8fb10024 	lw	s1,36(sp)
  402ae0:	8fb00020 	lw	s0,32(sp)
  402ae4:	03e00008 	jr	ra
  402ae8:	27bd0048 	addiu	sp,sp,72
  402aec:	1a400004 	blez	s2,402b00 <fuck_elf+0xe8>
  402af0:	24061000 	li	a2,4096
  402af4:	02202825 	move	a1,s1
  402af8:	0c1002af 	jal	400abc <user_bcopy>
  402afc:	8fa40018 	lw	a0,24(sp)
  402b00:	24020600 	li	v0,1536
  402b04:	afa20010 	sw	v0,16(sp)
  402b08:	02163821 	addu	a3,s0,s6
  402b0c:	8fa6004c 	lw	a2,76(sp)
  402b10:	02202825 	move	a1,s1
  402b14:	0c100424 	jal	401090 <syscall_mem_map>
  402b18:	00002025 	move	a0,zero
  402b1c:	02202825 	move	a1,s1
  402b20:	0c100431 	jal	4010c4 <syscall_mem_unmap>
  402b24:	00002025 	move	a0,zero
  402b28:	02009025 	move	s2,s0
  402b2c:	8e620014 	lw	v0,20(s3)
  402b30:	0202802b 	sltu	s0,s0,v0
  402b34:	5200001b 	beqzl	s0,402ba4 <fuck_elf+0x18c>
  402b38:	26b5ffff 	addiu	s5,s5,-1
  402b3c:	26501000 	addiu	s0,s2,4096
  402b40:	27a60018 	addiu	a2,sp,24
  402b44:	02002825 	move	a1,s0
  402b48:	0c100755 	jal	401d54 <read_map>
  402b4c:	02e02025 	move	a0,s7
  402b50:	0440ffd6 	bltz	v0,402aac <fuck_elf+0x94>
  402b54:	0040a025 	move	s4,v0
  402b58:	24060600 	li	a2,1536
  402b5c:	02202825 	move	a1,s1
  402b60:	0c100418 	jal	401060 <syscall_mem_alloc>
  402b64:	00002025 	move	a0,zero
  402b68:	24051000 	li	a1,4096
  402b6c:	0c100317 	jal	400c5c <user_bzero>
  402b70:	02202025 	move	a0,s1
  402b74:	8e620010 	lw	v0,16(s3)
  402b78:	00523023 	subu	a2,v0,s2
  402b7c:	2cc31000 	sltiu	v1,a2,4096
  402b80:	1060ffda 	beqz	v1,402aec <fuck_elf+0xd4>
  402b84:	00529023 	subu	s2,v0,s2
  402b88:	18c0ffdd 	blez	a2,402b00 <fuck_elf+0xe8>
  402b8c:	02202825 	move	a1,s1
  402b90:	0c1002af 	jal	400abc <user_bcopy>
  402b94:	8fa40018 	lw	a0,24(sp)
  402b98:	1000ffda 	b	402b04 <fuck_elf+0xec>
  402b9c:	24020600 	li	v0,1536
  402ba0:	26b5ffff 	addiu	s5,s5,-1
  402ba4:	32b5ffff 	andi	s5,s5,0xffff
  402ba8:	3402ffff 	li	v0,0xffff
  402bac:	12a2000a 	beq	s5,v0,402bd8 <fuck_elf+0x1c0>
  402bb0:	027e9821 	addu	s3,s3,s8
  402bb4:	8e630000 	lw	v1,0(s3)
  402bb8:	24020001 	li	v0,1
  402bbc:	5462fff9 	bnel	v1,v0,402ba4 <fuck_elf+0x18c>
  402bc0:	26b5ffff 	addiu	s5,s5,-1
  402bc4:	8e620014 	lw	v0,20(s3)
  402bc8:	1040fff5 	beqz	v0,402ba0 <fuck_elf+0x188>
  402bcc:	00009025 	move	s2,zero
  402bd0:	1000ffdb 	b	402b40 <fuck_elf+0x128>
  402bd4:	26501000 	addiu	s0,s2,4096
  402bd8:	1000ffb7 	b	402ab8 <fuck_elf+0xa0>
  402bdc:	0000a025 	move	s4,zero
  402be0:	1000ffb5 	b	402ab8 <fuck_elf+0xa0>
  402be4:	0000a025 	move	s4,zero

00402be8 <spawn>:
  402be8:	27bdffb0 	addiu	sp,sp,-80
  402bec:	afbf004c 	sw	ra,76(sp)
  402bf0:	afbe0048 	sw	s8,72(sp)
  402bf4:	afb70044 	sw	s7,68(sp)
  402bf8:	afb60040 	sw	s6,64(sp)
  402bfc:	afb5003c 	sw	s5,60(sp)
  402c00:	afb40038 	sw	s4,56(sp)
  402c04:	afb30034 	sw	s3,52(sp)
  402c08:	afb20030 	sw	s2,48(sp)
  402c0c:	afb1002c 	sw	s1,44(sp)
  402c10:	afb00028 	sw	s0,40(sp)
  402c14:	00a08825 	move	s1,a1
  402c18:	0c10072a 	jal	401ca8 <open>
  402c1c:	00002825 	move	a1,zero
  402c20:	0440002e 	bltz	v0,402cdc <spawn+0xf4>
  402c24:	00408025 	move	s0,v0
  402c28:	afa00014 	sw	zero,20(sp)
  402c2c:	afa00010 	sw	zero,16(sp)
  402c30:	00003825 	move	a3,zero
  402c34:	00003025 	move	a2,zero
  402c38:	00002825 	move	a1,zero
  402c3c:	0c100030 	jal	4000c0 <msyscall>
  402c40:	2404253f 	li	a0,9535
  402c44:	00409025 	move	s2,v0
  402c48:	afa20020 	sw	v0,32(sp)
  402c4c:	0040a025 	move	s4,v0
  402c50:	27a60018 	addiu	a2,sp,24
  402c54:	02202825 	move	a1,s1
  402c58:	0c1009e0 	jal	402780 <init_stack>
  402c5c:	00402025 	move	a0,v0
  402c60:	0c100550 	jal	401540 <num2fd>
  402c64:	02002025 	move	a0,s0
  402c68:	8c510090 	lw	s1,144(v0)
  402c6c:	02402825 	move	a1,s2
  402c70:	0c100a86 	jal	402a18 <fuck_elf>
  402c74:	02002025 	move	a0,s0
  402c78:	8fa60018 	lw	a2,24(sp)
  402c7c:	02202825 	move	a1,s1
  402c80:	3c040042 	lui	a0,0x42
  402c84:	0c100042 	jal	400108 <writef>
  402c88:	2484bff4 	addiu	a0,a0,-16396
  402c8c:	324303ff 	andi	v1,s2,0x3ff
  402c90:	00031100 	sll	v0,v1,0x4
  402c94:	00431023 	subu	v0,v0,v1
  402c98:	00021080 	sll	v0,v0,0x2
  402c9c:	00431023 	subu	v0,v0,v1
  402ca0:	00021080 	sll	v0,v0,0x2
  402ca4:	3c030042 	lui	v1,0x42
  402ca8:	8c635744 	lw	v1,22340(v1)
  402cac:	00621021 	addu	v0,v1,v0
  402cb0:	3c030040 	lui	v1,0x40
  402cb4:	ac430098 	sw	v1,152(v0)
  402cb8:	8fa30018 	lw	v1,24(sp)
  402cbc:	ac430074 	sw	v1,116(v0)
  402cc0:	24121000 	li	s2,4096
  402cc4:	0000b025 	move	s6,zero
  402cc8:	3c1e0041 	lui	s8,0x41
  402ccc:	3c130041 	lui	s3,0x41
  402cd0:	24150604 	li	s5,1540
  402cd4:	10000029 	b	402d7c <spawn+0x194>
  402cd8:	241707f4 	li	s7,2036
  402cdc:	3c060042 	lui	a2,0x42
  402ce0:	24c6bfc4 	addiu	a2,a2,-16444
  402ce4:	240500bb 	li	a1,187
  402ce8:	3c040042 	lui	a0,0x42
  402cec:	0c100051 	jal	400144 <_user_panic>
  402cf0:	2484bfec 	addiu	a0,a0,-16404
  402cf4:	1212001e 	beq	s0,s2,402d70 <spawn+0x188>
  402cf8:	26311000 	addiu	s1,s1,4096
  402cfc:	8e62f008 	lw	v0,-4088(s3)
  402d00:	00501021 	addu	v0,v0,s0
  402d04:	8c430000 	lw	v1,0(v0)
  402d08:	30630200 	andi	v1,v1,0x200
  402d0c:	5060fff9 	beqzl	v1,402cf4 <spawn+0x10c>
  402d10:	26100004 	addiu	s0,s0,4
  402d14:	8c420000 	lw	v0,0(v0)
  402d18:	30420004 	andi	v0,v0,0x4
  402d1c:	5040fff5 	beqzl	v0,402cf4 <spawn+0x10c>
  402d20:	26100004 	addiu	s0,s0,4
  402d24:	afb50010 	sw	s5,16(sp)
  402d28:	02203825 	move	a3,s1
  402d2c:	02803025 	move	a2,s4
  402d30:	02202825 	move	a1,s1
  402d34:	0c100424 	jal	401090 <syscall_mem_map>
  402d38:	00002025 	move	a0,zero
  402d3c:	0443ffed 	bgezl	v0,402cf4 <spawn+0x10c>
  402d40:	26100004 	addiu	s0,s0,4
  402d44:	02803025 	move	a2,s4
  402d48:	02202825 	move	a1,s1
  402d4c:	3c040042 	lui	a0,0x42
  402d50:	0c100042 	jal	400108 <writef>
  402d54:	2484c024 	addiu	a0,a0,-16348
  402d58:	3c060042 	lui	a2,0x42
  402d5c:	24c6c044 	addiu	a2,a2,-16316
  402d60:	240500ff 	li	a1,255
  402d64:	3c040042 	lui	a0,0x42
  402d68:	0c100051 	jal	400144 <_user_panic>
  402d6c:	2484bfec 	addiu	a0,a0,-16404
  402d70:	26d60004 	addiu	s6,s6,4
  402d74:	12d7000a 	beq	s6,s7,402da0 <spawn+0x1b8>
  402d78:	26521000 	addiu	s2,s2,4096
  402d7c:	8fc2f00c 	lw	v0,-4084(s8)
  402d80:	00561021 	addu	v0,v0,s6
  402d84:	8c420000 	lw	v0,0(v0)
  402d88:	30420200 	andi	v0,v0,0x200
  402d8c:	5040fff9 	beqzl	v0,402d74 <spawn+0x18c>
  402d90:	26d60004 	addiu	s6,s6,4
  402d94:	00168280 	sll	s0,s6,0xa
  402d98:	1000ffd8 	b	402cfc <spawn+0x114>
  402d9c:	00168d00 	sll	s1,s6,0x14
  402da0:	24050001 	li	a1,1
  402da4:	0c10043d 	jal	4010f4 <syscall_set_env_status>
  402da8:	02802025 	move	a0,s4
  402dac:	0440000e 	bltz	v0,402de8 <spawn+0x200>
  402db0:	00408025 	move	s0,v0
  402db4:	8fa20020 	lw	v0,32(sp)
  402db8:	8fbf004c 	lw	ra,76(sp)
  402dbc:	8fbe0048 	lw	s8,72(sp)
  402dc0:	8fb70044 	lw	s7,68(sp)
  402dc4:	8fb60040 	lw	s6,64(sp)
  402dc8:	8fb5003c 	lw	s5,60(sp)
  402dcc:	8fb40038 	lw	s4,56(sp)
  402dd0:	8fb30034 	lw	s3,52(sp)
  402dd4:	8fb20030 	lw	s2,48(sp)
  402dd8:	8fb1002c 	lw	s1,44(sp)
  402ddc:	8fb00028 	lw	s0,40(sp)
  402de0:	03e00008 	jr	ra
  402de4:	27bd0050 	addiu	sp,sp,80
  402de8:	3c040042 	lui	a0,0x42
  402dec:	0c100042 	jal	400108 <writef>
  402df0:	2484c068 	addiu	a0,a0,-16280
  402df4:	1000ffef 	b	402db4 <spawn+0x1cc>
  402df8:	afb00020 	sw	s0,32(sp)

00402dfc <spawnl>:
  402dfc:	27bdffe8 	addiu	sp,sp,-24
  402e00:	afbf0014 	sw	ra,20(sp)
  402e04:	afa5001c 	sw	a1,28(sp)
  402e08:	afa60020 	sw	a2,32(sp)
  402e0c:	afa70024 	sw	a3,36(sp)
  402e10:	0c100afa 	jal	402be8 <spawn>
  402e14:	27a5001c 	addiu	a1,sp,28
  402e18:	8fbf0014 	lw	ra,20(sp)
  402e1c:	03e00008 	jr	ra
  402e20:	27bd0018 	addiu	sp,sp,24

00402e24 <cons_close>:
  402e24:	03e00008 	jr	ra
  402e28:	00001025 	move	v0,zero

00402e2c <cons_stat>:
  402e2c:	3c020042 	lui	v0,0x42
  402e30:	8c43c088 	lw	v1,-16248(v0)
  402e34:	a8a30003 	swl	v1,3(a1)
  402e38:	b8a30000 	swr	v1,0(a1)
  402e3c:	2442c088 	addiu	v0,v0,-16248
  402e40:	90430004 	lbu	v1,4(v0)
  402e44:	a0a30004 	sb	v1,4(a1)
  402e48:	90430005 	lbu	v1,5(v0)
  402e4c:	a0a30005 	sb	v1,5(a1)
  402e50:	90420006 	lbu	v0,6(v0)
  402e54:	a0a20006 	sb	v0,6(a1)
  402e58:	03e00008 	jr	ra
  402e5c:	00001025 	move	v0,zero

00402e60 <cons_write>:
  402e60:	27bdff50 	addiu	sp,sp,-176
  402e64:	afbf00ac 	sw	ra,172(sp)
  402e68:	afb500a8 	sw	s5,168(sp)
  402e6c:	afb400a4 	sw	s4,164(sp)
  402e70:	afb300a0 	sw	s3,160(sp)
  402e74:	afb2009c 	sw	s2,156(sp)
  402e78:	afb10098 	sw	s1,152(sp)
  402e7c:	10c00023 	beqz	a2,402f0c <cons_write+0xac>
  402e80:	afb00094 	sw	s0,148(sp)
  402e84:	00c09025 	move	s2,a2
  402e88:	00a09825 	move	s3,a1
  402e8c:	00002025 	move	a0,zero
  402e90:	00008825 	move	s1,zero
  402e94:	2415007f 	li	s5,127
  402e98:	3c140042 	lui	s4,0x42
  402e9c:	2694c090 	addiu	s4,s4,-16240
  402ea0:	02448023 	subu	s0,s2,a0
  402ea4:	2e020080 	sltiu	v0,s0,128
  402ea8:	02a2800a 	movz	s0,s5,v0
  402eac:	02003025 	move	a2,s0
  402eb0:	27a50010 	addiu	a1,sp,16
  402eb4:	0c1002af 	jal	400abc <user_bcopy>
  402eb8:	02642021 	addu	a0,s3,a0
  402ebc:	27a20010 	addiu	v0,sp,16
  402ec0:	00501021 	addu	v0,v0,s0
  402ec4:	a0400000 	sb	zero,0(v0)
  402ec8:	27a50010 	addiu	a1,sp,16
  402ecc:	0c100042 	jal	400108 <writef>
  402ed0:	02802025 	move	a0,s4
  402ed4:	02308821 	addu	s1,s1,s0
  402ed8:	0232102b 	sltu	v0,s1,s2
  402edc:	1440fff0 	bnez	v0,402ea0 <cons_write+0x40>
  402ee0:	02202025 	move	a0,s1
  402ee4:	02201025 	move	v0,s1
  402ee8:	8fbf00ac 	lw	ra,172(sp)
  402eec:	8fb500a8 	lw	s5,168(sp)
  402ef0:	8fb400a4 	lw	s4,164(sp)
  402ef4:	8fb300a0 	lw	s3,160(sp)
  402ef8:	8fb2009c 	lw	s2,156(sp)
  402efc:	8fb10098 	lw	s1,152(sp)
  402f00:	8fb00094 	lw	s0,148(sp)
  402f04:	03e00008 	jr	ra
  402f08:	27bd00b0 	addiu	sp,sp,176
  402f0c:	1000fff5 	b	402ee4 <cons_write+0x84>
  402f10:	00008825 	move	s1,zero

00402f14 <cons_read>:
  402f14:	27bdffe0 	addiu	sp,sp,-32
  402f18:	afbf001c 	sw	ra,28(sp)
  402f1c:	afb10018 	sw	s1,24(sp)
  402f20:	afb00014 	sw	s0,20(sp)
  402f24:	00a08825 	move	s1,a1
  402f28:	14c00005 	bnez	a2,402f40 <cons_read+0x2c>
  402f2c:	00008025 	move	s0,zero
  402f30:	10000014 	b	402f84 <cons_read+0x70>
  402f34:	02001025 	move	v0,s0
  402f38:	0c1003f4 	jal	400fd0 <syscall_yield>
  402f3c:	00000000 	nop
  402f40:	0c100479 	jal	4011e4 <syscall_cgetc>
  402f44:	00000000 	nop
  402f48:	1040fffb 	beqz	v0,402f38 <cons_read+0x24>
  402f4c:	00408025 	move	s0,v0
  402f50:	2402000d 	li	v0,13
  402f54:	12020010 	beq	s0,v0,402f98 <cons_read+0x84>
  402f58:	02002825 	move	a1,s0
  402f5c:	3c040042 	lui	a0,0x42
  402f60:	0c100042 	jal	400108 <writef>
  402f64:	2484c094 	addiu	a0,a0,-16236
  402f68:	06000005 	bltz	s0,402f80 <cons_read+0x6c>
  402f6c:	24020004 	li	v0,4
  402f70:	52020003 	beql	s0,v0,402f80 <cons_read+0x6c>
  402f74:	00008025 	move	s0,zero
  402f78:	a2300000 	sb	s0,0(s1)
  402f7c:	24100001 	li	s0,1
  402f80:	02001025 	move	v0,s0
  402f84:	8fbf001c 	lw	ra,28(sp)
  402f88:	8fb10018 	lw	s1,24(sp)
  402f8c:	8fb00014 	lw	s0,20(sp)
  402f90:	03e00008 	jr	ra
  402f94:	27bd0020 	addiu	sp,sp,32
  402f98:	3c040042 	lui	a0,0x42
  402f9c:	0c100042 	jal	400108 <writef>
  402fa0:	2484c1e0 	addiu	a0,a0,-15904
  402fa4:	1000fff5 	b	402f7c <cons_read+0x68>
  402fa8:	a2300000 	sb	s0,0(s1)

00402fac <opencons>:
  402fac:	27bdffe0 	addiu	sp,sp,-32
  402fb0:	afbf001c 	sw	ra,28(sp)
  402fb4:	0c1004fe 	jal	4013f8 <fd_alloc>
  402fb8:	27a40010 	addiu	a0,sp,16
  402fbc:	0440000e 	bltz	v0,402ff8 <opencons+0x4c>
  402fc0:	24060604 	li	a2,1540
  402fc4:	8fa50010 	lw	a1,16(sp)
  402fc8:	0c100418 	jal	401060 <syscall_mem_alloc>
  402fcc:	00002025 	move	a0,zero
  402fd0:	0440000a 	bltz	v0,402ffc <opencons+0x50>
  402fd4:	8fbf001c 	lw	ra,28(sp)
  402fd8:	3c020041 	lui	v0,0x41
  402fdc:	8c43f04c 	lw	v1,-4020(v0)
  402fe0:	8fa20010 	lw	v0,16(sp)
  402fe4:	ac430000 	sw	v1,0(v0)
  402fe8:	8fa40010 	lw	a0,16(sp)
  402fec:	24020002 	li	v0,2
  402ff0:	0c10054c 	jal	401530 <fd2num>
  402ff4:	ac820008 	sw	v0,8(a0)
  402ff8:	8fbf001c 	lw	ra,28(sp)
  402ffc:	03e00008 	jr	ra
  403000:	27bd0020 	addiu	sp,sp,32

00403004 <user_out2string>:
  403004:	24020001 	li	v0,1
  403008:	50c2000c 	beql	a2,v0,40303c <user_out2string+0x38>
  40300c:	90a20000 	lbu	v0,0(a1)
  403010:	18c00008 	blez	a2,403034 <user_out2string+0x30>
  403014:	00001025 	move	v0,zero
  403018:	90a30000 	lbu	v1,0(a1)
  40301c:	a0830000 	sb	v1,0(a0)
  403020:	24420001 	addiu	v0,v0,1
  403024:	24a50001 	addiu	a1,a1,1
  403028:	0046182a 	slt	v1,v0,a2
  40302c:	1460fffa 	bnez	v1,403018 <user_out2string+0x14>
  403030:	24840001 	addiu	a0,a0,1
  403034:	03e00008 	jr	ra
  403038:	00000000 	nop
  40303c:	1440fff6 	bnez	v0,403018 <user_out2string+0x14>
  403040:	00001025 	move	v0,zero
  403044:	03e00008 	jr	ra
  403048:	00000000 	nop

0040304c <fwritef>:
  40304c:	27bdfde0 	addiu	sp,sp,-544
  403050:	afbf021c 	sw	ra,540(sp)
  403054:	afb00218 	sw	s0,536(sp)
  403058:	00808025 	move	s0,a0
  40305c:	afa60228 	sw	a2,552(sp)
  403060:	afa7022c 	sw	a3,556(sp)
  403064:	27a20010 	addiu	v0,sp,16
  403068:	27a30210 	addiu	v1,sp,528
  40306c:	a0400000 	sb	zero,0(v0)
  403070:	24420001 	addiu	v0,v0,1
  403074:	5443fffe 	bnel	v0,v1,403070 <fwritef+0x24>
  403078:	a0400000 	sb	zero,0(v0)
  40307c:	27a70228 	addiu	a3,sp,552
  403080:	afa70210 	sw	a3,528(sp)
  403084:	00a03025 	move	a2,a1
  403088:	27a50010 	addiu	a1,sp,16
  40308c:	3c040040 	lui	a0,0x40
  403090:	0c100134 	jal	4004d0 <user_lp_Print>
  403094:	24843004 	addiu	a0,a0,12292
  403098:	0c1012ed 	jal	404bb4 <strlen>
  40309c:	27a40010 	addiu	a0,sp,16
  4030a0:	00403025 	move	a2,v0
  4030a4:	27a50010 	addiu	a1,sp,16
  4030a8:	0c100637 	jal	4018dc <write>
  4030ac:	02002025 	move	a0,s0
  4030b0:	8fbf021c 	lw	ra,540(sp)
  4030b4:	8fb00218 	lw	s0,536(sp)
  4030b8:	03e00008 	jr	ra
  4030bc:	27bd0220 	addiu	sp,sp,544

004030c0 <load_icode_mapper>:
  4030c0:	27bdffb8 	addiu	sp,sp,-72
  4030c4:	afbf0044 	sw	ra,68(sp)
  4030c8:	afbe0040 	sw	s8,64(sp)
  4030cc:	afb7003c 	sw	s7,60(sp)
  4030d0:	afb60038 	sw	s6,56(sp)
  4030d4:	afb50034 	sw	s5,52(sp)
  4030d8:	afb40030 	sw	s4,48(sp)
  4030dc:	afb3002c 	sw	s3,44(sp)
  4030e0:	afb20028 	sw	s2,40(sp)
  4030e4:	afb10024 	sw	s1,36(sp)
  4030e8:	afb00020 	sw	s0,32(sp)
  4030ec:	0080f025 	move	s8,a0
  4030f0:	afa5004c 	sw	a1,76(sp)
  4030f4:	00e08825 	move	s1,a3
  4030f8:	8fb30058 	lw	s3,88(sp)
  4030fc:	10e00047 	beqz	a3,40321c <load_icode_mapper+0x15c>
  403100:	afa00010 	sw	zero,16(sp)
  403104:	00c0a025 	move	s4,a2
  403108:	30960fff 	andi	s6,a0,0xfff
  40310c:	24021000 	li	v0,4096
  403110:	00561023 	subu	v0,v0,s6
  403114:	00401825 	move	v1,v0
  403118:	afa2001c 	sw	v0,28(sp)
  40311c:	02c71021 	addu	v0,s6,a3
  403120:	2c421000 	sltiu	v0,v0,4096
  403124:	00e2180b 	movn	v1,a3,v0
  403128:	afa30018 	sw	v1,24(sp)
  40312c:	00008025 	move	s0,zero
  403130:	24171000 	li	s7,4096
  403134:	10000025 	b	4031cc <load_icode_mapper+0x10c>
  403138:	2495f000 	addiu	s5,a0,-4096
  40313c:	0c10122b 	jal	4048ac <printf>
  403140:	2484c0a0 	addiu	a0,a0,-16224
  403144:	2402fffc 	li	v0,-4
  403148:	8fbf0044 	lw	ra,68(sp)
  40314c:	8fbe0040 	lw	s8,64(sp)
  403150:	8fb7003c 	lw	s7,60(sp)
  403154:	8fb60038 	lw	s6,56(sp)
  403158:	8fb50034 	lw	s5,52(sp)
  40315c:	8fb40030 	lw	s4,48(sp)
  403160:	8fb3002c 	lw	s3,44(sp)
  403164:	8fb20028 	lw	s2,40(sp)
  403168:	8fb10024 	lw	s1,36(sp)
  40316c:	8fb00020 	lw	s0,32(sp)
  403170:	03e00008 	jr	ra
  403174:	27bd0048 	addiu	sp,sp,72
  403178:	0251302b 	sltu	a2,s2,s1
  40317c:	02301823 	subu	v1,s1,s0
  403180:	02e6180b 	movn	v1,s7,a2
  403184:	00603025 	move	a2,v1
  403188:	00402825 	move	a1,v0
  40318c:	0c102468 	jal	4091a0 <bcopy>
  403190:	02902021 	addu	a0,s4,s0
  403194:	02408025 	move	s0,s2
  403198:	8fa50010 	lw	a1,16(sp)
  40319c:	94a20008 	lhu	v0,8(a1)
  4031a0:	24420001 	addiu	v0,v0,1
  4031a4:	a4a20008 	sh	v0,8(a1)
  4031a8:	24070600 	li	a3,1536
  4031ac:	02b03021 	addu	a2,s5,s0
  4031b0:	0c102131 	jal	4084c4 <page_insert>
  4031b4:	8e6400b0 	lw	a0,176(s3)
  4031b8:	04420014 	bltzl	v0,40320c <load_icode_mapper+0x14c>
  4031bc:	3c040042 	lui	a0,0x42
  4031c0:	0211102b 	sltu	v0,s0,s1
  4031c4:	10400017 	beqz	v0,403224 <load_icode_mapper+0x164>
  4031c8:	8fa2004c 	lw	v0,76(sp)
  4031cc:	0c102051 	jal	408144 <page_alloc>
  4031d0:	27a40010 	addiu	a0,sp,16
  4031d4:	0440ffd9 	bltz	v0,40313c <load_icode_mapper+0x7c>
  4031d8:	3c040042 	lui	a0,0x42
  4031dc:	0c101ee7 	jal	407b9c <page2kva>
  4031e0:	8fa40010 	lw	a0,16(sp)
  4031e4:	1600ffe4 	bnez	s0,403178 <load_icode_mapper+0xb8>
  4031e8:	26121000 	addiu	s2,s0,4096
  4031ec:	12c0ffe3 	beqz	s6,40317c <load_icode_mapper+0xbc>
  4031f0:	0251302b 	sltu	a2,s2,s1
  4031f4:	8fa60018 	lw	a2,24(sp)
  4031f8:	02c22821 	addu	a1,s6,v0
  4031fc:	0c102468 	jal	4091a0 <bcopy>
  403200:	02802025 	move	a0,s4
  403204:	1000ffe4 	b	403198 <load_icode_mapper+0xd8>
  403208:	8fb0001c 	lw	s0,28(sp)
  40320c:	0c10122b 	jal	4048ac <printf>
  403210:	2484c0c8 	addiu	a0,a0,-16184
  403214:	1000ffcc 	b	403148 <load_icode_mapper+0x88>
  403218:	2402fffc 	li	v0,-4
  40321c:	00e08025 	move	s0,a3
  403220:	8fa2004c 	lw	v0,76(sp)
  403224:	0202102b 	sltu	v0,s0,v0
  403228:	1040ffc7 	beqz	v0,403148 <load_icode_mapper+0x88>
  40322c:	00001025 	move	v0,zero
  403230:	0c102051 	jal	408144 <page_alloc>
  403234:	27a40010 	addiu	a0,sp,16
  403238:	8fa50010 	lw	a1,16(sp)
  40323c:	94a30008 	lhu	v1,8(a1)
  403240:	24630001 	addiu	v1,v1,1
  403244:	0440000d 	bltz	v0,40327c <load_icode_mapper+0x1bc>
  403248:	a4a30008 	sh	v1,8(a1)
  40324c:	24070600 	li	a3,1536
  403250:	03d03021 	addu	a2,s8,s0
  403254:	0c102131 	jal	4084c4 <page_insert>
  403258:	8e6400b0 	lw	a0,176(s3)
  40325c:	0440000c 	bltz	v0,403290 <load_icode_mapper+0x1d0>
  403260:	26101000 	addiu	s0,s0,4096
  403264:	8fa2004c 	lw	v0,76(sp)
  403268:	0202102b 	sltu	v0,s0,v0
  40326c:	1440fff0 	bnez	v0,403230 <load_icode_mapper+0x170>
  403270:	8fbf0044 	lw	ra,68(sp)
  403274:	1000ffb6 	b	403150 <load_icode_mapper+0x90>
  403278:	8fbe0040 	lw	s8,64(sp)
  40327c:	3c040042 	lui	a0,0x42
  403280:	0c10122b 	jal	4048ac <printf>
  403284:	2484c0f0 	addiu	a0,a0,-16144
  403288:	1000ffaf 	b	403148 <load_icode_mapper+0x88>
  40328c:	2402fffc 	li	v0,-4
  403290:	3c040042 	lui	a0,0x42
  403294:	0c10122b 	jal	4048ac <printf>
  403298:	2484c0c8 	addiu	a0,a0,-16184
  40329c:	1000ffaa 	b	403148 <load_icode_mapper+0x88>
  4032a0:	2402fffc 	li	v0,-4

004032a4 <mkenvid>:
  4032a4:	3c020042 	lui	v0,0x42
  4032a8:	8c425744 	lw	v0,22340(v0)
  4032ac:	00821023 	subu	v0,a0,v0
  4032b0:	00021083 	sra	v0,v0,0x2
  4032b4:	3c04a08a 	lui	a0,0xa08a
  4032b8:	3484d8f3 	ori	a0,a0,0xd8f3
  4032bc:	70441002 	mul	v0,v0,a0
  4032c0:	3c040042 	lui	a0,0x42
  4032c4:	8c835748 	lw	v1,22344(a0)
  4032c8:	24630001 	addiu	v1,v1,1
  4032cc:	ac835748 	sw	v1,22344(a0)
  4032d0:	00031ac0 	sll	v1,v1,0xb
  4032d4:	03e00008 	jr	ra
  4032d8:	00621025 	or	v0,v1,v0

004032dc <envid2env>:
  4032dc:	1080001c 	beqz	a0,403350 <envid2env+0x74>
  4032e0:	308303ff 	andi	v1,a0,0x3ff
  4032e4:	00031100 	sll	v0,v1,0x4
  4032e8:	00431023 	subu	v0,v0,v1
  4032ec:	00021080 	sll	v0,v0,0x2
  4032f0:	00431023 	subu	v0,v0,v1
  4032f4:	00021080 	sll	v0,v0,0x2
  4032f8:	3c030042 	lui	v1,0x42
  4032fc:	8c635744 	lw	v1,22340(v1)
  403300:	00621021 	addu	v0,v1,v0
  403304:	8c4300ac 	lw	v1,172(v0)
  403308:	50600016 	beqzl	v1,403364 <envid2env+0x88>
  40330c:	aca00000 	sw	zero,0(a1)
  403310:	8c4300a4 	lw	v1,164(v0)
  403314:	54830013 	bnel	a0,v1,403364 <envid2env+0x88>
  403318:	aca00000 	sw	zero,0(a1)
  40331c:	50c0000a 	beqzl	a2,403348 <envid2env+0x6c>
  403320:	aca20000 	sw	v0,0(a1)
  403324:	3c030042 	lui	v1,0x42
  403328:	8c635740 	lw	v1,22336(v1)
  40332c:	50430006 	beql	v0,v1,403348 <envid2env+0x6c>
  403330:	aca20000 	sw	v0,0(a1)
  403334:	8c4400a8 	lw	a0,168(v0)
  403338:	8c6300a4 	lw	v1,164(v1)
  40333c:	5483000b 	bnel	a0,v1,40336c <envid2env+0x90>
  403340:	aca00000 	sw	zero,0(a1)
  403344:	aca20000 	sw	v0,0(a1)
  403348:	03e00008 	jr	ra
  40334c:	00001025 	move	v0,zero
  403350:	3c020042 	lui	v0,0x42
  403354:	8c425740 	lw	v0,22336(v0)
  403358:	aca20000 	sw	v0,0(a1)
  40335c:	03e00008 	jr	ra
  403360:	00001025 	move	v0,zero
  403364:	03e00008 	jr	ra
  403368:	2402fffe 	li	v0,-2
  40336c:	03e00008 	jr	ra
  403370:	2402fffe 	li	v0,-2

00403374 <env_init>:
  403374:	3c020042 	lui	v0,0x42
  403378:	8c485744 	lw	t0,22340(v0)
  40337c:	3c020003 	lui	v0,0x3
  403380:	3442afb0 	ori	v0,v0,0xafb0
  403384:	01021021 	addu	v0,t0,v0
  403388:	2507ffb0 	addiu	a3,t0,-80
  40338c:	00001825 	move	v1,zero
  403390:	3c060042 	lui	a2,0x42
  403394:	10000005 	b	4033ac <env_init+0x38>
  403398:	24c6574c 	addiu	a2,a2,22348
  40339c:	aca60004 	sw	a2,4(a1)
  4033a0:	2442ff14 	addiu	v0,v0,-236
  4033a4:	10470008 	beq	v0,a3,4033c8 <env_init+0x54>
  4033a8:	00801825 	move	v1,a0
  4033ac:	2444ff64 	addiu	a0,v0,-156
  4033b0:	00402825 	move	a1,v0
  4033b4:	ac400010 	sw	zero,16(v0)
  4033b8:	1060fff8 	beqz	v1,40339c <env_init+0x28>
  4033bc:	ac430000 	sw	v1,0(v0)
  4033c0:	1000fff6 	b	40339c <env_init+0x28>
  4033c4:	ac6200a0 	sw	v0,160(v1)
  4033c8:	3c020042 	lui	v0,0x42
  4033cc:	ac48574c 	sw	t0,22348(v0)
  4033d0:	3c020042 	lui	v0,0x42
  4033d4:	ac405d68 	sw	zero,23912(v0)
  4033d8:	24425d68 	addiu	v0,v0,23912
  4033dc:	ac400004 	sw	zero,4(v0)
  4033e0:	3c020042 	lui	v0,0x42
  4033e4:	ac40573c 	sw	zero,22332(v0)
  4033e8:	3c020042 	lui	v0,0x42
  4033ec:	03e00008 	jr	ra
  4033f0:	ac405d70 	sw	zero,23920(v0)

004033f4 <env_alloc>:
  4033f4:	27bdffd8 	addiu	sp,sp,-40
  4033f8:	afbf0024 	sw	ra,36(sp)
  4033fc:	afb20020 	sw	s2,32(sp)
  403400:	afb1001c 	sw	s1,28(sp)
  403404:	afb00018 	sw	s0,24(sp)
  403408:	3c020042 	lui	v0,0x42
  40340c:	8c50574c 	lw	s0,22348(v0)
  403410:	12000050 	beqz	s0,403554 <env_alloc+0x160>
  403414:	00a09025 	move	s2,a1
  403418:	00808825 	move	s1,a0
  40341c:	afa00010 	sw	zero,16(sp)
  403420:	0c102051 	jal	408144 <page_alloc>
  403424:	27a40010 	addiu	a0,sp,16
  403428:	0440003e 	bltz	v0,403524 <env_alloc+0x130>
  40342c:	3c060042 	lui	a2,0x42
  403430:	8fa40010 	lw	a0,16(sp)
  403434:	94820008 	lhu	v0,8(a0)
  403438:	24420001 	addiu	v0,v0,1
  40343c:	0c101ee7 	jal	407b9c <page2kva>
  403440:	a4820008 	sh	v0,8(a0)
  403444:	244607f4 	addiu	a2,v0,2036
  403448:	00401825 	move	v1,v0
  40344c:	ac600000 	sw	zero,0(v1)
  403450:	24630004 	addiu	v1,v1,4
  403454:	5466fffe 	bnel	v1,a2,403450 <env_alloc+0x5c>
  403458:	ac600000 	sw	zero,0(v1)
  40345c:	24450ffc 	addiu	a1,v0,4092
  403460:	3c040042 	lui	a0,0x42
  403464:	00624023 	subu	t0,v1,v0
  403468:	8c865df8 	lw	a2,24056(a0)
  40346c:	00c83021 	addu	a2,a2,t0
  403470:	8cc60000 	lw	a2,0(a2)
  403474:	ac660000 	sw	a2,0(v1)
  403478:	24630004 	addiu	v1,v1,4
  40347c:	1465fffa 	bne	v1,a1,403468 <env_alloc+0x74>
  403480:	00624023 	subu	t0,v1,v0
  403484:	0441002c 	bgez	v0,403538 <env_alloc+0x144>
  403488:	ae0200b0 	sw	v0,176(s0)
  40348c:	3c038000 	lui	v1,0x8000
  403490:	00431821 	addu	v1,v0,v1
  403494:	ae0300b4 	sw	v1,180(s0)
  403498:	ac430804 	sw	v1,2052(v0)
  40349c:	8e0300b0 	lw	v1,176(s0)
  4034a0:	8e0200b4 	lw	v0,180(s0)
  4034a4:	34420600 	ori	v0,v0,0x600
  4034a8:	ac6207fc 	sw	v0,2044(v1)
  4034ac:	0c100ca9 	jal	4032a4 <mkenvid>
  4034b0:	02002025 	move	a0,s0
  4034b4:	ae0200a4 	sw	v0,164(s0)
  4034b8:	ae1200a8 	sw	s2,168(s0)
  4034bc:	24020001 	li	v0,1
  4034c0:	ae0200ac 	sw	v0,172(s0)
  4034c4:	ae0200c0 	sw	v0,192(s0)
  4034c8:	3c021000 	lui	v0,0x1000
  4034cc:	24421004 	addiu	v0,v0,4100
  4034d0:	ae020080 	sw	v0,128(s0)
  4034d4:	3c027f3f 	lui	v0,0x7f3f
  4034d8:	3442e000 	ori	v0,v0,0xe000
  4034dc:	ae020074 	sw	v0,116(s0)
  4034e0:	ae0000e0 	sw	zero,224(s0)
  4034e4:	8e02009c 	lw	v0,156(s0)
  4034e8:	50400004 	beqzl	v0,4034fc <env_alloc+0x108>
  4034ec:	8e0200a0 	lw	v0,160(s0)
  4034f0:	8e0300a0 	lw	v1,160(s0)
  4034f4:	ac4300a0 	sw	v1,160(v0)
  4034f8:	8e0200a0 	lw	v0,160(s0)
  4034fc:	8e03009c 	lw	v1,156(s0)
  403500:	ac430000 	sw	v1,0(v0)
  403504:	ae300000 	sw	s0,0(s1)
  403508:	00001025 	move	v0,zero
  40350c:	8fbf0024 	lw	ra,36(sp)
  403510:	8fb20020 	lw	s2,32(sp)
  403514:	8fb1001c 	lw	s1,28(sp)
  403518:	8fb00018 	lw	s0,24(sp)
  40351c:	03e00008 	jr	ra
  403520:	27bd0028 	addiu	sp,sp,40
  403524:	24c6c118 	addiu	a2,a2,-16104
  403528:	2405008e 	li	a1,142
  40352c:	3c040042 	lui	a0,0x42
  403530:	0c10123f 	jal	4048fc <_panic>
  403534:	2484c13c 	addiu	a0,a0,-16068
  403538:	00403825 	move	a3,v0
  40353c:	3c060042 	lui	a2,0x42
  403540:	24c6c144 	addiu	a2,a2,-16060
  403544:	240500a7 	li	a1,167
  403548:	3c040042 	lui	a0,0x42
  40354c:	0c10123f 	jal	4048fc <_panic>
  403550:	2484c13c 	addiu	a0,a0,-16068
  403554:	1000ffed 	b	40350c <env_alloc+0x118>
  403558:	2402fffb 	li	v0,-5

0040355c <env_create_priority>:
  40355c:	27bdffc0 	addiu	sp,sp,-64
  403560:	afbf003c 	sw	ra,60(sp)
  403564:	afb30038 	sw	s3,56(sp)
  403568:	afb20034 	sw	s2,52(sp)
  40356c:	afb10030 	sw	s1,48(sp)
  403570:	afb0002c 	sw	s0,44(sp)
  403574:	00808825 	move	s1,a0
  403578:	00a09025 	move	s2,a1
  40357c:	00c09825 	move	s3,a2
  403580:	00002825 	move	a1,zero
  403584:	0c100cfd 	jal	4033f4 <env_alloc>
  403588:	27a40018 	addiu	a0,sp,24
  40358c:	04400031 	bltz	v0,403654 <env_create_priority+0xf8>
  403590:	8fb00018 	lw	s0,24(sp)
  403594:	ae1300c0 	sw	s3,192(s0)
  403598:	afa00020 	sw	zero,32(sp)
  40359c:	0c102051 	jal	408144 <page_alloc>
  4035a0:	27a40020 	addiu	a0,sp,32
  4035a4:	8fa50020 	lw	a1,32(sp)
  4035a8:	94a20008 	lhu	v0,8(a1)
  4035ac:	24420001 	addiu	v0,v0,1
  4035b0:	a4a20008 	sh	v0,8(a1)
  4035b4:	24070600 	li	a3,1536
  4035b8:	3c067f3f 	lui	a2,0x7f3f
  4035bc:	34c6d000 	ori	a2,a2,0xd000
  4035c0:	0c102131 	jal	4084c4 <page_insert>
  4035c4:	8e0400b0 	lw	a0,176(s0)
  4035c8:	3c020040 	lui	v0,0x40
  4035cc:	244230c0 	addiu	v0,v0,12480
  4035d0:	afa20010 	sw	v0,16(sp)
  4035d4:	02003825 	move	a3,s0
  4035d8:	27a6001c 	addiu	a2,sp,28
  4035dc:	02402825 	move	a1,s2
  4035e0:	0c100f72 	jal	403dc8 <load_elf>
  4035e4:	02202025 	move	a0,s1
  4035e8:	8fa2001c 	lw	v0,28(sp)
  4035ec:	ae020098 	sw	v0,152(s0)
  4035f0:	8fa30018 	lw	v1,24(sp)
  4035f4:	3c020042 	lui	v0,0x42
  4035f8:	8c42573c 	lw	v0,22332(v0)
  4035fc:	00022080 	sll	a0,v0,0x2
  403600:	3c050042 	lui	a1,0x42
  403604:	24a55d68 	addiu	a1,a1,23912
  403608:	00852021 	addu	a0,a0,a1
  40360c:	8c840000 	lw	a0,0(a0)
  403610:	10800003 	beqz	a0,403620 <env_create_priority+0xc4>
  403614:	ac6400b8 	sw	a0,184(v1)
  403618:	246500b8 	addiu	a1,v1,184
  40361c:	ac8500bc 	sw	a1,188(a0)
  403620:	00021080 	sll	v0,v0,0x2
  403624:	3c040042 	lui	a0,0x42
  403628:	24845d68 	addiu	a0,a0,23912
  40362c:	00441021 	addu	v0,v0,a0
  403630:	ac430000 	sw	v1,0(v0)
  403634:	ac6200bc 	sw	v0,188(v1)
  403638:	8fbf003c 	lw	ra,60(sp)
  40363c:	8fb30038 	lw	s3,56(sp)
  403640:	8fb20034 	lw	s2,52(sp)
  403644:	8fb10030 	lw	s1,48(sp)
  403648:	8fb0002c 	lw	s0,44(sp)
  40364c:	03e00008 	jr	ra
  403650:	27bd0040 	addiu	sp,sp,64
  403654:	3c060042 	lui	a2,0x42
  403658:	24c6c168 	addiu	a2,a2,-16024
  40365c:	24050179 	li	a1,377
  403660:	3c040042 	lui	a0,0x42
  403664:	0c10123f 	jal	4048fc <_panic>
  403668:	2484c13c 	addiu	a0,a0,-16068

0040366c <env_create>:
  40366c:	27bdffe8 	addiu	sp,sp,-24
  403670:	afbf0014 	sw	ra,20(sp)
  403674:	0c100d57 	jal	40355c <env_create_priority>
  403678:	24060001 	li	a2,1
  40367c:	8fbf0014 	lw	ra,20(sp)
  403680:	03e00008 	jr	ra
  403684:	27bd0018 	addiu	sp,sp,24

00403688 <env_free>:
  403688:	27bdffc0 	addiu	sp,sp,-64
  40368c:	afbf003c 	sw	ra,60(sp)
  403690:	afbe0038 	sw	s8,56(sp)
  403694:	afb70034 	sw	s7,52(sp)
  403698:	afb60030 	sw	s6,48(sp)
  40369c:	afb5002c 	sw	s5,44(sp)
  4036a0:	afb40028 	sw	s4,40(sp)
  4036a4:	afb30024 	sw	s3,36(sp)
  4036a8:	afb20020 	sw	s2,32(sp)
  4036ac:	afb1001c 	sw	s1,28(sp)
  4036b0:	afb00018 	sw	s0,24(sp)
  4036b4:	3c020042 	lui	v0,0x42
  4036b8:	8c425740 	lw	v0,22336(v0)
  4036bc:	1040000d 	beqz	v0,4036f4 <env_free+0x6c>
  4036c0:	00809825 	move	s3,a0
  4036c4:	8c4500a4 	lw	a1,164(v0)
  4036c8:	8e6600a4 	lw	a2,164(s3)
  4036cc:	3c040042 	lui	a0,0x42
  4036d0:	0c10122b 	jal	4048ac <printf>
  4036d4:	2484c194 	addiu	a0,a0,-15980
  4036d8:	0000b025 	move	s6,zero
  4036dc:	3c1e0042 	lui	s8,0x42
  4036e0:	3c028000 	lui	v0,0x8000
  4036e4:	24421000 	addiu	v0,v0,4096
  4036e8:	afa20010 	sw	v0,16(sp)
  4036ec:	1000001f 	b	40376c <env_free+0xe4>
  4036f0:	241707f4 	li	s7,2036
  4036f4:	1000fff4 	b	4036c8 <env_free+0x40>
  4036f8:	00002825 	move	a1,zero
  4036fc:	02a03825 	move	a3,s5
  403700:	3c060042 	lui	a2,0x42
  403704:	24c6c1ac 	addiu	a2,a2,-15956
  403708:	240501a6 	li	a1,422
  40370c:	3c040042 	lui	a0,0x42
  403710:	0c10123f 	jal	4048fc <_panic>
  403714:	2484c13c 	addiu	a0,a0,-16068
  403718:	1212000a 	beq	s0,s2,403744 <env_free+0xbc>
  40371c:	26311000 	addiu	s1,s1,4096
  403720:	8e020000 	lw	v0,0(s0)
  403724:	30420200 	andi	v0,v0,0x200
  403728:	5040fffb 	beqzl	v0,403718 <env_free+0x90>
  40372c:	26100004 	addiu	s0,s0,4
  403730:	02912825 	or	a1,s4,s1
  403734:	0c102114 	jal	408450 <page_remove>
  403738:	8e6400b0 	lw	a0,176(s3)
  40373c:	1000fff6 	b	403718 <env_free+0x90>
  403740:	26100004 	addiu	s0,s0,4
  403744:	8e6200b0 	lw	v0,176(s3)
  403748:	00561021 	addu	v0,v0,s6
  40374c:	ac400000 	sw	zero,0(v0)
  403750:	0c101ed2 	jal	407b48 <pa2page>
  403754:	02a02025 	move	a0,s5
  403758:	0c1020f3 	jal	4083cc <page_decref>
  40375c:	00402025 	move	a0,v0
  403760:	26d60004 	addiu	s6,s6,4
  403764:	52d70013 	beql	s6,s7,4037b4 <env_free+0x12c>
  403768:	8e6400b4 	lw	a0,180(s3)
  40376c:	8e6200b0 	lw	v0,176(s3)
  403770:	00561021 	addu	v0,v0,s6
  403774:	8c550000 	lw	s5,0(v0)
  403778:	32a20200 	andi	v0,s5,0x200
  40377c:	5040fff9 	beqzl	v0,403764 <env_free+0xdc>
  403780:	26d60004 	addiu	s6,s6,4
  403784:	7c155804 	ins	s5,zero,0x0,0xc
  403788:	00151302 	srl	v0,s5,0xc
  40378c:	8fc35df4 	lw	v1,24052(s8)
  403790:	0043102b 	sltu	v0,v0,v1
  403794:	1040ffd9 	beqz	v0,4036fc <env_free+0x74>
  403798:	0016a500 	sll	s4,s6,0x14
  40379c:	8fa20010 	lw	v0,16(sp)
  4037a0:	02a29021 	addu	s2,s5,v0
  4037a4:	3c028000 	lui	v0,0x8000
  4037a8:	02a28021 	addu	s0,s5,v0
  4037ac:	1000ffdc 	b	403720 <env_free+0x98>
  4037b0:	00008825 	move	s1,zero
  4037b4:	ae6000b0 	sw	zero,176(s3)
  4037b8:	0c101ed2 	jal	407b48 <pa2page>
  4037bc:	ae6000b4 	sw	zero,180(s3)
  4037c0:	0c1020f3 	jal	4083cc <page_decref>
  4037c4:	00402025 	move	a0,v0
  4037c8:	ae6000ac 	sw	zero,172(s3)
  4037cc:	3c020042 	lui	v0,0x42
  4037d0:	8c42574c 	lw	v0,22348(v0)
  4037d4:	10400003 	beqz	v0,4037e4 <env_free+0x15c>
  4037d8:	ae62009c 	sw	v0,156(s3)
  4037dc:	2663009c 	addiu	v1,s3,156
  4037e0:	ac4300a0 	sw	v1,160(v0)
  4037e4:	3c020042 	lui	v0,0x42
  4037e8:	ac53574c 	sw	s3,22348(v0)
  4037ec:	2442574c 	addiu	v0,v0,22348
  4037f0:	ae6200a0 	sw	v0,160(s3)
  4037f4:	8e6200b8 	lw	v0,184(s3)
  4037f8:	50400004 	beqzl	v0,40380c <env_free+0x184>
  4037fc:	8e6200bc 	lw	v0,188(s3)
  403800:	8e6300bc 	lw	v1,188(s3)
  403804:	ac4300bc 	sw	v1,188(v0)
  403808:	8e6200bc 	lw	v0,188(s3)
  40380c:	8e6300b8 	lw	v1,184(s3)
  403810:	ac430000 	sw	v1,0(v0)
  403814:	8fbf003c 	lw	ra,60(sp)
  403818:	8fbe0038 	lw	s8,56(sp)
  40381c:	8fb70034 	lw	s7,52(sp)
  403820:	8fb60030 	lw	s6,48(sp)
  403824:	8fb5002c 	lw	s5,44(sp)
  403828:	8fb40028 	lw	s4,40(sp)
  40382c:	8fb30024 	lw	s3,36(sp)
  403830:	8fb20020 	lw	s2,32(sp)
  403834:	8fb1001c 	lw	s1,28(sp)
  403838:	8fb00018 	lw	s0,24(sp)
  40383c:	03e00008 	jr	ra
  403840:	27bd0040 	addiu	sp,sp,64

00403844 <env_destroy>:
  403844:	27bdffe8 	addiu	sp,sp,-24
  403848:	afbf0014 	sw	ra,20(sp)
  40384c:	afb00010 	sw	s0,16(sp)
  403850:	0c100da2 	jal	403688 <env_free>
  403854:	00808025 	move	s0,a0
  403858:	3c020042 	lui	v0,0x42
  40385c:	8c425740 	lw	v0,22336(v0)
  403860:	12020005 	beq	s0,v0,403878 <env_destroy+0x34>
  403864:	3c020042 	lui	v0,0x42
  403868:	8fbf0014 	lw	ra,20(sp)
  40386c:	8fb00010 	lw	s0,16(sp)
  403870:	03e00008 	jr	ra
  403874:	27bd0018 	addiu	sp,sp,24
  403878:	ac405740 	sw	zero,22336(v0)
  40387c:	3c020042 	lui	v0,0x42
  403880:	8c44b638 	lw	a0,-18888(v0)
  403884:	2406009c 	li	a2,156
  403888:	3c0581ff 	lui	a1,0x81ff
  40388c:	34a5ff64 	ori	a1,a1,0xff64
  403890:	0c102468 	jal	4091a0 <bcopy>
  403894:	2484ff64 	addiu	a0,a0,-156
  403898:	3c040042 	lui	a0,0x42
  40389c:	0c10122b 	jal	4048ac <printf>
  4038a0:	2484c1d0 	addiu	a0,a0,-15920
  4038a4:	3c020042 	lui	v0,0x42
  4038a8:	0c1012aa 	jal	404aa8 <sched_yield>
  4038ac:	ac405d70 	sw	zero,23920(v0)
  4038b0:	1000ffee 	b	40386c <env_destroy+0x28>
  4038b4:	8fbf0014 	lw	ra,20(sp)

004038b8 <env_run>:
  4038b8:	27bdffe0 	addiu	sp,sp,-32
  4038bc:	afbf001c 	sw	ra,28(sp)
  4038c0:	afb10018 	sw	s1,24(sp)
  4038c4:	afb00014 	sw	s0,20(sp)
  4038c8:	3c020042 	lui	v0,0x42
  4038cc:	8c455740 	lw	a1,22336(v0)
  4038d0:	10a0000a 	beqz	a1,4038fc <env_run+0x44>
  4038d4:	00808025 	move	s0,a0
  4038d8:	2406009c 	li	a2,156
  4038dc:	3c1181ff 	lui	s1,0x81ff
  4038e0:	0c102468 	jal	4091a0 <bcopy>
  4038e4:	3624ff64 	ori	a0,s1,0xff64
  4038e8:	3631ff64 	ori	s1,s1,0xff64
  4038ec:	8e230094 	lw	v1,148(s1)
  4038f0:	3c020042 	lui	v0,0x42
  4038f4:	8c425740 	lw	v0,22336(v0)
  4038f8:	ac430098 	sw	v1,152(v0)
  4038fc:	3c110042 	lui	s1,0x42
  403900:	ae305740 	sw	s0,22336(s1)
  403904:	8e0200e0 	lw	v0,224(s0)
  403908:	24420001 	addiu	v0,v0,1
  40390c:	ae0200e0 	sw	v0,224(s0)
  403910:	0c102ca9 	jal	40b2a4 <lcontext>
  403914:	8e0400b0 	lw	a0,176(s0)
  403918:	8e245740 	lw	a0,22336(s1)
  40391c:	8c8500a4 	lw	a1,164(a0)
  403920:	00052ac2 	srl	a1,a1,0xb
  403924:	8c8600e8 	lw	a2,232(a0)
  403928:	0c102c7d 	jal	40b1f4 <env_pop_tf>
  40392c:	00052980 	sll	a1,a1,0x6
  403930:	8fbf001c 	lw	ra,28(sp)
  403934:	8fb10018 	lw	s1,24(sp)
  403938:	8fb00014 	lw	s0,20(sp)
  40393c:	03e00008 	jr	ra
  403940:	27bd0020 	addiu	sp,sp,32

00403944 <env_check>:
  403944:	27bdffd8 	addiu	sp,sp,-40
  403948:	afbf0024 	sw	ra,36(sp)
  40394c:	afb00020 	sw	s0,32(sp)
  403950:	afa00014 	sw	zero,20(sp)
  403954:	afa00018 	sw	zero,24(sp)
  403958:	afa0001c 	sw	zero,28(sp)
  40395c:	00002825 	move	a1,zero
  403960:	0c100cfd 	jal	4033f4 <env_alloc>
  403964:	27a40014 	addiu	a0,sp,20
  403968:	1440008f 	bnez	v0,403ba8 <env_check+0x264>
  40396c:	00002825 	move	a1,zero
  403970:	0c100cfd 	jal	4033f4 <env_alloc>
  403974:	27a40018 	addiu	a0,sp,24
  403978:	14400093 	bnez	v0,403bc8 <env_check+0x284>
  40397c:	00002825 	move	a1,zero
  403980:	0c100cfd 	jal	4033f4 <env_alloc>
  403984:	27a4001c 	addiu	a0,sp,28
  403988:	14400097 	bnez	v0,403be8 <env_check+0x2a4>
  40398c:	8fa30014 	lw	v1,20(sp)
  403990:	1060009d 	beqz	v1,403c08 <env_check+0x2c4>
  403994:	8fa20018 	lw	v0,24(sp)
  403998:	104000a3 	beqz	v0,403c28 <env_check+0x2e4>
  40399c:	3c070042 	lui	a3,0x42
  4039a0:	106200a2 	beq	v1,v0,403c2c <env_check+0x2e8>
  4039a4:	24e7c244 	addiu	a3,a3,-15804
  4039a8:	8fa4001c 	lw	a0,28(sp)
  4039ac:	108000a5 	beqz	a0,403c44 <env_check+0x300>
  4039b0:	3c070042 	lui	a3,0x42
  4039b4:	504400a4 	beql	v0,a0,403c48 <env_check+0x304>
  4039b8:	24e7c258 	addiu	a3,a3,-15784
  4039bc:	106400a1 	beq	v1,a0,403c44 <env_check+0x300>
  4039c0:	3c020042 	lui	v0,0x42
  4039c4:	8c50574c 	lw	s0,22348(v0)
  4039c8:	ac40574c 	sw	zero,22348(v0)
  4039cc:	00002825 	move	a1,zero
  4039d0:	0c100cfd 	jal	4033f4 <env_alloc>
  4039d4:	27a40010 	addiu	a0,sp,16
  4039d8:	2403fffb 	li	v1,-5
  4039dc:	144300a0 	bne	v0,v1,403c60 <env_check+0x31c>
  4039e0:	3c020042 	lui	v0,0x42
  4039e4:	ac50574c 	sw	s0,22348(v0)
  4039e8:	8fa20014 	lw	v0,20(sp)
  4039ec:	8c4500a4 	lw	a1,164(v0)
  4039f0:	3c040042 	lui	a0,0x42
  4039f4:	0c10122b 	jal	4048ac <printf>
  4039f8:	2484c29c 	addiu	a0,a0,-15716
  4039fc:	8fa20018 	lw	v0,24(sp)
  403a00:	8c4500a4 	lw	a1,164(v0)
  403a04:	3c040042 	lui	a0,0x42
  403a08:	0c10122b 	jal	4048ac <printf>
  403a0c:	2484c2ac 	addiu	a0,a0,-15700
  403a10:	8fa2001c 	lw	v0,28(sp)
  403a14:	8c4500a4 	lw	a1,164(v0)
  403a18:	3c040042 	lui	a0,0x42
  403a1c:	0c10122b 	jal	4048ac <printf>
  403a20:	2484c2bc 	addiu	a0,a0,-15684
  403a24:	8fa20014 	lw	v0,20(sp)
  403a28:	8c4300a4 	lw	v1,164(v0)
  403a2c:	24020800 	li	v0,2048
  403a30:	14620093 	bne	v1,v0,403c80 <env_check+0x33c>
  403a34:	8fa20018 	lw	v0,24(sp)
  403a38:	8c4300a4 	lw	v1,164(v0)
  403a3c:	24021001 	li	v0,4097
  403a40:	14620097 	bne	v1,v0,403ca0 <env_check+0x35c>
  403a44:	8fa2001c 	lw	v0,28(sp)
  403a48:	8c4300a4 	lw	v1,164(v0)
  403a4c:	24021802 	li	v0,6146
  403a50:	1462009b 	bne	v1,v0,403cc0 <env_check+0x37c>
  403a54:	3c070042 	lui	a3,0x42
  403a58:	3c040042 	lui	a0,0x42
  403a5c:	0c10122b 	jal	4048ac <printf>
  403a60:	2484c308 	addiu	a0,a0,-15608
  403a64:	8fa2001c 	lw	v0,28(sp)
  403a68:	ac4000ac 	sw	zero,172(v0)
  403a6c:	00003025 	move	a2,zero
  403a70:	27a50010 	addiu	a1,sp,16
  403a74:	0c100cb7 	jal	4032dc <envid2env>
  403a78:	8c4400a4 	lw	a0,164(v0)
  403a7c:	8fa30010 	lw	v1,16(sp)
  403a80:	14600096 	bnez	v1,403cdc <env_check+0x398>
  403a84:	2403fffe 	li	v1,-2
  403a88:	14430094 	bne	v0,v1,403cdc <env_check+0x398>
  403a8c:	8fa2001c 	lw	v0,28(sp)
  403a90:	24030001 	li	v1,1
  403a94:	ac4300ac 	sw	v1,172(v0)
  403a98:	00003025 	move	a2,zero
  403a9c:	27a50010 	addiu	a1,sp,16
  403aa0:	0c100cb7 	jal	4032dc <envid2env>
  403aa4:	8c4400a4 	lw	a0,164(v0)
  403aa8:	8fa30010 	lw	v1,16(sp)
  403aac:	8c6400a4 	lw	a0,164(v1)
  403ab0:	8fa3001c 	lw	v1,28(sp)
  403ab4:	8c6300a4 	lw	v1,164(v1)
  403ab8:	14830090 	bne	a0,v1,403cfc <env_check+0x3b8>
  403abc:	3c070042 	lui	a3,0x42
  403ac0:	1440008e 	bnez	v0,403cfc <env_check+0x3b8>
  403ac4:	3c020042 	lui	v0,0x42
  403ac8:	8c505740 	lw	s0,22336(v0)
  403acc:	8fa30014 	lw	v1,20(sp)
  403ad0:	ac435740 	sw	v1,22336(v0)
  403ad4:	24060001 	li	a2,1
  403ad8:	0c100cb7 	jal	4032dc <envid2env>
  403adc:	27a50010 	addiu	a1,sp,16
  403ae0:	8fa30010 	lw	v1,16(sp)
  403ae4:	1460008c 	bnez	v1,403d18 <env_check+0x3d4>
  403ae8:	2403fffe 	li	v1,-2
  403aec:	1443008a 	bne	v0,v1,403d18 <env_check+0x3d4>
  403af0:	3c020042 	lui	v0,0x42
  403af4:	ac505740 	sw	s0,22336(v0)
  403af8:	3c040042 	lui	a0,0x42
  403afc:	0c10122b 	jal	4048ac <printf>
  403b00:	2484c360 	addiu	a0,a0,-15520
  403b04:	8fa20018 	lw	v0,24(sp)
  403b08:	8c4500b0 	lw	a1,176(v0)
  403b0c:	3c040042 	lui	a0,0x42
  403b10:	0c10122b 	jal	4048ac <printf>
  403b14:	2484c378 	addiu	a0,a0,-15496
  403b18:	8fa20018 	lw	v0,24(sp)
  403b1c:	8c4500b4 	lw	a1,180(v0)
  403b20:	3c040042 	lui	a0,0x42
  403b24:	0c10122b 	jal	4048ac <printf>
  403b28:	2484c38c 	addiu	a0,a0,-15476
  403b2c:	8fa2001c 	lw	v0,28(sp)
  403b30:	8c4200b0 	lw	v0,176(v0)
  403b34:	3c030042 	lui	v1,0x42
  403b38:	8c635df8 	lw	v1,24056(v1)
  403b3c:	8c4407f4 	lw	a0,2036(v0)
  403b40:	8c6307f4 	lw	v1,2036(v1)
  403b44:	1483007c 	bne	a0,v1,403d38 <env_check+0x3f4>
  403b48:	3c070042 	lui	a3,0x42
  403b4c:	8c4207f0 	lw	v0,2032(v0)
  403b50:	14400080 	bnez	v0,403d54 <env_check+0x410>
  403b54:	3c070042 	lui	a3,0x42
  403b58:	3c040042 	lui	a0,0x42
  403b5c:	0c10122b 	jal	4048ac <printf>
  403b60:	2484c3f8 	addiu	a0,a0,-15368
  403b64:	8fa3001c 	lw	v1,28(sp)
  403b68:	8c640080 	lw	a0,128(v1)
  403b6c:	3c021000 	lui	v0,0x1000
  403b70:	24421004 	addiu	v0,v0,4100
  403b74:	1482007e 	bne	a0,v0,403d70 <env_check+0x42c>
  403b78:	3c070042 	lui	a3,0x42
  403b7c:	8c650074 	lw	a1,116(v1)
  403b80:	3c040042 	lui	a0,0x42
  403b84:	0c10122b 	jal	4048ac <printf>
  403b88:	2484c438 	addiu	a0,a0,-15304
  403b8c:	3c040042 	lui	a0,0x42
  403b90:	0c10122b 	jal	4048ac <printf>
  403b94:	2484c450 	addiu	a0,a0,-15280
  403b98:	8fbf0024 	lw	ra,36(sp)
  403b9c:	8fb00020 	lw	s0,32(sp)
  403ba0:	03e00008 	jr	ra
  403ba4:	27bd0028 	addiu	sp,sp,40
  403ba8:	3c070042 	lui	a3,0x42
  403bac:	24e7c1e4 	addiu	a3,a3,-15900
  403bb0:	3c060042 	lui	a2,0x42
  403bb4:	24c6c1fc 	addiu	a2,a2,-15876
  403bb8:	24050203 	li	a1,515
  403bbc:	3c040042 	lui	a0,0x42
  403bc0:	0c10123f 	jal	4048fc <_panic>
  403bc4:	2484c13c 	addiu	a0,a0,-16068
  403bc8:	3c070042 	lui	a3,0x42
  403bcc:	24e7c214 	addiu	a3,a3,-15852
  403bd0:	3c060042 	lui	a2,0x42
  403bd4:	24c6c1fc 	addiu	a2,a2,-15876
  403bd8:	24050204 	li	a1,516
  403bdc:	3c040042 	lui	a0,0x42
  403be0:	0c10123f 	jal	4048fc <_panic>
  403be4:	2484c13c 	addiu	a0,a0,-16068
  403be8:	3c070042 	lui	a3,0x42
  403bec:	24e7c22c 	addiu	a3,a3,-15828
  403bf0:	3c060042 	lui	a2,0x42
  403bf4:	24c6c1fc 	addiu	a2,a2,-15876
  403bf8:	24050205 	li	a1,517
  403bfc:	3c040042 	lui	a0,0x42
  403c00:	0c10123f 	jal	4048fc <_panic>
  403c04:	2484c13c 	addiu	a0,a0,-16068
  403c08:	3c070042 	lui	a3,0x42
  403c0c:	24e7c274 	addiu	a3,a3,-15756
  403c10:	3c060042 	lui	a2,0x42
  403c14:	24c6c1fc 	addiu	a2,a2,-15876
  403c18:	24050207 	li	a1,519
  403c1c:	3c040042 	lui	a0,0x42
  403c20:	0c10123f 	jal	4048fc <_panic>
  403c24:	2484c13c 	addiu	a0,a0,-16068
  403c28:	24e7c244 	addiu	a3,a3,-15804
  403c2c:	3c060042 	lui	a2,0x42
  403c30:	24c6c1fc 	addiu	a2,a2,-15876
  403c34:	24050208 	li	a1,520
  403c38:	3c040042 	lui	a0,0x42
  403c3c:	0c10123f 	jal	4048fc <_panic>
  403c40:	2484c13c 	addiu	a0,a0,-16068
  403c44:	24e7c258 	addiu	a3,a3,-15784
  403c48:	3c060042 	lui	a2,0x42
  403c4c:	24c6c1fc 	addiu	a2,a2,-15876
  403c50:	24050209 	li	a1,521
  403c54:	3c040042 	lui	a0,0x42
  403c58:	0c10123f 	jal	4048fc <_panic>
  403c5c:	2484c13c 	addiu	a0,a0,-16068
  403c60:	3c070042 	lui	a3,0x42
  403c64:	24e7c278 	addiu	a3,a3,-15752
  403c68:	3c060042 	lui	a2,0x42
  403c6c:	24c6c1fc 	addiu	a2,a2,-15876
  403c70:	24050211 	li	a1,529
  403c74:	3c040042 	lui	a0,0x42
  403c78:	0c10123f 	jal	4048fc <_panic>
  403c7c:	2484c13c 	addiu	a0,a0,-16068
  403c80:	3c070042 	lui	a3,0x42
  403c84:	24e7c2cc 	addiu	a3,a3,-15668
  403c88:	3c060042 	lui	a2,0x42
  403c8c:	24c6c1fc 	addiu	a2,a2,-15876
  403c90:	2405021a 	li	a1,538
  403c94:	3c040042 	lui	a0,0x42
  403c98:	0c10123f 	jal	4048fc <_panic>
  403c9c:	2484c13c 	addiu	a0,a0,-16068
  403ca0:	3c070042 	lui	a3,0x42
  403ca4:	24e7c2e0 	addiu	a3,a3,-15648
  403ca8:	3c060042 	lui	a2,0x42
  403cac:	24c6c1fc 	addiu	a2,a2,-15876
  403cb0:	2405021b 	li	a1,539
  403cb4:	3c040042 	lui	a0,0x42
  403cb8:	0c10123f 	jal	4048fc <_panic>
  403cbc:	2484c13c 	addiu	a0,a0,-16068
  403cc0:	24e7c2f4 	addiu	a3,a3,-15628
  403cc4:	3c060042 	lui	a2,0x42
  403cc8:	24c6c1fc 	addiu	a2,a2,-15876
  403ccc:	2405021c 	li	a1,540
  403cd0:	3c040042 	lui	a0,0x42
  403cd4:	0c10123f 	jal	4048fc <_panic>
  403cd8:	2484c13c 	addiu	a0,a0,-16068
  403cdc:	3c070042 	lui	a3,0x42
  403ce0:	24e7c320 	addiu	a3,a3,-15584
  403ce4:	3c060042 	lui	a2,0x42
  403ce8:	24c6c1fc 	addiu	a2,a2,-15876
  403cec:	24050223 	li	a1,547
  403cf0:	3c040042 	lui	a0,0x42
  403cf4:	0c10123f 	jal	4048fc <_panic>
  403cf8:	2484c13c 	addiu	a0,a0,-16068
  403cfc:	24e7c33c 	addiu	a3,a3,-15556
  403d00:	3c060042 	lui	a2,0x42
  403d04:	24c6c1fc 	addiu	a2,a2,-15876
  403d08:	24050228 	li	a1,552
  403d0c:	3c040042 	lui	a0,0x42
  403d10:	0c10123f 	jal	4048fc <_panic>
  403d14:	2484c13c 	addiu	a0,a0,-16068
  403d18:	3c070042 	lui	a3,0x42
  403d1c:	24e7c320 	addiu	a3,a3,-15584
  403d20:	3c060042 	lui	a2,0x42
  403d24:	24c6c1fc 	addiu	a2,a2,-15876
  403d28:	2405022d 	li	a1,557
  403d2c:	3c040042 	lui	a0,0x42
  403d30:	0c10123f 	jal	4048fc <_panic>
  403d34:	2484c13c 	addiu	a0,a0,-16068
  403d38:	24e7c3a0 	addiu	a3,a3,-15456
  403d3c:	3c060042 	lui	a2,0x42
  403d40:	24c6c1fc 	addiu	a2,a2,-15876
  403d44:	24050235 	li	a1,565
  403d48:	3c040042 	lui	a0,0x42
  403d4c:	0c10123f 	jal	4048fc <_panic>
  403d50:	2484c13c 	addiu	a0,a0,-16068
  403d54:	24e7c3d4 	addiu	a3,a3,-15404
  403d58:	3c060042 	lui	a2,0x42
  403d5c:	24c6c1fc 	addiu	a2,a2,-15876
  403d60:	24050236 	li	a1,566
  403d64:	3c040042 	lui	a0,0x42
  403d68:	0c10123f 	jal	4048fc <_panic>
  403d6c:	2484c13c 	addiu	a0,a0,-16068
  403d70:	24e7c410 	addiu	a3,a3,-15344
  403d74:	3c060042 	lui	a2,0x42
  403d78:	24c6c1fc 	addiu	a2,a2,-15876
  403d7c:	24050239 	li	a1,569
  403d80:	3c040042 	lui	a0,0x42
  403d84:	0c10123f 	jal	4048fc <_panic>
  403d88:	2484c13c 	addiu	a0,a0,-16068

00403d8c <env_va_translate>:
  403d8c:	03e00008 	jr	ra
  403d90:	00000000 	nop

00403d94 <kclock_init>:
  403d94:	27bdffe8 	addiu	sp,sp,-24
  403d98:	afbf0014 	sw	ra,20(sp)
  403d9c:	0c102e6f 	jal	40b9bc <set_timer>
  403da0:	00000000 	nop
  403da4:	8fbf0014 	lw	ra,20(sp)
  403da8:	03e00008 	jr	ra
  403dac:	27bd0018 	addiu	sp,sp,24

00403db0 <is_elf_format>:
  403db0:	8c820000 	lw	v0,0(a0)
  403db4:	3c03fcfd 	lui	v1,0xfcfd
  403db8:	3463ff00 	ori	v1,v1,0xff00
  403dbc:	00431021 	addu	v0,v0,v1
  403dc0:	03e00008 	jr	ra
  403dc4:	0002102b 	sltu	v0,zero,v0

00403dc8 <load_elf>:
  403dc8:	27bdffb8 	addiu	sp,sp,-72
  403dcc:	afbf0044 	sw	ra,68(sp)
  403dd0:	afbe0040 	sw	s8,64(sp)
  403dd4:	afb7003c 	sw	s7,60(sp)
  403dd8:	afb60038 	sw	s6,56(sp)
  403ddc:	afb50034 	sw	s5,52(sp)
  403de0:	afb40030 	sw	s4,48(sp)
  403de4:	afb3002c 	sw	s3,44(sp)
  403de8:	afb20028 	sw	s2,40(sp)
  403dec:	afb10024 	sw	s1,36(sp)
  403df0:	28a50004 	slti	a1,a1,4
  403df4:	14a00045 	bnez	a1,403f0c <load_elf+0x144>
  403df8:	afb00020 	sw	s0,32(sp)
  403dfc:	8c830000 	lw	v1,0(a0)
  403e00:	3c020302 	lui	v0,0x302
  403e04:	24420100 	addiu	v0,v0,256
  403e08:	10620042 	beq	v1,v0,403f14 <load_elf+0x14c>
  403e0c:	00e0b025 	move	s6,a3
  403e10:	afa60018 	sw	a2,24(sp)
  403e14:	0080a025 	move	s4,a0
  403e18:	8c91001c 	lw	s1,28(a0)
  403e1c:	00918821 	addu	s1,a0,s1
  403e20:	9492002c 	lhu	s2,44(a0)
  403e24:	9493002a 	lhu	s3,42(a0)
  403e28:	3c040042 	lui	a0,0x42
  403e2c:	0c10122b 	jal	4048ac <printf>
  403e30:	2484c468 	addiu	a0,a0,-15256
  403e34:	2650ffff 	addiu	s0,s2,-1
  403e38:	12400023 	beqz	s2,403ec8 <load_elf+0x100>
  403e3c:	3210ffff 	andi	s0,s0,0xffff
  403e40:	3c120042 	lui	s2,0x42
  403e44:	2652c488 	addiu	s2,s2,-15224
  403e48:	3c1e0042 	lui	s8,0x42
  403e4c:	27dec4a8 	addiu	s8,s8,-15192
  403e50:	3c170042 	lui	s7,0x42
  403e54:	10000005 	b	403e6c <load_elf+0xa4>
  403e58:	26f7c4dc 	addiu	s7,s7,-15140
  403e5c:	3210ffff 	andi	s0,s0,0xffff
  403e60:	3402ffff 	li	v0,0xffff
  403e64:	12020018 	beq	s0,v0,403ec8 <load_elf+0x100>
  403e68:	02338821 	addu	s1,s1,s3
  403e6c:	0c10122b 	jal	4048ac <printf>
  403e70:	02402025 	move	a0,s2
  403e74:	8e230000 	lw	v1,0(s1)
  403e78:	24020001 	li	v0,1
  403e7c:	5462fff7 	bnel	v1,v0,403e5c <load_elf+0x94>
  403e80:	2610ffff 	addiu	s0,s0,-1
  403e84:	0c10122b 	jal	4048ac <printf>
  403e88:	03c02025 	move	a0,s8
  403e8c:	8e260004 	lw	a2,4(s1)
  403e90:	afb60010 	sw	s6,16(sp)
  403e94:	8e270010 	lw	a3,16(s1)
  403e98:	02863021 	addu	a2,s4,a2
  403e9c:	8e250014 	lw	a1,20(s1)
  403ea0:	8fa20058 	lw	v0,88(sp)
  403ea4:	0040f809 	jalr	v0
  403ea8:	8e240008 	lw	a0,8(s1)
  403eac:	0040a825 	move	s5,v0
  403eb0:	0c10122b 	jal	4048ac <printf>
  403eb4:	02e02025 	move	a0,s7
  403eb8:	06a1ffe8 	bgez	s5,403e5c <load_elf+0x94>
  403ebc:	2610ffff 	addiu	s0,s0,-1
  403ec0:	10000006 	b	403edc <load_elf+0x114>
  403ec4:	02a01025 	move	v0,s5
  403ec8:	8e820018 	lw	v0,24(s4)
  403ecc:	8fa30018 	lw	v1,24(sp)
  403ed0:	ac620000 	sw	v0,0(v1)
  403ed4:	0000a825 	move	s5,zero
  403ed8:	02a01025 	move	v0,s5
  403edc:	8fbf0044 	lw	ra,68(sp)
  403ee0:	8fbe0040 	lw	s8,64(sp)
  403ee4:	8fb7003c 	lw	s7,60(sp)
  403ee8:	8fb60038 	lw	s6,56(sp)
  403eec:	8fb50034 	lw	s5,52(sp)
  403ef0:	8fb40030 	lw	s4,48(sp)
  403ef4:	8fb3002c 	lw	s3,44(sp)
  403ef8:	8fb20028 	lw	s2,40(sp)
  403efc:	8fb10024 	lw	s1,36(sp)
  403f00:	8fb00020 	lw	s0,32(sp)
  403f04:	03e00008 	jr	ra
  403f08:	27bd0048 	addiu	sp,sp,72
  403f0c:	1000fff2 	b	403ed8 <load_elf+0x110>
  403f10:	2415ffff 	li	s5,-1
  403f14:	1000fff0 	b	403ed8 <load_elf+0x110>
  403f18:	2415ffff 	li	s5,-1

00403f1c <PrintChar>:
  403f1c:	0006102a 	slt	v0,zero,a2
  403f20:	24030001 	li	v1,1
  403f24:	00c2180b 	movn	v1,a2,v0
  403f28:	14e0000f 	bnez	a3,403f68 <PrintChar+0x4c>
  403f2c:	00601025 	move	v0,v1
  403f30:	2463ffff 	addiu	v1,v1,-1
  403f34:	5860000a 	blezl	v1,403f60 <PrintChar+0x44>
  403f38:	00822021 	addu	a0,a0,v0
  403f3c:	00801825 	move	v1,a0
  403f40:	2447ffff 	addiu	a3,v0,-1
  403f44:	00873821 	addu	a3,a0,a3
  403f48:	24060020 	li	a2,32
  403f4c:	a0660000 	sb	a2,0(v1)
  403f50:	24630001 	addiu	v1,v1,1
  403f54:	5467fffe 	bnel	v1,a3,403f50 <PrintChar+0x34>
  403f58:	a0660000 	sb	a2,0(v1)
  403f5c:	00822021 	addu	a0,a0,v0
  403f60:	03e00008 	jr	ra
  403f64:	a085ffff 	sb	a1,-1(a0)
  403f68:	28630002 	slti	v1,v1,2
  403f6c:	14600008 	bnez	v1,403f90 <PrintChar+0x74>
  403f70:	a0850000 	sb	a1,0(a0)
  403f74:	24830001 	addiu	v1,a0,1
  403f78:	00822021 	addu	a0,a0,v0
  403f7c:	24050020 	li	a1,32
  403f80:	a0650000 	sb	a1,0(v1)
  403f84:	24630001 	addiu	v1,v1,1
  403f88:	5483fffe 	bnel	a0,v1,403f84 <PrintChar+0x68>
  403f8c:	a0650000 	sb	a1,0(v1)
  403f90:	03e00008 	jr	ra
  403f94:	00000000 	nop

00403f98 <PrintString>:
  403f98:	90a20000 	lbu	v0,0(a1)
  403f9c:	10400039 	beqz	v0,404084 <PrintString+0xec>
  403fa0:	24a30001 	addiu	v1,a1,1
  403fa4:	00a04825 	move	t1,a1
  403fa8:	00655023 	subu	t2,v1,a1
  403fac:	24630001 	addiu	v1,v1,1
  403fb0:	906bffff 	lbu	t3,-1(v1)
  403fb4:	1560fffc 	bnez	t3,403fa8 <PrintString+0x10>
  403fb8:	01404025 	move	t0,t2
  403fbc:	00ca102a 	slt	v0,a2,t2
  403fc0:	0142300b 	movn	a2,t2,v0
  403fc4:	14e00019 	bnez	a3,40402c <PrintString+0x94>
  403fc8:	00c01025 	move	v0,a2
  403fcc:	00ca1823 	subu	v1,a2,t2
  403fd0:	18600009 	blez	v1,403ff8 <PrintString+0x60>
  403fd4:	0062302a 	slt	a2,v1,v0
  403fd8:	00803825 	move	a3,a0
  403fdc:	00834821 	addu	t1,a0,v1
  403fe0:	24060020 	li	a2,32
  403fe4:	a0e60000 	sb	a2,0(a3)
  403fe8:	24e70001 	addiu	a3,a3,1
  403fec:	54e9fffe 	bnel	a3,t1,403fe8 <PrintString+0x50>
  403ff0:	a0e60000 	sb	a2,0(a3)
  403ff4:	0062302a 	slt	a2,v1,v0
  403ff8:	10c0000a 	beqz	a2,404024 <PrintString+0x8c>
  403ffc:	00623023 	subu	a2,v1,v0
  404000:	00c84021 	addu	t0,a2,t0
  404004:	00a82821 	addu	a1,a1,t0
  404008:	00831821 	addu	v1,a0,v1
  40400c:	00822021 	addu	a0,a0,v0
  404010:	90a70000 	lbu	a3,0(a1)
  404014:	a0670000 	sb	a3,0(v1)
  404018:	24630001 	addiu	v1,v1,1
  40401c:	1464fffc 	bne	v1,a0,404010 <PrintString+0x78>
  404020:	24a50001 	addiu	a1,a1,1
  404024:	03e00008 	jr	ra
  404028:	00000000 	nop
  40402c:	19400008 	blez	t2,404050 <PrintString+0xb8>
  404030:	01201825 	move	v1,t1
  404034:	00803825 	move	a3,a0
  404038:	00aa2821 	addu	a1,a1,t2
  40403c:	90690000 	lbu	t1,0(v1)
  404040:	a0e90000 	sb	t1,0(a3)
  404044:	24630001 	addiu	v1,v1,1
  404048:	14a3fffc 	bne	a1,v1,40403c <PrintString+0xa4>
  40404c:	24e70001 	addiu	a3,a3,1
  404050:	0102182a 	slt	v1,t0,v0
  404054:	1060fff3 	beqz	v1,404024 <PrintString+0x8c>
  404058:	00881821 	addu	v1,a0,t0
  40405c:	00822021 	addu	a0,a0,v0
  404060:	24050020 	li	a1,32
  404064:	a0650000 	sb	a1,0(v1)
  404068:	24630001 	addiu	v1,v1,1
  40406c:	5483fffe 	bnel	a0,v1,404068 <PrintString+0xd0>
  404070:	a0650000 	sb	a1,0(v1)
  404074:	03e00008 	jr	ra
  404078:	00000000 	nop
  40407c:	1000fff4 	b	404050 <PrintString+0xb8>
  404080:	00004025 	move	t0,zero
  404084:	28c20000 	slti	v0,a2,0
  404088:	0002300b 	movn	a2,zero,v0
  40408c:	14e0fffb 	bnez	a3,40407c <PrintString+0xe4>
  404090:	00c01025 	move	v0,a2
  404094:	00c01825 	move	v1,a2
  404098:	1cc0ffcf 	bgtz	a2,403fd8 <PrintString+0x40>
  40409c:	00e04025 	move	t0,a3
  4040a0:	03e00008 	jr	ra
  4040a4:	00000000 	nop

004040a8 <PrintNum>:
  4040a8:	8fa20010 	lw	v0,16(sp)
  4040ac:	8fad0014 	lw	t5,20(sp)
  4040b0:	93ac0018 	lbu	t4,24(sp)
  4040b4:	8fab001c 	lw	t3,28(sp)
  4040b8:	24890001 	addiu	t1,a0,1
  4040bc:	1000000a 	b	4040e8 <PrintNum+0x40>
  4040c0:	00c05025 	move	t2,a2
  4040c4:	51600011 	beqzl	t3,40410c <PrintNum+0x64>
  4040c8:	25080057 	addiu	t0,t0,87
  4040cc:	25080037 	addiu	t0,t0,55
  4040d0:	a128ffff 	sb	t0,-1(t1)
  4040d4:	00aa001b 	divu	zero,a1,t2
  4040d8:	014001f4 	teq	t2,zero,0x7
  4040dc:	00002812 	mflo	a1
  4040e0:	10a0000c 	beqz	a1,404114 <PrintNum+0x6c>
  4040e4:	25290001 	addiu	t1,t1,1
  4040e8:	00a6001b 	divu	zero,a1,a2
  4040ec:	00c001f4 	teq	a2,zero,0x7
  4040f0:	00004010 	mfhi	t0
  4040f4:	2903000a 	slti	v1,t0,10
  4040f8:	1060fff2 	beqz	v1,4040c4 <PrintNum+0x1c>
  4040fc:	01201825 	move	v1,t1
  404100:	25080030 	addiu	t0,t0,48
  404104:	1000fff3 	b	4040d4 <PrintNum+0x2c>
  404108:	a128ffff 	sb	t0,-1(t1)
  40410c:	1000fff1 	b	4040d4 <PrintNum+0x2c>
  404110:	a128ffff 	sb	t0,-1(t1)
  404114:	50e0000f 	beqzl	a3,404154 <PrintNum+0xac>
  404118:	00641823 	subu	v1,v1,a0
  40411c:	2405002d 	li	a1,45
  404120:	a0650000 	sb	a1,0(v1)
  404124:	24630001 	addiu	v1,v1,1
  404128:	00641823 	subu	v1,v1,a0
  40412c:	0043282a 	slt	a1,v0,v1
  404130:	15a00041 	bnez	t5,404238 <PrintNum+0x190>
  404134:	0065100b 	movn	v0,v1,a1
  404138:	14e00028 	bnez	a3,4041dc <PrintNum+0x134>
  40413c:	24050030 	li	a1,48
  404140:	0062282a 	slt	a1,v1,v0
  404144:	54a0000b 	bnezl	a1,404174 <PrintNum+0xcc>
  404148:	00833021 	addu	a2,a0,v1
  40414c:	10000012 	b	404198 <PrintNum+0xf0>
  404150:	2443ffff 	addiu	v1,v0,-1
  404154:	0062282a 	slt	a1,v1,v0
  404158:	11a0fff7 	beqz	t5,404138 <PrintNum+0x90>
  40415c:	0065100a 	movz	v0,v1,a1
  404160:	14e00035 	bnez	a3,404238 <PrintNum+0x190>
  404164:	0062282a 	slt	a1,v1,v0
  404168:	10a0000a 	beqz	a1,404194 <PrintNum+0xec>
  40416c:	240c0020 	li	t4,32
  404170:	00833021 	addu	a2,a0,v1
  404174:	00602825 	move	a1,v1
  404178:	a0cc0000 	sb	t4,0(a2)
  40417c:	24a50001 	addiu	a1,a1,1
  404180:	00a2382a 	slt	a3,a1,v0
  404184:	14e0fffc 	bnez	a3,404178 <PrintNum+0xd0>
  404188:	24c60001 	addiu	a2,a2,1
  40418c:	51a00002 	beqzl	t5,404198 <PrintNum+0xf0>
  404190:	2443ffff 	addiu	v1,v0,-1
  404194:	2463ffff 	addiu	v1,v1,-1
  404198:	1860000e 	blez	v1,4041d4 <PrintNum+0x12c>
  40419c:	00802825 	move	a1,a0
  4041a0:	00604025 	move	t0,v1
  4041a4:	00832021 	addu	a0,a0,v1
  4041a8:	00001825 	move	v1,zero
  4041ac:	90a60000 	lbu	a2,0(a1)
  4041b0:	90870000 	lbu	a3,0(a0)
  4041b4:	a0a70000 	sb	a3,0(a1)
  4041b8:	a0860000 	sb	a2,0(a0)
  4041bc:	24630001 	addiu	v1,v1,1
  4041c0:	24a50001 	addiu	a1,a1,1
  4041c4:	01033023 	subu	a2,t0,v1
  4041c8:	0066302a 	slt	a2,v1,a2
  4041cc:	14c0fff7 	bnez	a2,4041ac <PrintNum+0x104>
  4041d0:	2484ffff 	addiu	a0,a0,-1
  4041d4:	03e00008 	jr	ra
  4041d8:	00000000 	nop
  4041dc:	11850005 	beq	t4,a1,4041f4 <PrintNum+0x14c>
  4041e0:	0062282a 	slt	a1,v1,v0
  4041e4:	54a0ffe3 	bnezl	a1,404174 <PrintNum+0xcc>
  4041e8:	00833021 	addu	a2,a0,v1
  4041ec:	1000ffea 	b	404198 <PrintNum+0xf0>
  4041f0:	2443ffff 	addiu	v1,v0,-1
  4041f4:	2465ffff 	addiu	a1,v1,-1
  4041f8:	2446ffff 	addiu	a2,v0,-1
  4041fc:	00a6282a 	slt	a1,a1,a2
  404200:	50a00009 	beqzl	a1,404228 <PrintNum+0x180>
  404204:	00821821 	addu	v1,a0,v0
  404208:	00831821 	addu	v1,a0,v1
  40420c:	00823021 	addu	a2,a0,v0
  404210:	24050030 	li	a1,48
  404214:	a065ffff 	sb	a1,-1(v1)
  404218:	24630001 	addiu	v1,v1,1
  40421c:	5466fffe 	bnel	v1,a2,404218 <PrintNum+0x170>
  404220:	a065ffff 	sb	a1,-1(v1)
  404224:	00821821 	addu	v1,a0,v0
  404228:	2405002d 	li	a1,45
  40422c:	a065ffff 	sb	a1,-1(v1)
  404230:	1000ffd9 	b	404198 <PrintNum+0xf0>
  404234:	2443ffff 	addiu	v1,v0,-1
  404238:	0062282a 	slt	a1,v1,v0
  40423c:	14a0ffcc 	bnez	a1,404170 <PrintNum+0xc8>
  404240:	240c0020 	li	t4,32
  404244:	1000ffd4 	b	404198 <PrintNum+0xf0>
  404248:	2463ffff 	addiu	v1,v1,-1

0040424c <lp_Print>:
  40424c:	27bdfbd8 	addiu	sp,sp,-1064
  404250:	afbf0424 	sw	ra,1060(sp)
  404254:	afb60420 	sw	s6,1056(sp)
  404258:	afb5041c 	sw	s5,1052(sp)
  40425c:	afb40418 	sw	s4,1048(sp)
  404260:	afb30414 	sw	s3,1044(sp)
  404264:	afb20410 	sw	s2,1040(sp)
  404268:	afb1040c 	sw	s1,1036(sp)
  40426c:	afb00408 	sw	s0,1032(sp)
  404270:	00809025 	move	s2,a0
  404274:	00a09825 	move	s3,a1
  404278:	00c08025 	move	s0,a2
  40427c:	00e08825 	move	s1,a3
  404280:	3c140042 	lui	s4,0x42
  404284:	2694ba2c 	addiu	s4,s4,-17876
  404288:	3c150042 	lui	s5,0x42
  40428c:	1000003a 	b	404378 <lp_Print+0x12c>
  404290:	26b5b848 	addiu	s5,s5,-18360
  404294:	24060018 	li	a2,24
  404298:	3c050042 	lui	a1,0x42
  40429c:	24a5bc10 	addiu	a1,a1,-17392
  4042a0:	0240f809 	jalr	s2
  4042a4:	02602025 	move	a0,s3
  4042a8:	1000ffff 	b	4042a8 <lp_Print+0x5c>
  4042ac:	00000000 	nop
  4042b0:	26100002 	addiu	s0,s0,2
  4042b4:	1000004b 	b	4043e4 <lp_Print+0x198>
  4042b8:	24070001 	li	a3,1
  4042bc:	10000049 	b	4043e4 <lp_Print+0x198>
  4042c0:	00003825 	move	a3,zero
  4042c4:	2442ffd0 	addiu	v0,v0,-48
  4042c8:	304200ff 	andi	v0,v0,0xff
  4042cc:	2c42000a 	sltiu	v0,v0,10
  4042d0:	1040000a 	beqz	v0,4042fc <lp_Print+0xb0>
  4042d4:	26030001 	addiu	v1,s0,1
  4042d8:	24630001 	addiu	v1,v1,1
  4042dc:	90620000 	lbu	v0,0(v1)
  4042e0:	2442ffd0 	addiu	v0,v0,-48
  4042e4:	304200ff 	andi	v0,v0,0xff
  4042e8:	2c42000a 	sltiu	v0,v0,10
  4042ec:	5440fffb 	bnezl	v0,4042dc <lp_Print+0x90>
  4042f0:	24630001 	addiu	v1,v1,1
  4042f4:	10000050 	b	404438 <lp_Print+0x1ec>
  4042f8:	00608025 	move	s0,v1
  4042fc:	1000004e 	b	404438 <lp_Print+0x1ec>
  404300:	00608025 	move	s0,v1
  404304:	92030001 	lbu	v1,1(s0)
  404308:	2c630079 	sltiu	v1,v1,121
  40430c:	10600133 	beqz	v1,4047dc <lp_Print+0x590>
  404310:	26020001 	addiu	v0,s0,1
  404314:	92030001 	lbu	v1,1(s0)
  404318:	00031880 	sll	v1,v1,0x2
  40431c:	02a31821 	addu	v1,s5,v1
  404320:	8c630000 	lw	v1,0(v1)
  404324:	00600008 	jr	v1
  404328:	00000000 	nop
  40432c:	8e250000 	lw	a1,0(s1)
  404330:	00408025 	move	s0,v0
  404334:	26310004 	addiu	s1,s1,4
  404338:	afa0001c 	sw	zero,28(sp)
  40433c:	24020030 	li	v0,48
  404340:	afa20018 	sw	v0,24(sp)
  404344:	afa70014 	sw	a3,20(sp)
  404348:	afa40010 	sw	a0,16(sp)
  40434c:	00003825 	move	a3,zero
  404350:	24060002 	li	a2,2
  404354:	0c10102a 	jal	4040a8 <PrintNum>
  404358:	27a40020 	addiu	a0,sp,32
  40435c:	2c4303e9 	sltiu	v1,v0,1001
  404360:	10600042 	beqz	v1,40446c <lp_Print+0x220>
  404364:	00403025 	move	a2,v0
  404368:	27a50020 	addiu	a1,sp,32
  40436c:	0240f809 	jalr	s2
  404370:	02602025 	move	a0,s3
  404374:	26100001 	addiu	s0,s0,1
  404378:	27a20020 	addiu	v0,sp,32
  40437c:	00003025 	move	a2,zero
  404380:	24040025 	li	a0,37
  404384:	92030000 	lbu	v1,0(s0)
  404388:	50640008 	beql	v1,a0,4043ac <lp_Print+0x160>
  40438c:	2cc203e9 	sltiu	v0,a2,1001
  404390:	a0430000 	sb	v1,0(v0)
  404394:	26100001 	addiu	s0,s0,1
  404398:	24c60001 	addiu	a2,a2,1
  40439c:	92030000 	lbu	v1,0(s0)
  4043a0:	1460fff9 	bnez	v1,404388 <lp_Print+0x13c>
  4043a4:	24420001 	addiu	v0,v0,1
  4043a8:	2cc203e9 	sltiu	v0,a2,1001
  4043ac:	1040ffb9 	beqz	v0,404294 <lp_Print+0x48>
  4043b0:	27a50020 	addiu	a1,sp,32
  4043b4:	0240f809 	jalr	s2
  4043b8:	02602025 	move	a0,s3
  4043bc:	92020000 	lbu	v0,0(s0)
  4043c0:	1040010d 	beqz	v0,4047f8 <lp_Print+0x5ac>
  4043c4:	2403002d 	li	v1,45
  4043c8:	92020001 	lbu	v0,1(s0)
  4043cc:	1043ffb8 	beq	v0,v1,4042b0 <lp_Print+0x64>
  4043d0:	24030030 	li	v1,48
  4043d4:	5043ffb9 	beql	v0,v1,4042bc <lp_Print+0x70>
  4043d8:	26100002 	addiu	s0,s0,2
  4043dc:	26100001 	addiu	s0,s0,1
  4043e0:	00003825 	move	a3,zero
  4043e4:	92030000 	lbu	v1,0(s0)
  4043e8:	2462ffd0 	addiu	v0,v1,-48
  4043ec:	304200ff 	andi	v0,v0,0xff
  4043f0:	2c42000a 	sltiu	v0,v0,10
  4043f4:	1040000d 	beqz	v0,40442c <lp_Print+0x1e0>
  4043f8:	00002025 	move	a0,zero
  4043fc:	00043080 	sll	a2,a0,0x2
  404400:	00c43021 	addu	a2,a2,a0
  404404:	00063040 	sll	a2,a2,0x1
  404408:	2463ffd0 	addiu	v1,v1,-48
  40440c:	00662021 	addu	a0,v1,a2
  404410:	26100001 	addiu	s0,s0,1
  404414:	92030000 	lbu	v1,0(s0)
  404418:	2462ffd0 	addiu	v0,v1,-48
  40441c:	304200ff 	andi	v0,v0,0xff
  404420:	2c42000a 	sltiu	v0,v0,10
  404424:	1440fff6 	bnez	v0,404400 <lp_Print+0x1b4>
  404428:	00043080 	sll	a2,a0,0x2
  40442c:	2402002e 	li	v0,46
  404430:	5062ffa4 	beql	v1,v0,4042c4 <lp_Print+0x78>
  404434:	92020001 	lbu	v0,1(s0)
  404438:	92020000 	lbu	v0,0(s0)
  40443c:	2403006c 	li	v1,108
  404440:	1043ffb0 	beq	v0,v1,404304 <lp_Print+0xb8>
  404444:	2c430079 	sltiu	v1,v0,121
  404448:	106000e5 	beqz	v1,4047e0 <lp_Print+0x594>
  40444c:	00021080 	sll	v0,v0,0x2
  404450:	02821021 	addu	v0,s4,v0
  404454:	8c420000 	lw	v0,0(v0)
  404458:	00400008 	jr	v0
  40445c:	00000000 	nop
  404460:	8e250000 	lw	a1,0(s1)
  404464:	1000ffb4 	b	404338 <lp_Print+0xec>
  404468:	26310004 	addiu	s1,s1,4
  40446c:	24060018 	li	a2,24
  404470:	3c050042 	lui	a1,0x42
  404474:	24a5bc10 	addiu	a1,a1,-17392
  404478:	0240f809 	jalr	s2
  40447c:	02602025 	move	a0,s3
  404480:	1000ffff 	b	404480 <lp_Print+0x234>
  404484:	00000000 	nop
  404488:	8e250000 	lw	a1,0(s1)
  40448c:	00408025 	move	s0,v0
  404490:	26310004 	addiu	s1,s1,4
  404494:	04a00015 	bltz	a1,4044ec <lp_Print+0x2a0>
  404498:	00001025 	move	v0,zero
  40449c:	afa0001c 	sw	zero,28(sp)
  4044a0:	24030030 	li	v1,48
  4044a4:	afa30018 	sw	v1,24(sp)
  4044a8:	afa70014 	sw	a3,20(sp)
  4044ac:	afa40010 	sw	a0,16(sp)
  4044b0:	00403825 	move	a3,v0
  4044b4:	2406000a 	li	a2,10
  4044b8:	0c10102a 	jal	4040a8 <PrintNum>
  4044bc:	27a40020 	addiu	a0,sp,32
  4044c0:	2c4303e9 	sltiu	v1,v0,1001
  4044c4:	1060000c 	beqz	v1,4044f8 <lp_Print+0x2ac>
  4044c8:	00403025 	move	a2,v0
  4044cc:	27a50020 	addiu	a1,sp,32
  4044d0:	0240f809 	jalr	s2
  4044d4:	02602025 	move	a0,s3
  4044d8:	1000ffa7 	b	404378 <lp_Print+0x12c>
  4044dc:	26100001 	addiu	s0,s0,1
  4044e0:	8e250000 	lw	a1,0(s1)
  4044e4:	1000ffeb 	b	404494 <lp_Print+0x248>
  4044e8:	26310004 	addiu	s1,s1,4
  4044ec:	00052823 	negu	a1,a1
  4044f0:	1000ffea 	b	40449c <lp_Print+0x250>
  4044f4:	24020001 	li	v0,1
  4044f8:	24060018 	li	a2,24
  4044fc:	3c050042 	lui	a1,0x42
  404500:	24a5bc10 	addiu	a1,a1,-17392
  404504:	0240f809 	jalr	s2
  404508:	02602025 	move	a0,s3
  40450c:	1000ffff 	b	40450c <lp_Print+0x2c0>
  404510:	00000000 	nop
  404514:	00408025 	move	s0,v0
  404518:	10000002 	b	404524 <lp_Print+0x2d8>
  40451c:	24020001 	li	v0,1
  404520:	00001025 	move	v0,zero
  404524:	10400013 	beqz	v0,404574 <lp_Print+0x328>
  404528:	8e250000 	lw	a1,0(s1)
  40452c:	26310004 	addiu	s1,s1,4
  404530:	afa0001c 	sw	zero,28(sp)
  404534:	24020030 	li	v0,48
  404538:	afa20018 	sw	v0,24(sp)
  40453c:	afa70014 	sw	a3,20(sp)
  404540:	afa40010 	sw	a0,16(sp)
  404544:	00003825 	move	a3,zero
  404548:	24060008 	li	a2,8
  40454c:	0c10102a 	jal	4040a8 <PrintNum>
  404550:	27a40020 	addiu	a0,sp,32
  404554:	2c4303e9 	sltiu	v1,v0,1001
  404558:	10600008 	beqz	v1,40457c <lp_Print+0x330>
  40455c:	00403025 	move	a2,v0
  404560:	27a50020 	addiu	a1,sp,32
  404564:	0240f809 	jalr	s2
  404568:	02602025 	move	a0,s3
  40456c:	1000ff82 	b	404378 <lp_Print+0x12c>
  404570:	26100001 	addiu	s0,s0,1
  404574:	1000ffee 	b	404530 <lp_Print+0x2e4>
  404578:	26310004 	addiu	s1,s1,4
  40457c:	24060018 	li	a2,24
  404580:	3c050042 	lui	a1,0x42
  404584:	24a5bc10 	addiu	a1,a1,-17392
  404588:	0240f809 	jalr	s2
  40458c:	02602025 	move	a0,s3
  404590:	1000ffff 	b	404590 <lp_Print+0x344>
  404594:	00000000 	nop
  404598:	00408025 	move	s0,v0
  40459c:	10000002 	b	4045a8 <lp_Print+0x35c>
  4045a0:	24020001 	li	v0,1
  4045a4:	00001025 	move	v0,zero
  4045a8:	10400013 	beqz	v0,4045f8 <lp_Print+0x3ac>
  4045ac:	8e250000 	lw	a1,0(s1)
  4045b0:	26310004 	addiu	s1,s1,4
  4045b4:	afa0001c 	sw	zero,28(sp)
  4045b8:	24020030 	li	v0,48
  4045bc:	afa20018 	sw	v0,24(sp)
  4045c0:	afa70014 	sw	a3,20(sp)
  4045c4:	afa40010 	sw	a0,16(sp)
  4045c8:	00003825 	move	a3,zero
  4045cc:	2406000a 	li	a2,10
  4045d0:	0c10102a 	jal	4040a8 <PrintNum>
  4045d4:	27a40020 	addiu	a0,sp,32
  4045d8:	2c4303e9 	sltiu	v1,v0,1001
  4045dc:	10600008 	beqz	v1,404600 <lp_Print+0x3b4>
  4045e0:	00403025 	move	a2,v0
  4045e4:	27a50020 	addiu	a1,sp,32
  4045e8:	0240f809 	jalr	s2
  4045ec:	02602025 	move	a0,s3
  4045f0:	1000ff61 	b	404378 <lp_Print+0x12c>
  4045f4:	26100001 	addiu	s0,s0,1
  4045f8:	1000ffee 	b	4045b4 <lp_Print+0x368>
  4045fc:	26310004 	addiu	s1,s1,4
  404600:	24060018 	li	a2,24
  404604:	3c050042 	lui	a1,0x42
  404608:	24a5bc10 	addiu	a1,a1,-17392
  40460c:	0240f809 	jalr	s2
  404610:	02602025 	move	a0,s3
  404614:	1000ffff 	b	404614 <lp_Print+0x3c8>
  404618:	00000000 	nop
  40461c:	00408025 	move	s0,v0
  404620:	10000002 	b	40462c <lp_Print+0x3e0>
  404624:	24020001 	li	v0,1
  404628:	00001025 	move	v0,zero
  40462c:	10400013 	beqz	v0,40467c <lp_Print+0x430>
  404630:	8e250000 	lw	a1,0(s1)
  404634:	26310004 	addiu	s1,s1,4
  404638:	afa0001c 	sw	zero,28(sp)
  40463c:	24020030 	li	v0,48
  404640:	afa20018 	sw	v0,24(sp)
  404644:	afa70014 	sw	a3,20(sp)
  404648:	afa40010 	sw	a0,16(sp)
  40464c:	00003825 	move	a3,zero
  404650:	24060010 	li	a2,16
  404654:	0c10102a 	jal	4040a8 <PrintNum>
  404658:	27a40020 	addiu	a0,sp,32
  40465c:	2c4303e9 	sltiu	v1,v0,1001
  404660:	10600008 	beqz	v1,404684 <lp_Print+0x438>
  404664:	00403025 	move	a2,v0
  404668:	27a50020 	addiu	a1,sp,32
  40466c:	0240f809 	jalr	s2
  404670:	02602025 	move	a0,s3
  404674:	1000ff40 	b	404378 <lp_Print+0x12c>
  404678:	26100001 	addiu	s0,s0,1
  40467c:	1000ffee 	b	404638 <lp_Print+0x3ec>
  404680:	26310004 	addiu	s1,s1,4
  404684:	24060018 	li	a2,24
  404688:	3c050042 	lui	a1,0x42
  40468c:	24a5bc10 	addiu	a1,a1,-17392
  404690:	0240f809 	jalr	s2
  404694:	02602025 	move	a0,s3
  404698:	1000ffff 	b	404698 <lp_Print+0x44c>
  40469c:	00000000 	nop
  4046a0:	00408025 	move	s0,v0
  4046a4:	10000002 	b	4046b0 <lp_Print+0x464>
  4046a8:	24020001 	li	v0,1
  4046ac:	00001025 	move	v0,zero
  4046b0:	10400014 	beqz	v0,404704 <lp_Print+0x4b8>
  4046b4:	8e250000 	lw	a1,0(s1)
  4046b8:	26310004 	addiu	s1,s1,4
  4046bc:	24020001 	li	v0,1
  4046c0:	afa2001c 	sw	v0,28(sp)
  4046c4:	24020030 	li	v0,48
  4046c8:	afa20018 	sw	v0,24(sp)
  4046cc:	afa70014 	sw	a3,20(sp)
  4046d0:	afa40010 	sw	a0,16(sp)
  4046d4:	00003825 	move	a3,zero
  4046d8:	24060010 	li	a2,16
  4046dc:	0c10102a 	jal	4040a8 <PrintNum>
  4046e0:	27a40020 	addiu	a0,sp,32
  4046e4:	2c4303e9 	sltiu	v1,v0,1001
  4046e8:	10600008 	beqz	v1,40470c <lp_Print+0x4c0>
  4046ec:	00403025 	move	a2,v0
  4046f0:	27a50020 	addiu	a1,sp,32
  4046f4:	0240f809 	jalr	s2
  4046f8:	02602025 	move	a0,s3
  4046fc:	1000ff1e 	b	404378 <lp_Print+0x12c>
  404700:	26100001 	addiu	s0,s0,1
  404704:	1000ffed 	b	4046bc <lp_Print+0x470>
  404708:	26310004 	addiu	s1,s1,4
  40470c:	24060018 	li	a2,24
  404710:	3c050042 	lui	a1,0x42
  404714:	24a5bc10 	addiu	a1,a1,-17392
  404718:	0240f809 	jalr	s2
  40471c:	02602025 	move	a0,s3
  404720:	1000ffff 	b	404720 <lp_Print+0x4d4>
  404724:	00000000 	nop
  404728:	00408025 	move	s0,v0
  40472c:	26360004 	addiu	s6,s1,4
  404730:	00803025 	move	a2,a0
  404734:	92250000 	lbu	a1,0(s1)
  404738:	0c100fc7 	jal	403f1c <PrintChar>
  40473c:	27a40020 	addiu	a0,sp,32
  404740:	2c4303e9 	sltiu	v1,v0,1001
  404744:	10600006 	beqz	v1,404760 <lp_Print+0x514>
  404748:	00403025 	move	a2,v0
  40474c:	27a50020 	addiu	a1,sp,32
  404750:	0240f809 	jalr	s2
  404754:	02602025 	move	a0,s3
  404758:	1000ff06 	b	404374 <lp_Print+0x128>
  40475c:	02c08825 	move	s1,s6
  404760:	24060018 	li	a2,24
  404764:	3c050042 	lui	a1,0x42
  404768:	24a5bc10 	addiu	a1,a1,-17392
  40476c:	0240f809 	jalr	s2
  404770:	02602025 	move	a0,s3
  404774:	1000ffff 	b	404774 <lp_Print+0x528>
  404778:	00000000 	nop
  40477c:	00408025 	move	s0,v0
  404780:	26360004 	addiu	s6,s1,4
  404784:	00803025 	move	a2,a0
  404788:	8e250000 	lw	a1,0(s1)
  40478c:	0c100fe6 	jal	403f98 <PrintString>
  404790:	27a40020 	addiu	a0,sp,32
  404794:	2c4303e9 	sltiu	v1,v0,1001
  404798:	10600006 	beqz	v1,4047b4 <lp_Print+0x568>
  40479c:	00403025 	move	a2,v0
  4047a0:	27a50020 	addiu	a1,sp,32
  4047a4:	0240f809 	jalr	s2
  4047a8:	02602025 	move	a0,s3
  4047ac:	1000fef1 	b	404374 <lp_Print+0x128>
  4047b0:	02c08825 	move	s1,s6
  4047b4:	24060018 	li	a2,24
  4047b8:	3c050042 	lui	a1,0x42
  4047bc:	24a5bc10 	addiu	a1,a1,-17392
  4047c0:	0240f809 	jalr	s2
  4047c4:	02602025 	move	a0,s3
  4047c8:	1000ffff 	b	4047c8 <lp_Print+0x57c>
  4047cc:	00000000 	nop
  4047d0:	00408025 	move	s0,v0
  4047d4:	1000fee7 	b	404374 <lp_Print+0x128>
  4047d8:	2610ffff 	addiu	s0,s0,-1
  4047dc:	00408025 	move	s0,v0
  4047e0:	24060001 	li	a2,1
  4047e4:	02002825 	move	a1,s0
  4047e8:	0240f809 	jalr	s2
  4047ec:	02602025 	move	a0,s3
  4047f0:	1000fee1 	b	404378 <lp_Print+0x12c>
  4047f4:	26100001 	addiu	s0,s0,1
  4047f8:	24060001 	li	a2,1
  4047fc:	3c050042 	lui	a1,0x42
  404800:	24a5b844 	addiu	a1,a1,-18364
  404804:	0240f809 	jalr	s2
  404808:	02602025 	move	a0,s3
  40480c:	8fbf0424 	lw	ra,1060(sp)
  404810:	8fb60420 	lw	s6,1056(sp)
  404814:	8fb5041c 	lw	s5,1052(sp)
  404818:	8fb40418 	lw	s4,1048(sp)
  40481c:	8fb30414 	lw	s3,1044(sp)
  404820:	8fb20410 	lw	s2,1040(sp)
  404824:	8fb1040c 	lw	s1,1036(sp)
  404828:	8fb00408 	lw	s0,1032(sp)
  40482c:	03e00008 	jr	ra
  404830:	27bd0428 	addiu	sp,sp,1064

00404834 <myoutput>:
  404834:	24020001 	li	v0,1
  404838:	50c20018 	beql	a2,v0,40489c <myoutput+0x68>
  40483c:	90a20000 	lbu	v0,0(a1)
  404840:	18c00014 	blez	a2,404894 <myoutput+0x60>
  404844:	00000000 	nop
  404848:	27bdffe0 	addiu	sp,sp,-32
  40484c:	afbf001c 	sw	ra,28(sp)
  404850:	afb20018 	sw	s2,24(sp)
  404854:	afb10014 	sw	s1,20(sp)
  404858:	afb00010 	sw	s0,16(sp)
  40485c:	00c09025 	move	s2,a2
  404860:	00a08025 	move	s0,a1
  404864:	00008825 	move	s1,zero
  404868:	0c1018ea 	jal	4063a8 <cputchar>
  40486c:	92040000 	lbu	a0,0(s0)
  404870:	26310001 	addiu	s1,s1,1
  404874:	0232102a 	slt	v0,s1,s2
  404878:	1440fffb 	bnez	v0,404868 <myoutput+0x34>
  40487c:	26100001 	addiu	s0,s0,1
  404880:	8fbf001c 	lw	ra,28(sp)
  404884:	8fb20018 	lw	s2,24(sp)
  404888:	8fb10014 	lw	s1,20(sp)
  40488c:	8fb00010 	lw	s0,16(sp)
  404890:	27bd0020 	addiu	sp,sp,32
  404894:	03e00008 	jr	ra
  404898:	00000000 	nop
  40489c:	1440ffea 	bnez	v0,404848 <myoutput+0x14>
  4048a0:	00000000 	nop
  4048a4:	03e00008 	jr	ra
  4048a8:	00000000 	nop

004048ac <printf>:
  4048ac:	27bdffe0 	addiu	sp,sp,-32
  4048b0:	afbf001c 	sw	ra,28(sp)
  4048b4:	afb00018 	sw	s0,24(sp)
  4048b8:	00808025 	move	s0,a0
  4048bc:	afa50024 	sw	a1,36(sp)
  4048c0:	afa60028 	sw	a2,40(sp)
  4048c4:	afa7002c 	sw	a3,44(sp)
  4048c8:	0c101c11 	jal	407044 <set_leds>
  4048cc:	24040002 	li	a0,2
  4048d0:	27a70024 	addiu	a3,sp,36
  4048d4:	afa70010 	sw	a3,16(sp)
  4048d8:	02003025 	move	a2,s0
  4048dc:	00002825 	move	a1,zero
  4048e0:	3c040040 	lui	a0,0x40
  4048e4:	0c101093 	jal	40424c <lp_Print>
  4048e8:	24844834 	addiu	a0,a0,18484
  4048ec:	8fbf001c 	lw	ra,28(sp)
  4048f0:	8fb00018 	lw	s0,24(sp)
  4048f4:	03e00008 	jr	ra
  4048f8:	27bd0020 	addiu	sp,sp,32

004048fc <_panic>:
  4048fc:	27bdffe0 	addiu	sp,sp,-32
  404900:	afbf001c 	sw	ra,28(sp)
  404904:	afb00018 	sw	s0,24(sp)
  404908:	00c08025 	move	s0,a2
  40490c:	afa7002c 	sw	a3,44(sp)
  404910:	27a2002c 	addiu	v0,sp,44
  404914:	afa20010 	sw	v0,16(sp)
  404918:	00a03025 	move	a2,a1
  40491c:	00802825 	move	a1,a0
  404920:	3c040042 	lui	a0,0x42
  404924:	0c10122b 	jal	4048ac <printf>
  404928:	2484bd28 	addiu	a0,a0,-17112
  40492c:	8fa70010 	lw	a3,16(sp)
  404930:	02003025 	move	a2,s0
  404934:	00002825 	move	a1,zero
  404938:	3c040040 	lui	a0,0x40
  40493c:	0c101093 	jal	40424c <lp_Print>
  404940:	24844834 	addiu	a0,a0,18484
  404944:	3c040042 	lui	a0,0x42
  404948:	0c10122b 	jal	4048ac <printf>
  40494c:	2484c1e0 	addiu	a0,a0,-15904
  404950:	1000ffff 	b	404950 <_panic+0x54>
  404954:	00000000 	nop

00404958 <readline>:
  404958:	27bdffd0 	addiu	sp,sp,-48
  40495c:	afbf002c 	sw	ra,44(sp)
  404960:	afb60028 	sw	s6,40(sp)
  404964:	afb50024 	sw	s5,36(sp)
  404968:	afb40020 	sw	s4,32(sp)
  40496c:	afb3001c 	sw	s3,28(sp)
  404970:	afb20018 	sw	s2,24(sp)
  404974:	afb10014 	sw	s1,20(sp)
  404978:	10800005 	beqz	a0,404990 <readline+0x38>
  40497c:	afb00010 	sw	s0,16(sp)
  404980:	00802825 	move	a1,a0
  404984:	3c040042 	lui	a0,0x42
  404988:	0c10122b 	jal	4048ac <printf>
  40498c:	2484c090 	addiu	a0,a0,-16240
  404990:	0c101901 	jal	406404 <iscons>
  404994:	00002025 	move	a0,zero
  404998:	00409825 	move	s3,v0
  40499c:	00008825 	move	s1,zero
  4049a0:	24120008 	li	s2,8
  4049a4:	2414000a 	li	s4,10
  4049a8:	2415000d 	li	s5,13
  4049ac:	3c160042 	lui	s6,0x42
  4049b0:	10000020 	b	404a34 <readline+0xdc>
  4049b4:	26d65750 	addiu	s6,s6,22352
  4049b8:	00402825 	move	a1,v0
  4049bc:	3c040042 	lui	a0,0x42
  4049c0:	0c10122b 	jal	4048ac <printf>
  4049c4:	2484c50c 	addiu	a0,a0,-15092
  4049c8:	00001025 	move	v0,zero
  4049cc:	8fbf002c 	lw	ra,44(sp)
  4049d0:	8fb60028 	lw	s6,40(sp)
  4049d4:	8fb50024 	lw	s5,36(sp)
  4049d8:	8fb40020 	lw	s4,32(sp)
  4049dc:	8fb3001c 	lw	s3,28(sp)
  4049e0:	8fb20018 	lw	s2,24(sp)
  4049e4:	8fb10014 	lw	s1,20(sp)
  4049e8:	8fb00010 	lw	s0,16(sp)
  4049ec:	03e00008 	jr	ra
  4049f0:	27bd0030 	addiu	sp,sp,48
  4049f4:	1260000f 	beqz	s3,404a34 <readline+0xdc>
  4049f8:	00000000 	nop
  4049fc:	1a20000d 	blez	s1,404a34 <readline+0xdc>
  404a00:	00000000 	nop
  404a04:	0c1018ea 	jal	4063a8 <cputchar>
  404a08:	2404007f 	li	a0,127
  404a0c:	10000009 	b	404a34 <readline+0xdc>
  404a10:	2631ffff 	addiu	s1,s1,-1
  404a14:	0c1018ea 	jal	4063a8 <cputchar>
  404a18:	02002025 	move	a0,s0
  404a1c:	10000014 	b	404a70 <readline+0x118>
  404a20:	02361021 	addu	v0,s1,s6
  404a24:	12140015 	beq	s0,s4,404a7c <readline+0x124>
  404a28:	00000000 	nop
  404a2c:	12150013 	beq	s0,s5,404a7c <readline+0x124>
  404a30:	00000000 	nop
  404a34:	0c1018f9 	jal	4063e4 <getchar>
  404a38:	00000000 	nop
  404a3c:	0440ffde 	bltz	v0,4049b8 <readline+0x60>
  404a40:	00408025 	move	s0,v0
  404a44:	1052ffeb 	beq	v0,s2,4049f4 <readline+0x9c>
  404a48:	2402007f 	li	v0,127
  404a4c:	1202ffe9 	beq	s0,v0,4049f4 <readline+0x9c>
  404a50:	2a020020 	slti	v0,s0,32
  404a54:	1440fff3 	bnez	v0,404a24 <readline+0xcc>
  404a58:	2a2203ff 	slti	v0,s1,1023
  404a5c:	1040fff1 	beqz	v0,404a24 <readline+0xcc>
  404a60:	00000000 	nop
  404a64:	1660ffeb 	bnez	s3,404a14 <readline+0xbc>
  404a68:	00000000 	nop
  404a6c:	02361021 	addu	v0,s1,s6
  404a70:	a0500000 	sb	s0,0(v0)
  404a74:	1000ffef 	b	404a34 <readline+0xdc>
  404a78:	26310001 	addiu	s1,s1,1
  404a7c:	16600006 	bnez	s3,404a98 <readline+0x140>
  404a80:	00000000 	nop
  404a84:	3c020042 	lui	v0,0x42
  404a88:	24425750 	addiu	v0,v0,22352
  404a8c:	02228821 	addu	s1,s1,v0
  404a90:	1000ffce 	b	4049cc <readline+0x74>
  404a94:	a2200000 	sb	zero,0(s1)
  404a98:	0c1018ea 	jal	4063a8 <cputchar>
  404a9c:	2404000a 	li	a0,10
  404aa0:	1000fff9 	b	404a88 <readline+0x130>
  404aa4:	3c020042 	lui	v0,0x42

00404aa8 <sched_yield>:
  404aa8:	27bdffe8 	addiu	sp,sp,-24
  404aac:	afbf0014 	sw	ra,20(sp)
  404ab0:	3c030042 	lui	v1,0x42
  404ab4:	8c625d70 	lw	v0,23920(v1)
  404ab8:	2442ffff 	addiu	v0,v0,-1
  404abc:	18400008 	blez	v0,404ae0 <sched_yield+0x38>
  404ac0:	ac625d70 	sw	v0,23920(v1)
  404ac4:	3c020042 	lui	v0,0x42
  404ac8:	8c445740 	lw	a0,22336(v0)
  404acc:	0c100e2e 	jal	4038b8 <env_run>
  404ad0:	00000000 	nop
  404ad4:	8fbf0014 	lw	ra,20(sp)
  404ad8:	03e00008 	jr	ra
  404adc:	27bd0018 	addiu	sp,sp,24
  404ae0:	3c020042 	lui	v0,0x42
  404ae4:	8c45573c 	lw	a1,22332(v0)
  404ae8:	00051080 	sll	v0,a1,0x2
  404aec:	3c030042 	lui	v1,0x42
  404af0:	24635d68 	addiu	v1,v1,23912
  404af4:	00431021 	addu	v0,v0,v1
  404af8:	8c440000 	lw	a0,0(v0)
  404afc:	10800020 	beqz	a0,404b80 <sched_yield+0xd8>
  404b00:	24020001 	li	v0,1
  404b04:	8c8300c0 	lw	v1,192(a0)
  404b08:	3c020042 	lui	v0,0x42
  404b0c:	ac435d70 	sw	v1,23920(v0)
  404b10:	8c8200b8 	lw	v0,184(a0)
  404b14:	50400004 	beqzl	v0,404b28 <sched_yield+0x80>
  404b18:	8c8200bc 	lw	v0,188(a0)
  404b1c:	8c8300bc 	lw	v1,188(a0)
  404b20:	ac4300bc 	sw	v1,188(v0)
  404b24:	8c8200bc 	lw	v0,188(a0)
  404b28:	8c8300b8 	lw	v1,184(a0)
  404b2c:	ac430000 	sw	v1,0(v0)
  404b30:	3c020042 	lui	v0,0x42
  404b34:	8c43573c 	lw	v1,22332(v0)
  404b38:	24020001 	li	v0,1
  404b3c:	00431023 	subu	v0,v0,v1
  404b40:	00021880 	sll	v1,v0,0x2
  404b44:	3c050042 	lui	a1,0x42
  404b48:	24a55d68 	addiu	a1,a1,23912
  404b4c:	00651821 	addu	v1,v1,a1
  404b50:	8c630000 	lw	v1,0(v1)
  404b54:	10600003 	beqz	v1,404b64 <sched_yield+0xbc>
  404b58:	ac8300b8 	sw	v1,184(a0)
  404b5c:	248500b8 	addiu	a1,a0,184
  404b60:	ac6500bc 	sw	a1,188(v1)
  404b64:	00021080 	sll	v0,v0,0x2
  404b68:	3c030042 	lui	v1,0x42
  404b6c:	24635d68 	addiu	v1,v1,23912
  404b70:	00431021 	addu	v0,v0,v1
  404b74:	ac440000 	sw	a0,0(v0)
  404b78:	1000ffd4 	b	404acc <sched_yield+0x24>
  404b7c:	ac8200bc 	sw	v0,188(a0)
  404b80:	00452823 	subu	a1,v0,a1
  404b84:	3c020042 	lui	v0,0x42
  404b88:	ac45573c 	sw	a1,22332(v0)
  404b8c:	00052880 	sll	a1,a1,0x2
  404b90:	00a31021 	addu	v0,a1,v1
  404b94:	8c440000 	lw	a0,0(v0)
  404b98:	5480ffdb 	bnezl	a0,404b08 <sched_yield+0x60>
  404b9c:	8c8300c0 	lw	v1,192(a0)
  404ba0:	3c040042 	lui	a0,0x42
  404ba4:	0c10122b 	jal	4048ac <printf>
  404ba8:	2484c51c 	addiu	a0,a0,-15076
  404bac:	1000ffff 	b	404bac <sched_yield+0x104>
  404bb0:	00000000 	nop

00404bb4 <strlen>:
  404bb4:	90820000 	lbu	v0,0(a0)
  404bb8:	10400008 	beqz	v0,404bdc <strlen+0x28>
  404bbc:	00000000 	nop
  404bc0:	00001025 	move	v0,zero
  404bc4:	24840001 	addiu	a0,a0,1
  404bc8:	90830000 	lbu	v1,0(a0)
  404bcc:	1460fffd 	bnez	v1,404bc4 <strlen+0x10>
  404bd0:	24420001 	addiu	v0,v0,1
  404bd4:	03e00008 	jr	ra
  404bd8:	00000000 	nop
  404bdc:	03e00008 	jr	ra
  404be0:	00001025 	move	v0,zero

00404be4 <strnlen>:
  404be4:	10a0000d 	beqz	a1,404c1c <strnlen+0x38>
  404be8:	00000000 	nop
  404bec:	90820000 	lbu	v0,0(a0)
  404bf0:	1040000c 	beqz	v0,404c24 <strnlen+0x40>
  404bf4:	00852821 	addu	a1,a0,a1
  404bf8:	00001025 	move	v0,zero
  404bfc:	24840001 	addiu	a0,a0,1
  404c00:	10a40004 	beq	a1,a0,404c14 <strnlen+0x30>
  404c04:	24420001 	addiu	v0,v0,1
  404c08:	90830000 	lbu	v1,0(a0)
  404c0c:	1460fffc 	bnez	v1,404c00 <strnlen+0x1c>
  404c10:	24840001 	addiu	a0,a0,1
  404c14:	03e00008 	jr	ra
  404c18:	00000000 	nop
  404c1c:	03e00008 	jr	ra
  404c20:	00001025 	move	v0,zero
  404c24:	00001025 	move	v0,zero
  404c28:	03e00008 	jr	ra
  404c2c:	00000000 	nop

00404c30 <strcpy>:
  404c30:	00801025 	move	v0,a0
  404c34:	00801825 	move	v1,a0
  404c38:	24630001 	addiu	v1,v1,1
  404c3c:	24a50001 	addiu	a1,a1,1
  404c40:	90a6ffff 	lbu	a2,-1(a1)
  404c44:	14c0fffc 	bnez	a2,404c38 <strcpy+0x8>
  404c48:	a066ffff 	sb	a2,-1(v1)
  404c4c:	03e00008 	jr	ra
  404c50:	00000000 	nop

00404c54 <strcat>:
  404c54:	27bdffe0 	addiu	sp,sp,-32
  404c58:	afbf001c 	sw	ra,28(sp)
  404c5c:	afb10018 	sw	s1,24(sp)
  404c60:	afb00014 	sw	s0,20(sp)
  404c64:	00808025 	move	s0,a0
  404c68:	0c1012ed 	jal	404bb4 <strlen>
  404c6c:	00a08825 	move	s1,a1
  404c70:	02202825 	move	a1,s1
  404c74:	0c10130c 	jal	404c30 <strcpy>
  404c78:	02022021 	addu	a0,s0,v0
  404c7c:	02001025 	move	v0,s0
  404c80:	8fbf001c 	lw	ra,28(sp)
  404c84:	8fb10018 	lw	s1,24(sp)
  404c88:	8fb00014 	lw	s0,20(sp)
  404c8c:	03e00008 	jr	ra
  404c90:	27bd0020 	addiu	sp,sp,32

00404c94 <strncpy>:
  404c94:	10c0000a 	beqz	a2,404cc0 <strncpy+0x2c>
  404c98:	00801025 	move	v0,a0
  404c9c:	00863021 	addu	a2,a0,a2
  404ca0:	00801825 	move	v1,a0
  404ca4:	24630001 	addiu	v1,v1,1
  404ca8:	90a70000 	lbu	a3,0(a1)
  404cac:	a067ffff 	sb	a3,-1(v1)
  404cb0:	90a70000 	lbu	a3,0(a1)
  404cb4:	0007382b 	sltu	a3,zero,a3
  404cb8:	14c3fffa 	bne	a2,v1,404ca4 <strncpy+0x10>
  404cbc:	00a72821 	addu	a1,a1,a3
  404cc0:	03e00008 	jr	ra
  404cc4:	00000000 	nop

00404cc8 <strlcpy>:
  404cc8:	10c00010 	beqz	a2,404d0c <strlcpy+0x44>
  404ccc:	00801025 	move	v0,a0
  404cd0:	24c6ffff 	addiu	a2,a2,-1
  404cd4:	50c0000d 	beqzl	a2,404d0c <strlcpy+0x44>
  404cd8:	a0400000 	sb	zero,0(v0)
  404cdc:	90a30000 	lbu	v1,0(a1)
  404ce0:	5060000a 	beqzl	v1,404d0c <strlcpy+0x44>
  404ce4:	a0400000 	sb	zero,0(v0)
  404ce8:	24420001 	addiu	v0,v0,1
  404cec:	24a50001 	addiu	a1,a1,1
  404cf0:	24c6ffff 	addiu	a2,a2,-1
  404cf4:	10c00004 	beqz	a2,404d08 <strlcpy+0x40>
  404cf8:	a043ffff 	sb	v1,-1(v0)
  404cfc:	90a30000 	lbu	v1,0(a1)
  404d00:	5460fffa 	bnezl	v1,404cec <strlcpy+0x24>
  404d04:	24420001 	addiu	v0,v0,1
  404d08:	a0400000 	sb	zero,0(v0)
  404d0c:	03e00008 	jr	ra
  404d10:	00441023 	subu	v0,v0,a0
  404d14:	1000fffc 	b	404d08 <strlcpy+0x40>
  404d18:	00801025 	move	v0,a0

00404d1c <strcmp>:
  404d1c:	90820000 	lbu	v0,0(a0)
  404d20:	1040000b 	beqz	v0,404d50 <strcmp+0x34>
  404d24:	90a30000 	lbu	v1,0(a1)
  404d28:	14620009 	bne	v1,v0,404d50 <strcmp+0x34>
  404d2c:	00000000 	nop
  404d30:	24840001 	addiu	a0,a0,1
  404d34:	90820000 	lbu	v0,0(a0)
  404d38:	10400004 	beqz	v0,404d4c <strcmp+0x30>
  404d3c:	24a50001 	addiu	a1,a1,1
  404d40:	90a30000 	lbu	v1,0(a1)
  404d44:	5062fffb 	beql	v1,v0,404d34 <strcmp+0x18>
  404d48:	24840001 	addiu	a0,a0,1
  404d4c:	90a30000 	lbu	v1,0(a1)
  404d50:	03e00008 	jr	ra
  404d54:	00431023 	subu	v0,v0,v1

00404d58 <strncmp>:
  404d58:	10c00013 	beqz	a2,404da8 <strncmp+0x50>
  404d5c:	00000000 	nop
  404d60:	90820000 	lbu	v0,0(a0)
  404d64:	1040000e 	beqz	v0,404da0 <strncmp+0x48>
  404d68:	90a30000 	lbu	v1,0(a1)
  404d6c:	1462000c 	bne	v1,v0,404da0 <strncmp+0x48>
  404d70:	00000000 	nop
  404d74:	00863021 	addu	a2,a0,a2
  404d78:	24840001 	addiu	a0,a0,1
  404d7c:	1086000c 	beq	a0,a2,404db0 <strncmp+0x58>
  404d80:	24a50001 	addiu	a1,a1,1
  404d84:	90820000 	lbu	v0,0(a0)
  404d88:	10400005 	beqz	v0,404da0 <strncmp+0x48>
  404d8c:	90a30000 	lbu	v1,0(a1)
  404d90:	5062fffa 	beql	v1,v0,404d7c <strncmp+0x24>
  404d94:	24840001 	addiu	a0,a0,1
  404d98:	90820000 	lbu	v0,0(a0)
  404d9c:	90a30000 	lbu	v1,0(a1)
  404da0:	03e00008 	jr	ra
  404da4:	00431023 	subu	v0,v0,v1
  404da8:	03e00008 	jr	ra
  404dac:	00001025 	move	v0,zero
  404db0:	03e00008 	jr	ra
  404db4:	00001025 	move	v0,zero

00404db8 <strchr>:
  404db8:	90820000 	lbu	v0,0(a0)
  404dbc:	1040000d 	beqz	v0,404df4 <strchr+0x3c>
  404dc0:	00000000 	nop
  404dc4:	10a2000d 	beq	a1,v0,404dfc <strchr+0x44>
  404dc8:	00000000 	nop
  404dcc:	24840001 	addiu	a0,a0,1
  404dd0:	90820000 	lbu	v0,0(a0)
  404dd4:	10400005 	beqz	v0,404dec <strchr+0x34>
  404dd8:	00000000 	nop
  404ddc:	5445fffc 	bnel	v0,a1,404dd0 <strchr+0x18>
  404de0:	24840001 	addiu	a0,a0,1
  404de4:	03e00008 	jr	ra
  404de8:	00801025 	move	v0,a0
  404dec:	03e00008 	jr	ra
  404df0:	00000000 	nop
  404df4:	03e00008 	jr	ra
  404df8:	00001025 	move	v0,zero
  404dfc:	03e00008 	jr	ra
  404e00:	00801025 	move	v0,a0

00404e04 <strfind>:
  404e04:	90830000 	lbu	v1,0(a0)
  404e08:	10600009 	beqz	v1,404e30 <strfind+0x2c>
  404e0c:	00801025 	move	v0,a0
  404e10:	10a30009 	beq	a1,v1,404e38 <strfind+0x34>
  404e14:	00000000 	nop
  404e18:	24420001 	addiu	v0,v0,1
  404e1c:	90430000 	lbu	v1,0(v0)
  404e20:	10600005 	beqz	v1,404e38 <strfind+0x34>
  404e24:	00000000 	nop
  404e28:	5465fffc 	bnel	v1,a1,404e1c <strfind+0x18>
  404e2c:	24420001 	addiu	v0,v0,1
  404e30:	03e00008 	jr	ra
  404e34:	00000000 	nop
  404e38:	03e00008 	jr	ra
  404e3c:	00000000 	nop

00404e40 <memset>:
  404e40:	24c3ffff 	addiu	v1,a2,-1
  404e44:	04600006 	bltz	v1,404e60 <memset+0x20>
  404e48:	00801025 	move	v0,a0
  404e4c:	00863021 	addu	a2,a0,a2
  404e50:	00801825 	move	v1,a0
  404e54:	24630001 	addiu	v1,v1,1
  404e58:	14c3fffe 	bne	a2,v1,404e54 <memset+0x14>
  404e5c:	a065ffff 	sb	a1,-1(v1)
  404e60:	03e00008 	jr	ra
  404e64:	00000000 	nop

00404e68 <memmove>:
  404e68:	00a4182b 	sltu	v1,a1,a0
  404e6c:	10600005 	beqz	v1,404e84 <memmove+0x1c>
  404e70:	00801025 	move	v0,a0
  404e74:	00a61821 	addu	v1,a1,a2
  404e78:	0083202b 	sltu	a0,a0,v1
  404e7c:	1480000c 	bnez	a0,404eb0 <memmove+0x48>
  404e80:	00000000 	nop
  404e84:	10c00011 	beqz	a2,404ecc <memmove+0x64>
  404e88:	00000000 	nop
  404e8c:	00a63021 	addu	a2,a1,a2
  404e90:	00401825 	move	v1,v0
  404e94:	24630001 	addiu	v1,v1,1
  404e98:	24a50001 	addiu	a1,a1,1
  404e9c:	90a7ffff 	lbu	a3,-1(a1)
  404ea0:	14a6fffc 	bne	a1,a2,404e94 <memmove+0x2c>
  404ea4:	a067ffff 	sb	a3,-1(v1)
  404ea8:	03e00008 	jr	ra
  404eac:	00000000 	nop
  404eb0:	10c0fffd 	beqz	a2,404ea8 <memmove+0x40>
  404eb4:	00463821 	addu	a3,v0,a2
  404eb8:	24e7ffff 	addiu	a3,a3,-1
  404ebc:	2463ffff 	addiu	v1,v1,-1
  404ec0:	90660000 	lbu	a2,0(v1)
  404ec4:	14a3fffc 	bne	a1,v1,404eb8 <memmove+0x50>
  404ec8:	a0e60000 	sb	a2,0(a3)
  404ecc:	03e00008 	jr	ra
  404ed0:	00000000 	nop

00404ed4 <memcpy>:
  404ed4:	27bdffe8 	addiu	sp,sp,-24
  404ed8:	afbf0014 	sw	ra,20(sp)
  404edc:	0c10139a 	jal	404e68 <memmove>
  404ee0:	00000000 	nop
  404ee4:	8fbf0014 	lw	ra,20(sp)
  404ee8:	03e00008 	jr	ra
  404eec:	27bd0018 	addiu	sp,sp,24

00404ef0 <memcmp>:
  404ef0:	10c00010 	beqz	a2,404f34 <memcmp+0x44>
  404ef4:	00000000 	nop
  404ef8:	90820000 	lbu	v0,0(a0)
  404efc:	90a30000 	lbu	v1,0(a1)
  404f00:	14430008 	bne	v0,v1,404f24 <memcmp+0x34>
  404f04:	00863021 	addu	a2,a0,a2
  404f08:	24840001 	addiu	a0,a0,1
  404f0c:	10c40007 	beq	a2,a0,404f2c <memcmp+0x3c>
  404f10:	24a50001 	addiu	a1,a1,1
  404f14:	90820000 	lbu	v0,0(a0)
  404f18:	90a30000 	lbu	v1,0(a1)
  404f1c:	5043fffb 	beql	v0,v1,404f0c <memcmp+0x1c>
  404f20:	24840001 	addiu	a0,a0,1
  404f24:	03e00008 	jr	ra
  404f28:	00431023 	subu	v0,v0,v1
  404f2c:	03e00008 	jr	ra
  404f30:	00001025 	move	v0,zero
  404f34:	03e00008 	jr	ra
  404f38:	00001025 	move	v0,zero

00404f3c <memfind>:
  404f3c:	00863021 	addu	a2,a0,a2
  404f40:	0086182b 	sltu	v1,a0,a2
  404f44:	1060000b 	beqz	v1,404f74 <memfind+0x38>
  404f48:	00801025 	move	v0,a0
  404f4c:	30a500ff 	andi	a1,a1,0xff
  404f50:	90830000 	lbu	v1,0(a0)
  404f54:	10650009 	beq	v1,a1,404f7c <memfind+0x40>
  404f58:	00000000 	nop
  404f5c:	24420001 	addiu	v0,v0,1
  404f60:	10c20006 	beq	a2,v0,404f7c <memfind+0x40>
  404f64:	00000000 	nop
  404f68:	90430000 	lbu	v1,0(v0)
  404f6c:	5465fffc 	bnel	v1,a1,404f60 <memfind+0x24>
  404f70:	24420001 	addiu	v0,v0,1
  404f74:	03e00008 	jr	ra
  404f78:	00000000 	nop
  404f7c:	03e00008 	jr	ra
  404f80:	00000000 	nop

00404f84 <strtol>:
  404f84:	24030020 	li	v1,32
  404f88:	24070009 	li	a3,9
  404f8c:	90820000 	lbu	v0,0(a0)
  404f90:	5043fffe 	beql	v0,v1,404f8c <strtol+0x8>
  404f94:	24840001 	addiu	a0,a0,1
  404f98:	5047fffc 	beql	v0,a3,404f8c <strtol+0x8>
  404f9c:	24840001 	addiu	a0,a0,1
  404fa0:	2403002b 	li	v1,43
  404fa4:	1043000e 	beq	v0,v1,404fe0 <strtol+0x5c>
  404fa8:	2403002d 	li	v1,45
  404fac:	1043000f 	beq	v0,v1,404fec <strtol+0x68>
  404fb0:	00004025 	move	t0,zero
  404fb4:	00c01025 	move	v0,a2
  404fb8:	7c022104 	ins	v0,zero,0x4,0x1
  404fbc:	14400023 	bnez	v0,40504c <strtol+0xc8>
  404fc0:	00001025 	move	v0,zero
  404fc4:	90830000 	lbu	v1,0(a0)
  404fc8:	24020030 	li	v0,48
  404fcc:	1062000a 	beq	v1,v0,404ff8 <strtol+0x74>
  404fd0:	2402000a 	li	v0,10
  404fd4:	0046300a 	movz	a2,v0,a2
  404fd8:	1000001c 	b	40504c <strtol+0xc8>
  404fdc:	00001025 	move	v0,zero
  404fe0:	24840001 	addiu	a0,a0,1
  404fe4:	1000fff3 	b	404fb4 <strtol+0x30>
  404fe8:	00004025 	move	t0,zero
  404fec:	24840001 	addiu	a0,a0,1
  404ff0:	1000fff0 	b	404fb4 <strtol+0x30>
  404ff4:	24080001 	li	t0,1
  404ff8:	90830001 	lbu	v1,1(a0)
  404ffc:	24020078 	li	v0,120
  405000:	50620006 	beql	v1,v0,40501c <strtol+0x98>
  405004:	24840002 	addiu	a0,a0,2
  405008:	54c00010 	bnezl	a2,40504c <strtol+0xc8>
  40500c:	00001025 	move	v0,zero
  405010:	24840001 	addiu	a0,a0,1
  405014:	1000fff0 	b	404fd8 <strtol+0x54>
  405018:	24060008 	li	a2,8
  40501c:	1000ffee 	b	404fd8 <strtol+0x54>
  405020:	24060010 	li	a2,16
  405024:	30e700ff 	andi	a3,a3,0xff
  405028:	2ce7001a 	sltiu	a3,a3,26
  40502c:	10e0000f 	beqz	a3,40506c <strtol+0xe8>
  405030:	2467ffbf 	addiu	a3,v1,-65
  405034:	2463ffa9 	addiu	v1,v1,-87
  405038:	0066382a 	slt	a3,v1,a2
  40503c:	10e0000f 	beqz	a3,40507c <strtol+0xf8>
  405040:	70463802 	mul	a3,v0,a2
  405044:	24840001 	addiu	a0,a0,1
  405048:	00e31021 	addu	v0,a3,v1
  40504c:	90830000 	lbu	v1,0(a0)
  405050:	2467ffd0 	addiu	a3,v1,-48
  405054:	30e700ff 	andi	a3,a3,0xff
  405058:	2ce7000a 	sltiu	a3,a3,10
  40505c:	10e0fff1 	beqz	a3,405024 <strtol+0xa0>
  405060:	2467ff9f 	addiu	a3,v1,-97
  405064:	1000fff4 	b	405038 <strtol+0xb4>
  405068:	2463ffd0 	addiu	v1,v1,-48
  40506c:	30e700ff 	andi	a3,a3,0xff
  405070:	2ce7001a 	sltiu	a3,a3,26
  405074:	14e0fff0 	bnez	a3,405038 <strtol+0xb4>
  405078:	2463ffc9 	addiu	v1,v1,-55
  40507c:	54a00001 	bnezl	a1,405084 <strtol+0x100>
  405080:	aca40000 	sw	a0,0(a1)
  405084:	00021823 	negu	v1,v0
  405088:	03e00008 	jr	ra
  40508c:	0068100b 	movn	v0,v1,t0

00405090 <sys_putchar>:
  405090:	27bdffe8 	addiu	sp,sp,-24
  405094:	afbf0014 	sw	ra,20(sp)
  405098:	0c1018ea 	jal	4063a8 <cputchar>
  40509c:	30a400ff 	andi	a0,a1,0xff
  4050a0:	8fbf0014 	lw	ra,20(sp)
  4050a4:	03e00008 	jr	ra
  4050a8:	27bd0018 	addiu	sp,sp,24

004050ac <sys_getenvid>:
  4050ac:	3c020042 	lui	v0,0x42
  4050b0:	8c425740 	lw	v0,22336(v0)
  4050b4:	03e00008 	jr	ra
  4050b8:	8c4200a4 	lw	v0,164(v0)

004050bc <sys_yield>:
  4050bc:	27bdffe8 	addiu	sp,sp,-24
  4050c0:	afbf0014 	sw	ra,20(sp)
  4050c4:	3c020042 	lui	v0,0x42
  4050c8:	8c44b638 	lw	a0,-18888(v0)
  4050cc:	2406009c 	li	a2,156
  4050d0:	3c0581ff 	lui	a1,0x81ff
  4050d4:	34a5ff64 	ori	a1,a1,0xff64
  4050d8:	0c102468 	jal	4091a0 <bcopy>
  4050dc:	2484ff64 	addiu	a0,a0,-156
  4050e0:	3c020042 	lui	v0,0x42
  4050e4:	0c1012aa 	jal	404aa8 <sched_yield>
  4050e8:	ac405d70 	sw	zero,23920(v0)
  4050ec:	8fbf0014 	lw	ra,20(sp)
  4050f0:	03e00008 	jr	ra
  4050f4:	27bd0018 	addiu	sp,sp,24

004050f8 <sys_env_destroy>:
  4050f8:	27bdffe0 	addiu	sp,sp,-32
  4050fc:	afbf001c 	sw	ra,28(sp)
  405100:	00a02025 	move	a0,a1
  405104:	24060001 	li	a2,1
  405108:	0c100cb7 	jal	4032dc <envid2env>
  40510c:	27a50010 	addiu	a1,sp,16
  405110:	0440000b 	bltz	v0,405140 <sys_env_destroy+0x48>
  405114:	8fa30010 	lw	v1,16(sp)
  405118:	3c020042 	lui	v0,0x42
  40511c:	8c425740 	lw	v0,22336(v0)
  405120:	8c6600a4 	lw	a2,164(v1)
  405124:	8c4500a4 	lw	a1,164(v0)
  405128:	3c040042 	lui	a0,0x42
  40512c:	0c10122b 	jal	4048ac <printf>
  405130:	2484c534 	addiu	a0,a0,-15052
  405134:	0c100e11 	jal	403844 <env_destroy>
  405138:	8fa40010 	lw	a0,16(sp)
  40513c:	00001025 	move	v0,zero
  405140:	8fbf001c 	lw	ra,28(sp)
  405144:	03e00008 	jr	ra
  405148:	27bd0020 	addiu	sp,sp,32

0040514c <sys_set_pgfault_handler>:
  40514c:	27bdffd8 	addiu	sp,sp,-40
  405150:	afbf0024 	sw	ra,36(sp)
  405154:	afb10020 	sw	s1,32(sp)
  405158:	afb0001c 	sw	s0,28(sp)
  40515c:	00a02025 	move	a0,a1
  405160:	00c08825 	move	s1,a2
  405164:	00e08025 	move	s0,a3
  405168:	00003025 	move	a2,zero
  40516c:	0c100cb7 	jal	4032dc <envid2env>
  405170:	27a50010 	addiu	a1,sp,16
  405174:	0440000a 	bltz	v0,4051a0 <sys_set_pgfault_handler+0x54>
  405178:	3c040042 	lui	a0,0x42
  40517c:	8fa20010 	lw	v0,16(sp)
  405180:	ac5100d8 	sw	s1,216(v0)
  405184:	ac5000dc 	sw	s0,220(v0)
  405188:	00001025 	move	v0,zero
  40518c:	8fbf0024 	lw	ra,36(sp)
  405190:	8fb10020 	lw	s1,32(sp)
  405194:	8fb0001c 	lw	s0,28(sp)
  405198:	03e00008 	jr	ra
  40519c:	27bd0028 	addiu	sp,sp,40
  4051a0:	0c10122b 	jal	4048ac <printf>
  4051a4:	2484c54c 	addiu	a0,a0,-15028
  4051a8:	1000fff8 	b	40518c <sys_set_pgfault_handler+0x40>
  4051ac:	2402fffd 	li	v0,-3

004051b0 <sys_mem_alloc>:
  4051b0:	27bdffd8 	addiu	sp,sp,-40
  4051b4:	afbf0024 	sw	ra,36(sp)
  4051b8:	afb20020 	sw	s2,32(sp)
  4051bc:	afb1001c 	sw	s1,28(sp)
  4051c0:	30e30201 	andi	v1,a3,0x201
  4051c4:	24020200 	li	v0,512
  4051c8:	1462001e 	bne	v1,v0,405244 <sys_mem_alloc+0x94>
  4051cc:	afb00018 	sw	s0,24(sp)
  4051d0:	00a09025 	move	s2,a1
  4051d4:	00c08825 	move	s1,a2
  4051d8:	3c027f40 	lui	v0,0x7f40
  4051dc:	00c2102b 	sltu	v0,a2,v0
  4051e0:	1040001d 	beqz	v0,405258 <sys_mem_alloc+0xa8>
  4051e4:	00e08025 	move	s0,a3
  4051e8:	0c102051 	jal	408144 <page_alloc>
  4051ec:	27a40014 	addiu	a0,sp,20
  4051f0:	0440001e 	bltz	v0,40526c <sys_mem_alloc+0xbc>
  4051f4:	24060001 	li	a2,1
  4051f8:	27a50010 	addiu	a1,sp,16
  4051fc:	0c100cb7 	jal	4032dc <envid2env>
  405200:	02402025 	move	a0,s2
  405204:	0440001e 	bltz	v0,405280 <sys_mem_alloc+0xd0>
  405208:	02003825 	move	a3,s0
  40520c:	02203025 	move	a2,s1
  405210:	8fa50014 	lw	a1,20(sp)
  405214:	8fa20010 	lw	v0,16(sp)
  405218:	0c102131 	jal	4084c4 <page_insert>
  40521c:	8c4400b0 	lw	a0,176(v0)
  405220:	0440001c 	bltz	v0,405294 <sys_mem_alloc+0xe4>
  405224:	00001825 	move	v1,zero
  405228:	00601025 	move	v0,v1
  40522c:	8fbf0024 	lw	ra,36(sp)
  405230:	8fb20020 	lw	s2,32(sp)
  405234:	8fb1001c 	lw	s1,28(sp)
  405238:	8fb00018 	lw	s0,24(sp)
  40523c:	03e00008 	jr	ra
  405240:	27bd0028 	addiu	sp,sp,40
  405244:	3c040042 	lui	a0,0x42
  405248:	0c10122b 	jal	4048ac <printf>
  40524c:	2484c574 	addiu	a0,a0,-14988
  405250:	1000fff5 	b	405228 <sys_mem_alloc+0x78>
  405254:	2403fffd 	li	v1,-3
  405258:	3c040042 	lui	a0,0x42
  40525c:	0c10122b 	jal	4048ac <printf>
  405260:	2484c598 	addiu	a0,a0,-14952
  405264:	1000fff0 	b	405228 <sys_mem_alloc+0x78>
  405268:	2403fffd 	li	v1,-3
  40526c:	3c040042 	lui	a0,0x42
  405270:	0c10122b 	jal	4048ac <printf>
  405274:	2484c5b8 	addiu	a0,a0,-14920
  405278:	1000ffeb 	b	405228 <sys_mem_alloc+0x78>
  40527c:	2403fffc 	li	v1,-4
  405280:	3c040042 	lui	a0,0x42
  405284:	0c10122b 	jal	4048ac <printf>
  405288:	2484c5e0 	addiu	a0,a0,-14880
  40528c:	1000ffe6 	b	405228 <sys_mem_alloc+0x78>
  405290:	2403fffe 	li	v1,-2
  405294:	3c040042 	lui	a0,0x42
  405298:	0c10122b 	jal	4048ac <printf>
  40529c:	2484c60c 	addiu	a0,a0,-14836
  4052a0:	1000ffe1 	b	405228 <sys_mem_alloc+0x78>
  4052a4:	2403fffc 	li	v1,-4

004052a8 <sys_mem_map>:
  4052a8:	27bdffc0 	addiu	sp,sp,-64
  4052ac:	afbf003c 	sw	ra,60(sp)
  4052b0:	afb50038 	sw	s5,56(sp)
  4052b4:	afb40034 	sw	s4,52(sp)
  4052b8:	afb30030 	sw	s3,48(sp)
  4052bc:	afb2002c 	sw	s2,44(sp)
  4052c0:	afb10028 	sw	s1,40(sp)
  4052c4:	afb00024 	sw	s0,36(sp)
  4052c8:	00a02025 	move	a0,a1
  4052cc:	00c08025 	move	s0,a2
  4052d0:	00e09825 	move	s3,a3
  4052d4:	8fb10050 	lw	s1,80(sp)
  4052d8:	8fb20054 	lw	s2,84(sp)
  4052dc:	00c0a825 	move	s5,a2
  4052e0:	24060001 	li	a2,1
  4052e4:	0c100cb7 	jal	4032dc <envid2env>
  4052e8:	27a50010 	addiu	a1,sp,16
  4052ec:	04400027 	bltz	v0,40538c <sys_mem_map+0xe4>
  4052f0:	7c155804 	ins	s5,zero,0x0,0xc
  4052f4:	0220a025 	move	s4,s1
  4052f8:	7c145804 	ins	s4,zero,0x0,0xc
  4052fc:	24060001 	li	a2,1
  405300:	27a50014 	addiu	a1,sp,20
  405304:	0c100cb7 	jal	4032dc <envid2env>
  405308:	02602025 	move	a0,s3
  40530c:	04400024 	bltz	v0,4053a0 <sys_mem_map+0xf8>
  405310:	3c027f40 	lui	v0,0x7f40
  405314:	0202802b 	sltu	s0,s0,v0
  405318:	12000026 	beqz	s0,4053b4 <sys_mem_map+0x10c>
  40531c:	0222882b 	sltu	s1,s1,v0
  405320:	12200024 	beqz	s1,4053b4 <sys_mem_map+0x10c>
  405324:	32420200 	andi	v0,s2,0x200
  405328:	10400027 	beqz	v0,4053c8 <sys_mem_map+0x120>
  40532c:	27a60018 	addiu	a2,sp,24
  405330:	02a02825 	move	a1,s5
  405334:	8fa20010 	lw	v0,16(sp)
  405338:	0c1020d9 	jal	408364 <page_lookup>
  40533c:	8c4400b0 	lw	a0,176(v0)
  405340:	10400026 	beqz	v0,4053dc <sys_mem_map+0x134>
  405344:	02403825 	move	a3,s2
  405348:	02803025 	move	a2,s4
  40534c:	00402825 	move	a1,v0
  405350:	8fa20014 	lw	v0,20(sp)
  405354:	0c102131 	jal	4084c4 <page_insert>
  405358:	8c4400b0 	lw	a0,176(v0)
  40535c:	04400024 	bltz	v0,4053f0 <sys_mem_map+0x148>
  405360:	00001825 	move	v1,zero
  405364:	00601025 	move	v0,v1
  405368:	8fbf003c 	lw	ra,60(sp)
  40536c:	8fb50038 	lw	s5,56(sp)
  405370:	8fb40034 	lw	s4,52(sp)
  405374:	8fb30030 	lw	s3,48(sp)
  405378:	8fb2002c 	lw	s2,44(sp)
  40537c:	8fb10028 	lw	s1,40(sp)
  405380:	8fb00024 	lw	s0,36(sp)
  405384:	03e00008 	jr	ra
  405388:	27bd0040 	addiu	sp,sp,64
  40538c:	3c040042 	lui	a0,0x42
  405390:	0c10122b 	jal	4048ac <printf>
  405394:	2484c630 	addiu	a0,a0,-14800
  405398:	1000fff2 	b	405364 <sys_mem_map+0xbc>
  40539c:	2403fffe 	li	v1,-2
  4053a0:	3c040042 	lui	a0,0x42
  4053a4:	0c10122b 	jal	4048ac <printf>
  4053a8:	2484c654 	addiu	a0,a0,-14764
  4053ac:	1000ffed 	b	405364 <sys_mem_map+0xbc>
  4053b0:	2403fffe 	li	v1,-2
  4053b4:	3c040042 	lui	a0,0x42
  4053b8:	0c10122b 	jal	4048ac <printf>
  4053bc:	2484c678 	addiu	a0,a0,-14728
  4053c0:	1000ffe8 	b	405364 <sys_mem_map+0xbc>
  4053c4:	2403fffc 	li	v1,-4
  4053c8:	3c040042 	lui	a0,0x42
  4053cc:	0c10122b 	jal	4048ac <printf>
  4053d0:	2484c694 	addiu	a0,a0,-14700
  4053d4:	1000ffe3 	b	405364 <sys_mem_map+0xbc>
  4053d8:	2403fffc 	li	v1,-4
  4053dc:	3c040042 	lui	a0,0x42
  4053e0:	0c10122b 	jal	4048ac <printf>
  4053e4:	2484c6b4 	addiu	a0,a0,-14668
  4053e8:	1000ffde 	b	405364 <sys_mem_map+0xbc>
  4053ec:	2403fffc 	li	v1,-4
  4053f0:	3c040042 	lui	a0,0x42
  4053f4:	0c10122b 	jal	4048ac <printf>
  4053f8:	2484c6dc 	addiu	a0,a0,-14628
  4053fc:	1000ffd9 	b	405364 <sys_mem_map+0xbc>
  405400:	2403fffc 	li	v1,-4

00405404 <sys_mem_unmap>:
  405404:	27bdffd8 	addiu	sp,sp,-40
  405408:	afbf0024 	sw	ra,36(sp)
  40540c:	afb10020 	sw	s1,32(sp)
  405410:	afb0001c 	sw	s0,28(sp)
  405414:	00a02025 	move	a0,a1
  405418:	00c08825 	move	s1,a2
  40541c:	24060001 	li	a2,1
  405420:	0c100cb7 	jal	4032dc <envid2env>
  405424:	27a50010 	addiu	a1,sp,16
  405428:	0440000f 	bltz	v0,405468 <sys_mem_unmap+0x64>
  40542c:	3c040042 	lui	a0,0x42
  405430:	00408025 	move	s0,v0
  405434:	3c027f40 	lui	v0,0x7f40
  405438:	0222102b 	sltu	v0,s1,v0
  40543c:	1040000e 	beqz	v0,405478 <sys_mem_unmap+0x74>
  405440:	02202825 	move	a1,s1
  405444:	8fa20010 	lw	v0,16(sp)
  405448:	0c102114 	jal	408450 <page_remove>
  40544c:	8c4400b0 	lw	a0,176(v0)
  405450:	02001025 	move	v0,s0
  405454:	8fbf0024 	lw	ra,36(sp)
  405458:	8fb10020 	lw	s1,32(sp)
  40545c:	8fb0001c 	lw	s0,28(sp)
  405460:	03e00008 	jr	ra
  405464:	27bd0028 	addiu	sp,sp,40
  405468:	0c10122b 	jal	4048ac <printf>
  40546c:	2484c5e0 	addiu	a0,a0,-14880
  405470:	1000fff7 	b	405450 <sys_mem_unmap+0x4c>
  405474:	2410fffe 	li	s0,-2
  405478:	3c040042 	lui	a0,0x42
  40547c:	0c10122b 	jal	4048ac <printf>
  405480:	2484c6fc 	addiu	a0,a0,-14596
  405484:	1000fff2 	b	405450 <sys_mem_unmap+0x4c>
  405488:	2410fffc 	li	s0,-4

0040548c <sys_env_alloc>:
  40548c:	27bdffe0 	addiu	sp,sp,-32
  405490:	afbf001c 	sw	ra,28(sp)
  405494:	afb00018 	sw	s0,24(sp)
  405498:	3c020042 	lui	v0,0x42
  40549c:	8c425740 	lw	v0,22336(v0)
  4054a0:	8c4500a4 	lw	a1,164(v0)
  4054a4:	0c100cfd 	jal	4033f4 <env_alloc>
  4054a8:	27a40010 	addiu	a0,sp,16
  4054ac:	04400016 	bltz	v0,405508 <sys_env_alloc+0x7c>
  4054b0:	8fa50010 	lw	a1,16(sp)
  4054b4:	24020002 	li	v0,2
  4054b8:	aca200ac 	sw	v0,172(a1)
  4054bc:	3c020042 	lui	v0,0x42
  4054c0:	8c44b638 	lw	a0,-18888(v0)
  4054c4:	2406009c 	li	a2,156
  4054c8:	0c102468 	jal	4091a0 <bcopy>
  4054cc:	2484ff64 	addiu	a0,a0,-156
  4054d0:	8fa20010 	lw	v0,16(sp)
  4054d4:	ac400008 	sw	zero,8(v0)
  4054d8:	3c030042 	lui	v1,0x42
  4054dc:	8c635740 	lw	v1,22336(v1)
  4054e0:	8c6300c0 	lw	v1,192(v1)
  4054e4:	ac4300c0 	sw	v1,192(v0)
  4054e8:	8c430094 	lw	v1,148(v0)
  4054ec:	ac430098 	sw	v1,152(v0)
  4054f0:	8c5000a4 	lw	s0,164(v0)
  4054f4:	02001025 	move	v0,s0
  4054f8:	8fbf001c 	lw	ra,28(sp)
  4054fc:	8fb00018 	lw	s0,24(sp)
  405500:	03e00008 	jr	ra
  405504:	27bd0020 	addiu	sp,sp,32
  405508:	00408025 	move	s0,v0
  40550c:	3c040042 	lui	a0,0x42
  405510:	0c10122b 	jal	4048ac <printf>
  405514:	2484c71c 	addiu	a0,a0,-14564
  405518:	1000fff7 	b	4054f8 <sys_env_alloc+0x6c>
  40551c:	02001025 	move	v0,s0

00405520 <sys_set_env_status>:
  405520:	27bdffe0 	addiu	sp,sp,-32
  405524:	afbf001c 	sw	ra,28(sp)
  405528:	2cc20003 	sltiu	v0,a2,3
  40552c:	10400022 	beqz	v0,4055b8 <sys_set_env_status+0x98>
  405530:	afb00018 	sw	s0,24(sp)
  405534:	00a02025 	move	a0,a1
  405538:	00c08025 	move	s0,a2
  40553c:	00003025 	move	a2,zero
  405540:	0c100cb7 	jal	4032dc <envid2env>
  405544:	27a50010 	addiu	a1,sp,16
  405548:	04400020 	bltz	v0,4055cc <sys_set_env_status+0xac>
  40554c:	3c040042 	lui	a0,0x42
  405550:	02001025 	move	v0,s0
  405554:	7c020844 	ins	v0,zero,0x1,0x1
  405558:	10400020 	beqz	v0,4055dc <sys_set_env_status+0xbc>
  40555c:	8fa20010 	lw	v0,16(sp)
  405560:	24020001 	li	v0,1
  405564:	16020029 	bne	s0,v0,40560c <sys_set_env_status+0xec>
  405568:	8fa20010 	lw	v0,16(sp)
  40556c:	8fa30010 	lw	v1,16(sp)
  405570:	3c020042 	lui	v0,0x42
  405574:	8c42573c 	lw	v0,22332(v0)
  405578:	00022080 	sll	a0,v0,0x2
  40557c:	3c050042 	lui	a1,0x42
  405580:	24a55d68 	addiu	a1,a1,23912
  405584:	00852021 	addu	a0,a0,a1
  405588:	8c840000 	lw	a0,0(a0)
  40558c:	10800003 	beqz	a0,40559c <sys_set_env_status+0x7c>
  405590:	ac6400b8 	sw	a0,184(v1)
  405594:	246500b8 	addiu	a1,v1,184
  405598:	ac8500bc 	sw	a1,188(a0)
  40559c:	00021080 	sll	v0,v0,0x2
  4055a0:	3c040042 	lui	a0,0x42
  4055a4:	24845d68 	addiu	a0,a0,23912
  4055a8:	00441021 	addu	v0,v0,a0
  4055ac:	ac430000 	sw	v1,0(v0)
  4055b0:	10000015 	b	405608 <sys_set_env_status+0xe8>
  4055b4:	ac6200bc 	sw	v0,188(v1)
  4055b8:	3c040042 	lui	a0,0x42
  4055bc:	0c10122b 	jal	4048ac <printf>
  4055c0:	2484c738 	addiu	a0,a0,-14536
  4055c4:	10000013 	b	405614 <sys_set_env_status+0xf4>
  4055c8:	2402fffd 	li	v0,-3
  4055cc:	0c10122b 	jal	4048ac <printf>
  4055d0:	2484c754 	addiu	a0,a0,-14508
  4055d4:	1000000f 	b	405614 <sys_set_env_status+0xf4>
  4055d8:	2402fffe 	li	v0,-2
  4055dc:	8c4300ac 	lw	v1,172(v0)
  4055e0:	5203000a 	beql	s0,v1,40560c <sys_set_env_status+0xec>
  4055e4:	8fa20010 	lw	v0,16(sp)
  4055e8:	8c4300b8 	lw	v1,184(v0)
  4055ec:	50600004 	beqzl	v1,405600 <sys_set_env_status+0xe0>
  4055f0:	8c4300bc 	lw	v1,188(v0)
  4055f4:	8c4400bc 	lw	a0,188(v0)
  4055f8:	ac6400bc 	sw	a0,188(v1)
  4055fc:	8c4300bc 	lw	v1,188(v0)
  405600:	8c4200b8 	lw	v0,184(v0)
  405604:	ac620000 	sw	v0,0(v1)
  405608:	8fa20010 	lw	v0,16(sp)
  40560c:	ac5000ac 	sw	s0,172(v0)
  405610:	00001025 	move	v0,zero
  405614:	8fbf001c 	lw	ra,28(sp)
  405618:	8fb00018 	lw	s0,24(sp)
  40561c:	03e00008 	jr	ra
  405620:	27bd0020 	addiu	sp,sp,32

00405624 <sys_set_trapframe>:
  405624:	27bdffe0 	addiu	sp,sp,-32
  405628:	afbf001c 	sw	ra,28(sp)
  40562c:	afb00018 	sw	s0,24(sp)
  405630:	00a02025 	move	a0,a1
  405634:	00c08025 	move	s0,a2
  405638:	24060001 	li	a2,1
  40563c:	0c100cb7 	jal	4032dc <envid2env>
  405640:	27a50010 	addiu	a1,sp,16
  405644:	04400015 	bltz	v0,40569c <sys_set_trapframe+0x78>
  405648:	8fa30010 	lw	v1,16(sp)
  40564c:	02001025 	move	v0,s0
  405650:	26100090 	addiu	s0,s0,144
  405654:	8c470000 	lw	a3,0(v0)
  405658:	8c460004 	lw	a2,4(v0)
  40565c:	8c450008 	lw	a1,8(v0)
  405660:	8c44000c 	lw	a0,12(v0)
  405664:	ac670000 	sw	a3,0(v1)
  405668:	ac660004 	sw	a2,4(v1)
  40566c:	ac650008 	sw	a1,8(v1)
  405670:	ac64000c 	sw	a0,12(v1)
  405674:	24420010 	addiu	v0,v0,16
  405678:	1450fff6 	bne	v0,s0,405654 <sys_set_trapframe+0x30>
  40567c:	24630010 	addiu	v1,v1,16
  405680:	8c450000 	lw	a1,0(v0)
  405684:	8c440004 	lw	a0,4(v0)
  405688:	8c420008 	lw	v0,8(v0)
  40568c:	ac650000 	sw	a1,0(v1)
  405690:	ac640004 	sw	a0,4(v1)
  405694:	ac620008 	sw	v0,8(v1)
  405698:	00001025 	move	v0,zero
  40569c:	8fbf001c 	lw	ra,28(sp)
  4056a0:	8fb00018 	lw	s0,24(sp)
  4056a4:	03e00008 	jr	ra
  4056a8:	27bd0020 	addiu	sp,sp,32

004056ac <sys_panic>:
  4056ac:	27bdffe8 	addiu	sp,sp,-24
  4056b0:	afbf0014 	sw	ra,20(sp)
  4056b4:	3c028000 	lui	v0,0x8000
  4056b8:	24420001 	addiu	v0,v0,1
  4056bc:	00a2102b 	sltu	v0,a1,v0
  4056c0:	3c078000 	lui	a3,0x8000
  4056c4:	00a2380b 	movn	a3,a1,v0
  4056c8:	3c060042 	lui	a2,0x42
  4056cc:	24c6c090 	addiu	a2,a2,-16240
  4056d0:	24050188 	li	a1,392
  4056d4:	3c040042 	lui	a0,0x42
  4056d8:	0c10123f 	jal	4048fc <_panic>
  4056dc:	2484c770 	addiu	a0,a0,-14480

004056e0 <sys_ipc_recv>:
  4056e0:	27bdffe8 	addiu	sp,sp,-24
  4056e4:	afbf0014 	sw	ra,20(sp)
  4056e8:	3c020042 	lui	v0,0x42
  4056ec:	8c44b638 	lw	a0,-18888(v0)
  4056f0:	3c027f40 	lui	v0,0x7f40
  4056f4:	00a2102b 	sltu	v0,a1,v0
  4056f8:	1040001a 	beqz	v0,405764 <sys_ipc_recv+0x84>
  4056fc:	3c020042 	lui	v0,0x42
  405700:	8c425740 	lw	v0,22336(v0)
  405704:	24030002 	li	v1,2
  405708:	ac4300ac 	sw	v1,172(v0)
  40570c:	24030001 	li	v1,1
  405710:	ac4300cc 	sw	v1,204(v0)
  405714:	ac4500d0 	sw	a1,208(v0)
  405718:	8c4300b8 	lw	v1,184(v0)
  40571c:	10600003 	beqz	v1,40572c <sys_ipc_recv+0x4c>
  405720:	2484ff64 	addiu	a0,a0,-156
  405724:	8c4500bc 	lw	a1,188(v0)
  405728:	ac6500bc 	sw	a1,188(v1)
  40572c:	8c4300bc 	lw	v1,188(v0)
  405730:	8c4200b8 	lw	v0,184(v0)
  405734:	ac620000 	sw	v0,0(v1)
  405738:	3c020042 	lui	v0,0x42
  40573c:	ac405d70 	sw	zero,23920(v0)
  405740:	2406009c 	li	a2,156
  405744:	3c0581ff 	lui	a1,0x81ff
  405748:	0c102468 	jal	4091a0 <bcopy>
  40574c:	34a5ff64 	ori	a1,a1,0xff64
  405750:	0c1012aa 	jal	404aa8 <sched_yield>
  405754:	00000000 	nop
  405758:	8fbf0014 	lw	ra,20(sp)
  40575c:	03e00008 	jr	ra
  405760:	27bd0018 	addiu	sp,sp,24
  405764:	3c040042 	lui	a0,0x42
  405768:	0c10122b 	jal	4048ac <printf>
  40576c:	2484c780 	addiu	a0,a0,-14464
  405770:	1000fffa 	b	40575c <sys_ipc_recv+0x7c>
  405774:	8fbf0014 	lw	ra,20(sp)

00405778 <sys_ipc_can_send>:
  405778:	27bdffd8 	addiu	sp,sp,-40
  40577c:	afbf0024 	sw	ra,36(sp)
  405780:	afb10020 	sw	s1,32(sp)
  405784:	afb0001c 	sw	s0,28(sp)
  405788:	00a02025 	move	a0,a1
  40578c:	00c08825 	move	s1,a2
  405790:	00e08025 	move	s0,a3
  405794:	00003025 	move	a2,zero
  405798:	0c100cb7 	jal	4032dc <envid2env>
  40579c:	27a50010 	addiu	a1,sp,16
  4057a0:	04400030 	bltz	v0,405864 <sys_ipc_can_send+0xec>
  4057a4:	24030002 	li	v1,2
  4057a8:	8fa20010 	lw	v0,16(sp)
  4057ac:	8c4400ac 	lw	a0,172(v0)
  4057b0:	54830027 	bnel	a0,v1,405850 <sys_ipc_can_send+0xd8>
  4057b4:	2402fffa 	li	v0,-6
  4057b8:	8c4200cc 	lw	v0,204(v0)
  4057bc:	10400024 	beqz	v0,405850 <sys_ipc_can_send+0xd8>
  4057c0:	2402fffa 	li	v0,-6
  4057c4:	3c027f40 	lui	v0,0x7f40
  4057c8:	0202102b 	sltu	v0,s0,v0
  4057cc:	1040002a 	beqz	v0,405878 <sys_ipc_can_send+0x100>
  4057d0:	3c040042 	lui	a0,0x42
  4057d4:	1600002c 	bnez	s0,405888 <sys_ipc_can_send+0x110>
  4057d8:	3c020042 	lui	v0,0x42
  4057dc:	8fa20010 	lw	v0,16(sp)
  4057e0:	ac5100c4 	sw	s1,196(v0)
  4057e4:	3c030042 	lui	v1,0x42
  4057e8:	8c635740 	lw	v1,22336(v1)
  4057ec:	8c6300a4 	lw	v1,164(v1)
  4057f0:	ac4300c8 	sw	v1,200(v0)
  4057f4:	8fa30038 	lw	v1,56(sp)
  4057f8:	ac4300d4 	sw	v1,212(v0)
  4057fc:	ac4000cc 	sw	zero,204(v0)
  405800:	24030001 	li	v1,1
  405804:	ac4300ac 	sw	v1,172(v0)
  405808:	3c030042 	lui	v1,0x42
  40580c:	8c63573c 	lw	v1,22332(v1)
  405810:	00032080 	sll	a0,v1,0x2
  405814:	3c050042 	lui	a1,0x42
  405818:	24a55d68 	addiu	a1,a1,23912
  40581c:	00852021 	addu	a0,a0,a1
  405820:	8c840000 	lw	a0,0(a0)
  405824:	10800003 	beqz	a0,405834 <sys_ipc_can_send+0xbc>
  405828:	ac4400b8 	sw	a0,184(v0)
  40582c:	244500b8 	addiu	a1,v0,184
  405830:	ac8500bc 	sw	a1,188(a0)
  405834:	00031880 	sll	v1,v1,0x2
  405838:	3c040042 	lui	a0,0x42
  40583c:	24845d68 	addiu	a0,a0,23912
  405840:	00641821 	addu	v1,v1,a0
  405844:	ac620000 	sw	v0,0(v1)
  405848:	ac4300bc 	sw	v1,188(v0)
  40584c:	00001025 	move	v0,zero
  405850:	8fbf0024 	lw	ra,36(sp)
  405854:	8fb10020 	lw	s1,32(sp)
  405858:	8fb0001c 	lw	s0,28(sp)
  40585c:	03e00008 	jr	ra
  405860:	27bd0028 	addiu	sp,sp,40
  405864:	3c040042 	lui	a0,0x42
  405868:	0c10122b 	jal	4048ac <printf>
  40586c:	2484c7a4 	addiu	a0,a0,-14428
  405870:	1000fff7 	b	405850 <sys_ipc_can_send+0xd8>
  405874:	2402fffe 	li	v0,-2
  405878:	0c10122b 	jal	4048ac <printf>
  40587c:	2484c7c0 	addiu	a0,a0,-14400
  405880:	1000fff3 	b	405850 <sys_ipc_can_send+0xd8>
  405884:	2402fffc 	li	v0,-4
  405888:	8c425740 	lw	v0,22336(v0)
  40588c:	27a60014 	addiu	a2,sp,20
  405890:	02002825 	move	a1,s0
  405894:	0c1020d9 	jal	408364 <page_lookup>
  405898:	8c4400b0 	lw	a0,176(v0)
  40589c:	1040000d 	beqz	v0,4058d4 <sys_ipc_can_send+0x15c>
  4058a0:	8fa30010 	lw	v1,16(sp)
  4058a4:	8fa70038 	lw	a3,56(sp)
  4058a8:	8c6600d0 	lw	a2,208(v1)
  4058ac:	00402825 	move	a1,v0
  4058b0:	0c102131 	jal	4084c4 <page_insert>
  4058b4:	8c6400b0 	lw	a0,176(v1)
  4058b8:	0443ffc9 	bgezl	v0,4057e0 <sys_ipc_can_send+0x68>
  4058bc:	8fa20010 	lw	v0,16(sp)
  4058c0:	3c040042 	lui	a0,0x42
  4058c4:	0c10122b 	jal	4048ac <printf>
  4058c8:	2484c810 	addiu	a0,a0,-14320
  4058cc:	1000ffe0 	b	405850 <sys_ipc_can_send+0xd8>
  4058d0:	2402fffc 	li	v0,-4
  4058d4:	3c040042 	lui	a0,0x42
  4058d8:	0c10122b 	jal	4048ac <printf>
  4058dc:	2484c7ec 	addiu	a0,a0,-14356
  4058e0:	1000ffdb 	b	405850 <sys_ipc_can_send+0xd8>
  4058e4:	2402fffc 	li	v0,-4
  4058e8:	1000ffd9 	b	405850 <sys_ipc_can_send+0xd8>
  4058ec:	2402fffa 	li	v0,-6

004058f0 <sys_write_dev>:
  4058f0:	27bdffe8 	addiu	sp,sp,-24
  4058f4:	afbf0014 	sw	ra,20(sp)
  4058f8:	00a02025 	move	a0,a1
  4058fc:	00c01025 	move	v0,a2
  405900:	3c031000 	lui	v1,0x1000
  405904:	00c3182b 	sltu	v1,a2,v1
  405908:	14600006 	bnez	v1,405924 <sys_write_dev+0x34>
  40590c:	00c72821 	addu	a1,a2,a3
  405910:	3c031000 	lui	v1,0x1000
  405914:	24630021 	addiu	v1,v1,33
  405918:	00a3182b 	sltu	v1,a1,v1
  40591c:	54600012 	bnezl	v1,405968 <sys_write_dev+0x78>
  405920:	00e03025 	move	a2,a3
  405924:	3c031300 	lui	v1,0x1300
  405928:	0043182b 	sltu	v1,v0,v1
  40592c:	14600007 	bnez	v1,40594c <sys_write_dev+0x5c>
  405930:	3c031500 	lui	v1,0x1500
  405934:	3c031300 	lui	v1,0x1300
  405938:	24634201 	addiu	v1,v1,16897
  40593c:	00a3182b 	sltu	v1,a1,v1
  405940:	54600009 	bnezl	v1,405968 <sys_write_dev+0x78>
  405944:	00e03025 	move	a2,a3
  405948:	3c031500 	lui	v1,0x1500
  40594c:	0043182b 	sltu	v1,v0,v1
  405950:	1460000c 	bnez	v1,405984 <sys_write_dev+0x94>
  405954:	3c031500 	lui	v1,0x1500
  405958:	24630201 	addiu	v1,v1,513
  40595c:	00a3282b 	sltu	a1,a1,v1
  405960:	10a00008 	beqz	a1,405984 <sys_write_dev+0x94>
  405964:	00e03025 	move	a2,a3
  405968:	3c05a000 	lui	a1,0xa000
  40596c:	0c102468 	jal	4091a0 <bcopy>
  405970:	00452821 	addu	a1,v0,a1
  405974:	00001025 	move	v0,zero
  405978:	8fbf0014 	lw	ra,20(sp)
  40597c:	03e00008 	jr	ra
  405980:	27bd0018 	addiu	sp,sp,24
  405984:	3c040042 	lui	a0,0x42
  405988:	0c10122b 	jal	4048ac <printf>
  40598c:	2484c830 	addiu	a0,a0,-14288
  405990:	1000fff9 	b	405978 <sys_write_dev+0x88>
  405994:	2402fffd 	li	v0,-3

00405998 <sys_read_dev>:
  405998:	27bdffe8 	addiu	sp,sp,-24
  40599c:	afbf0014 	sw	ra,20(sp)
  4059a0:	00c01025 	move	v0,a2
  4059a4:	3c031000 	lui	v1,0x1000
  4059a8:	00c3182b 	sltu	v1,a2,v1
  4059ac:	14600006 	bnez	v1,4059c8 <sys_read_dev+0x30>
  4059b0:	00c72021 	addu	a0,a2,a3
  4059b4:	3c031000 	lui	v1,0x1000
  4059b8:	24630021 	addiu	v1,v1,33
  4059bc:	0083182b 	sltu	v1,a0,v1
  4059c0:	54600012 	bnezl	v1,405a0c <sys_read_dev+0x74>
  4059c4:	00e03025 	move	a2,a3
  4059c8:	3c031300 	lui	v1,0x1300
  4059cc:	0043182b 	sltu	v1,v0,v1
  4059d0:	14600007 	bnez	v1,4059f0 <sys_read_dev+0x58>
  4059d4:	3c031500 	lui	v1,0x1500
  4059d8:	3c031300 	lui	v1,0x1300
  4059dc:	24634201 	addiu	v1,v1,16897
  4059e0:	0083182b 	sltu	v1,a0,v1
  4059e4:	54600009 	bnezl	v1,405a0c <sys_read_dev+0x74>
  4059e8:	00e03025 	move	a2,a3
  4059ec:	3c031500 	lui	v1,0x1500
  4059f0:	0043182b 	sltu	v1,v0,v1
  4059f4:	1460000c 	bnez	v1,405a28 <sys_read_dev+0x90>
  4059f8:	3c031500 	lui	v1,0x1500
  4059fc:	24630201 	addiu	v1,v1,513
  405a00:	0083202b 	sltu	a0,a0,v1
  405a04:	10800008 	beqz	a0,405a28 <sys_read_dev+0x90>
  405a08:	00e03025 	move	a2,a3
  405a0c:	3c04a000 	lui	a0,0xa000
  405a10:	0c102468 	jal	4091a0 <bcopy>
  405a14:	00442021 	addu	a0,v0,a0
  405a18:	00001025 	move	v0,zero
  405a1c:	8fbf0014 	lw	ra,20(sp)
  405a20:	03e00008 	jr	ra
  405a24:	27bd0018 	addiu	sp,sp,24
  405a28:	3c040042 	lui	a0,0x42
  405a2c:	0c10122b 	jal	4048ac <printf>
  405a30:	2484c84c 	addiu	a0,a0,-14260
  405a34:	1000fff9 	b	405a1c <sys_read_dev+0x84>
  405a38:	2402fffd 	li	v0,-3

00405a3c <trap_init>:
  405a3c:	3c020042 	lui	v0,0x42
  405a40:	24425d74 	addiu	v0,v0,23924
  405a44:	3c040042 	lui	a0,0x42
  405a48:	24845df4 	addiu	a0,a0,24052
  405a4c:	3c030041 	lui	v1,0x41
  405a50:	2463b5e0 	addiu	v1,v1,-18976
  405a54:	ac430000 	sw	v1,0(v0)
  405a58:	24420004 	addiu	v0,v0,4
  405a5c:	5482fffe 	bnel	a0,v0,405a58 <trap_init+0x1c>
  405a60:	ac430000 	sw	v1,0(v0)
  405a64:	3c020042 	lui	v0,0x42
  405a68:	3c030041 	lui	v1,0x41
  405a6c:	2463b3a0 	addiu	v1,v1,-19552
  405a70:	ac435d74 	sw	v1,23924(v0)
  405a74:	24425d74 	addiu	v0,v0,23924
  405a78:	3c030041 	lui	v1,0x41
  405a7c:	2463b860 	addiu	v1,v1,-18336
  405a80:	ac430004 	sw	v1,4(v0)
  405a84:	3c030041 	lui	v1,0x41
  405a88:	2463b720 	addiu	v1,v1,-18656
  405a8c:	ac430008 	sw	v1,8(v0)
  405a90:	ac43000c 	sw	v1,12(v0)
  405a94:	3c030041 	lui	v1,0x41
  405a98:	2463b9f0 	addiu	v1,v1,-17936
  405a9c:	03e00008 	jr	ra
  405aa0:	ac430020 	sw	v1,32(v0)

00405aa4 <set_except_vector>:
  405aa4:	00042080 	sll	a0,a0,0x2
  405aa8:	3c020042 	lui	v0,0x42
  405aac:	24425d74 	addiu	v0,v0,23924
  405ab0:	00822021 	addu	a0,a0,v0
  405ab4:	8c820000 	lw	v0,0(a0)
  405ab8:	03e00008 	jr	ra
  405abc:	ac850000 	sw	a1,0(a0)

00405ac0 <page_fault_handler>:
  405ac0:	27bdff60 	addiu	sp,sp,-160
  405ac4:	00801025 	move	v0,a0
  405ac8:	03a01825 	move	v1,sp
  405acc:	24890090 	addiu	t1,a0,144
  405ad0:	88480003 	lwl	t0,3(v0)
  405ad4:	98480000 	lwr	t0,0(v0)
  405ad8:	88470007 	lwl	a3,7(v0)
  405adc:	98470004 	lwr	a3,4(v0)
  405ae0:	8846000b 	lwl	a2,11(v0)
  405ae4:	98460008 	lwr	a2,8(v0)
  405ae8:	8845000f 	lwl	a1,15(v0)
  405aec:	9845000c 	lwr	a1,12(v0)
  405af0:	ac680000 	sw	t0,0(v1)
  405af4:	ac670004 	sw	a3,4(v1)
  405af8:	ac660008 	sw	a2,8(v1)
  405afc:	ac65000c 	sw	a1,12(v1)
  405b00:	24420010 	addiu	v0,v0,16
  405b04:	1449fff2 	bne	v0,t1,405ad0 <page_fault_handler+0x10>
  405b08:	24630010 	addiu	v1,v1,16
  405b0c:	88470003 	lwl	a3,3(v0)
  405b10:	98470000 	lwr	a3,0(v0)
  405b14:	88460007 	lwl	a2,7(v0)
  405b18:	98460004 	lwr	a2,4(v0)
  405b1c:	8845000b 	lwl	a1,11(v0)
  405b20:	98450008 	lwr	a1,8(v0)
  405b24:	ac670000 	sw	a3,0(v1)
  405b28:	ac660004 	sw	a2,4(v1)
  405b2c:	ac650008 	sw	a1,8(v1)
  405b30:	8c820074 	lw	v0,116(a0)
  405b34:	3c030042 	lui	v1,0x42
  405b38:	8c665740 	lw	a2,22336(v1)
  405b3c:	8cc300dc 	lw	v1,220(a2)
  405b40:	2465f000 	addiu	a1,v1,-4096
  405b44:	0045282b 	sltu	a1,v0,a1
  405b48:	14a00004 	bnez	a1,405b5c <page_fault_handler+0x9c>
  405b4c:	2465ffff 	addiu	a1,v1,-1
  405b50:	00a2282b 	sltu	a1,a1,v0
  405b54:	50a00025 	beqzl	a1,405bec <page_fault_handler+0x12c>
  405b58:	2442ff64 	addiu	v0,v0,-156
  405b5c:	2463ff64 	addiu	v1,v1,-156
  405b60:	ac830074 	sw	v1,116(a0)
  405b64:	8cc200dc 	lw	v0,220(a2)
  405b68:	03a01825 	move	v1,sp
  405b6c:	2442ff64 	addiu	v0,v0,-156
  405b70:	27a90090 	addiu	t1,sp,144
  405b74:	8c680000 	lw	t0,0(v1)
  405b78:	8c670004 	lw	a3,4(v1)
  405b7c:	8c660008 	lw	a2,8(v1)
  405b80:	8c65000c 	lw	a1,12(v1)
  405b84:	a8480003 	swl	t0,3(v0)
  405b88:	b8480000 	swr	t0,0(v0)
  405b8c:	a8470007 	swl	a3,7(v0)
  405b90:	b8470004 	swr	a3,4(v0)
  405b94:	a846000b 	swl	a2,11(v0)
  405b98:	b8460008 	swr	a2,8(v0)
  405b9c:	a845000f 	swl	a1,15(v0)
  405ba0:	b845000c 	swr	a1,12(v0)
  405ba4:	24630010 	addiu	v1,v1,16
  405ba8:	1469fff2 	bne	v1,t1,405b74 <page_fault_handler+0xb4>
  405bac:	24420010 	addiu	v0,v0,16
  405bb0:	8c660000 	lw	a2,0(v1)
  405bb4:	8c650004 	lw	a1,4(v1)
  405bb8:	8c630008 	lw	v1,8(v1)
  405bbc:	a8460003 	swl	a2,3(v0)
  405bc0:	b8460000 	swr	a2,0(v0)
  405bc4:	a8450007 	swl	a1,7(v0)
  405bc8:	b8450004 	swr	a1,4(v0)
  405bcc:	a843000b 	swl	v1,11(v0)
  405bd0:	b8430008 	swr	v1,8(v0)
  405bd4:	3c020042 	lui	v0,0x42
  405bd8:	8c425740 	lw	v0,22336(v0)
  405bdc:	8c4200d8 	lw	v0,216(v0)
  405be0:	ac820094 	sw	v0,148(a0)
  405be4:	03e00008 	jr	ra
  405be8:	27bd00a0 	addiu	sp,sp,160
  405bec:	ac820074 	sw	v0,116(a0)
  405bf0:	03a01825 	move	v1,sp
  405bf4:	27a90090 	addiu	t1,sp,144
  405bf8:	8c680000 	lw	t0,0(v1)
  405bfc:	8c670004 	lw	a3,4(v1)
  405c00:	8c660008 	lw	a2,8(v1)
  405c04:	8c65000c 	lw	a1,12(v1)
  405c08:	a8480003 	swl	t0,3(v0)
  405c0c:	b8480000 	swr	t0,0(v0)
  405c10:	a8470007 	swl	a3,7(v0)
  405c14:	b8470004 	swr	a3,4(v0)
  405c18:	a846000b 	swl	a2,11(v0)
  405c1c:	b8460008 	swr	a2,8(v0)
  405c20:	a845000f 	swl	a1,15(v0)
  405c24:	b845000c 	swr	a1,12(v0)
  405c28:	24630010 	addiu	v1,v1,16
  405c2c:	1469fff2 	bne	v1,t1,405bf8 <page_fault_handler+0x138>
  405c30:	24420010 	addiu	v0,v0,16
  405c34:	8c660000 	lw	a2,0(v1)
  405c38:	8c650004 	lw	a1,4(v1)
  405c3c:	8c630008 	lw	v1,8(v1)
  405c40:	a8460003 	swl	a2,3(v0)
  405c44:	b8460000 	swr	a2,0(v0)
  405c48:	a8450007 	swl	a1,7(v0)
  405c4c:	b8450004 	swr	a1,4(v0)
  405c50:	a843000b 	swl	v1,11(v0)
  405c54:	1000ffdf 	b	405bd4 <page_fault_handler+0x114>
  405c58:	b8430008 	swr	v1,8(v0)

00405c5c <set_buzzers>:
  405c5c:	3c02b070 	lui	v0,0xb070
  405c60:	ac440000 	sw	a0,0(v0)
  405c64:	03e00008 	jr	ra
  405c68:	00000000 	nop

00405c6c <delay_zero>:
  405c6c:	27bdfff8 	addiu	sp,sp,-8
  405c70:	afa00000 	sw	zero,0(sp)
  405c74:	8fa20000 	lw	v0,0(sp)
  405c78:	3c030026 	lui	v1,0x26
  405c7c:	246325a0 	addiu	v1,v1,9632
  405c80:	0043102b 	sltu	v0,v0,v1
  405c84:	1040000a 	beqz	v0,405cb0 <delay_zero+0x44>
  405c88:	00000000 	nop
  405c8c:	3c030026 	lui	v1,0x26
  405c90:	246325a0 	addiu	v1,v1,9632
  405c94:	8fa20000 	lw	v0,0(sp)
  405c98:	24420001 	addiu	v0,v0,1
  405c9c:	afa20000 	sw	v0,0(sp)
  405ca0:	8fa20000 	lw	v0,0(sp)
  405ca4:	0043102b 	sltu	v0,v0,v1
  405ca8:	1440fffa 	bnez	v0,405c94 <delay_zero+0x28>
  405cac:	00000000 	nop
  405cb0:	03e00008 	jr	ra
  405cb4:	27bd0008 	addiu	sp,sp,8

00405cb8 <delay_do>:
  405cb8:	27bdffe0 	addiu	sp,sp,-32
  405cbc:	afbf001c 	sw	ra,28(sp)
  405cc0:	3c040011 	lui	a0,0x11
  405cc4:	0c101c11 	jal	407044 <set_leds>
  405cc8:	24841111 	addiu	a0,a0,4369
  405ccc:	0c101ce6 	jal	407398 <set_seven_seg_value>
  405cd0:	24040418 	li	a0,1048
  405cd4:	afa00010 	sw	zero,16(sp)
  405cd8:	8fa20010 	lw	v0,16(sp)
  405cdc:	3c03000f 	lui	v1,0xf
  405ce0:	24634240 	addiu	v1,v1,16960
  405ce4:	0043102b 	sltu	v0,v0,v1
  405ce8:	1040000d 	beqz	v0,405d20 <delay_do+0x68>
  405cec:	3c02b070 	lui	v0,0xb070
  405cf0:	3c05b070 	lui	a1,0xb070
  405cf4:	24040418 	li	a0,1048
  405cf8:	3c03000f 	lui	v1,0xf
  405cfc:	24634240 	addiu	v1,v1,16960
  405d00:	aca40000 	sw	a0,0(a1)
  405d04:	8fa20010 	lw	v0,16(sp)
  405d08:	24420001 	addiu	v0,v0,1
  405d0c:	afa20010 	sw	v0,16(sp)
  405d10:	8fa20010 	lw	v0,16(sp)
  405d14:	0043102b 	sltu	v0,v0,v1
  405d18:	1440fff9 	bnez	v0,405d00 <delay_do+0x48>
  405d1c:	3c02b070 	lui	v0,0xb070
  405d20:	ac400000 	sw	zero,0(v0)
  405d24:	8fbf001c 	lw	ra,28(sp)
  405d28:	03e00008 	jr	ra
  405d2c:	27bd0020 	addiu	sp,sp,32

00405d30 <delay_re>:
  405d30:	27bdffe0 	addiu	sp,sp,-32
  405d34:	afbf001c 	sw	ra,28(sp)
  405d38:	3c040022 	lui	a0,0x22
  405d3c:	0c101c11 	jal	407044 <set_leds>
  405d40:	24842222 	addiu	a0,a0,8738
  405d44:	0c101ce6 	jal	407398 <set_seven_seg_value>
  405d48:	240403dc 	li	a0,988
  405d4c:	afa00010 	sw	zero,16(sp)
  405d50:	8fa20010 	lw	v0,16(sp)
  405d54:	3c03000f 	lui	v1,0xf
  405d58:	24634240 	addiu	v1,v1,16960
  405d5c:	0043102b 	sltu	v0,v0,v1
  405d60:	1040000d 	beqz	v0,405d98 <delay_re+0x68>
  405d64:	3c02b070 	lui	v0,0xb070
  405d68:	3c05b070 	lui	a1,0xb070
  405d6c:	240403dc 	li	a0,988
  405d70:	3c03000f 	lui	v1,0xf
  405d74:	24634240 	addiu	v1,v1,16960
  405d78:	aca40000 	sw	a0,0(a1)
  405d7c:	8fa20010 	lw	v0,16(sp)
  405d80:	24420001 	addiu	v0,v0,1
  405d84:	afa20010 	sw	v0,16(sp)
  405d88:	8fa20010 	lw	v0,16(sp)
  405d8c:	0043102b 	sltu	v0,v0,v1
  405d90:	1440fff9 	bnez	v0,405d78 <delay_re+0x48>
  405d94:	3c02b070 	lui	v0,0xb070
  405d98:	ac400000 	sw	zero,0(v0)
  405d9c:	8fbf001c 	lw	ra,28(sp)
  405da0:	03e00008 	jr	ra
  405da4:	27bd0020 	addiu	sp,sp,32

00405da8 <delay_mi>:
  405da8:	27bdffe0 	addiu	sp,sp,-32
  405dac:	afbf001c 	sw	ra,28(sp)
  405db0:	3c040033 	lui	a0,0x33
  405db4:	0c101c11 	jal	407044 <set_leds>
  405db8:	24843333 	addiu	a0,a0,13107
  405dbc:	0c101ce6 	jal	407398 <set_seven_seg_value>
  405dc0:	24040370 	li	a0,880
  405dc4:	afa00010 	sw	zero,16(sp)
  405dc8:	8fa20010 	lw	v0,16(sp)
  405dcc:	3c03000f 	lui	v1,0xf
  405dd0:	24634240 	addiu	v1,v1,16960
  405dd4:	0043102b 	sltu	v0,v0,v1
  405dd8:	1040000d 	beqz	v0,405e10 <delay_mi+0x68>
  405ddc:	3c02b070 	lui	v0,0xb070
  405de0:	3c05b070 	lui	a1,0xb070
  405de4:	24040370 	li	a0,880
  405de8:	3c03000f 	lui	v1,0xf
  405dec:	24634240 	addiu	v1,v1,16960
  405df0:	aca40000 	sw	a0,0(a1)
  405df4:	8fa20010 	lw	v0,16(sp)
  405df8:	24420001 	addiu	v0,v0,1
  405dfc:	afa20010 	sw	v0,16(sp)
  405e00:	8fa20010 	lw	v0,16(sp)
  405e04:	0043102b 	sltu	v0,v0,v1
  405e08:	1440fff9 	bnez	v0,405df0 <delay_mi+0x48>
  405e0c:	3c02b070 	lui	v0,0xb070
  405e10:	ac400000 	sw	zero,0(v0)
  405e14:	8fbf001c 	lw	ra,28(sp)
  405e18:	03e00008 	jr	ra
  405e1c:	27bd0020 	addiu	sp,sp,32

00405e20 <delay_long_mi>:
  405e20:	27bdffe0 	addiu	sp,sp,-32
  405e24:	afbf001c 	sw	ra,28(sp)
  405e28:	3c040033 	lui	a0,0x33
  405e2c:	0c101c11 	jal	407044 <set_leds>
  405e30:	24843333 	addiu	a0,a0,13107
  405e34:	0c101ce6 	jal	407398 <set_seven_seg_value>
  405e38:	24040370 	li	a0,880
  405e3c:	afa00010 	sw	zero,16(sp)
  405e40:	8fa20010 	lw	v0,16(sp)
  405e44:	3c03000f 	lui	v1,0xf
  405e48:	24634240 	addiu	v1,v1,16960
  405e4c:	0043102b 	sltu	v0,v0,v1
  405e50:	1040000d 	beqz	v0,405e88 <delay_long_mi+0x68>
  405e54:	3c02b070 	lui	v0,0xb070
  405e58:	3c05b070 	lui	a1,0xb070
  405e5c:	24040370 	li	a0,880
  405e60:	3c03000f 	lui	v1,0xf
  405e64:	24634240 	addiu	v1,v1,16960
  405e68:	aca40000 	sw	a0,0(a1)
  405e6c:	8fa20010 	lw	v0,16(sp)
  405e70:	24420001 	addiu	v0,v0,1
  405e74:	afa20010 	sw	v0,16(sp)
  405e78:	8fa20010 	lw	v0,16(sp)
  405e7c:	0043102b 	sltu	v0,v0,v1
  405e80:	1440fff9 	bnez	v0,405e68 <delay_long_mi+0x48>
  405e84:	3c02b070 	lui	v0,0xb070
  405e88:	ac400000 	sw	zero,0(v0)
  405e8c:	8fbf001c 	lw	ra,28(sp)
  405e90:	03e00008 	jr	ra
  405e94:	27bd0020 	addiu	sp,sp,32

00405e98 <delay_fa>:
  405e98:	27bdffe0 	addiu	sp,sp,-32
  405e9c:	afbf001c 	sw	ra,28(sp)
  405ea0:	3c040044 	lui	a0,0x44
  405ea4:	0c101c11 	jal	407044 <set_leds>
  405ea8:	24844444 	addiu	a0,a0,17476
  405eac:	0c101ce6 	jal	407398 <set_seven_seg_value>
  405eb0:	24040310 	li	a0,784
  405eb4:	afa00010 	sw	zero,16(sp)
  405eb8:	8fa20010 	lw	v0,16(sp)
  405ebc:	3c03000f 	lui	v1,0xf
  405ec0:	24634240 	addiu	v1,v1,16960
  405ec4:	0043102b 	sltu	v0,v0,v1
  405ec8:	1040000d 	beqz	v0,405f00 <delay_fa+0x68>
  405ecc:	3c02b070 	lui	v0,0xb070
  405ed0:	3c05b070 	lui	a1,0xb070
  405ed4:	24040310 	li	a0,784
  405ed8:	3c03000f 	lui	v1,0xf
  405edc:	24634240 	addiu	v1,v1,16960
  405ee0:	aca40000 	sw	a0,0(a1)
  405ee4:	8fa20010 	lw	v0,16(sp)
  405ee8:	24420001 	addiu	v0,v0,1
  405eec:	afa20010 	sw	v0,16(sp)
  405ef0:	8fa20010 	lw	v0,16(sp)
  405ef4:	0043102b 	sltu	v0,v0,v1
  405ef8:	1440fff9 	bnez	v0,405ee0 <delay_fa+0x48>
  405efc:	3c02b070 	lui	v0,0xb070
  405f00:	ac400000 	sw	zero,0(v0)
  405f04:	8fbf001c 	lw	ra,28(sp)
  405f08:	03e00008 	jr	ra
  405f0c:	27bd0020 	addiu	sp,sp,32

00405f10 <delay_so>:
  405f10:	27bdffe0 	addiu	sp,sp,-32
  405f14:	afbf001c 	sw	ra,28(sp)
  405f18:	3c040055 	lui	a0,0x55
  405f1c:	0c101c11 	jal	407044 <set_leds>
  405f20:	24845555 	addiu	a0,a0,21845
  405f24:	0c101ce6 	jal	407398 <set_seven_seg_value>
  405f28:	240402ba 	li	a0,698
  405f2c:	afa00010 	sw	zero,16(sp)
  405f30:	8fa20010 	lw	v0,16(sp)
  405f34:	3c03000f 	lui	v1,0xf
  405f38:	24634240 	addiu	v1,v1,16960
  405f3c:	0043102b 	sltu	v0,v0,v1
  405f40:	1040000d 	beqz	v0,405f78 <delay_so+0x68>
  405f44:	3c02b070 	lui	v0,0xb070
  405f48:	3c05b070 	lui	a1,0xb070
  405f4c:	240402ba 	li	a0,698
  405f50:	3c03000f 	lui	v1,0xf
  405f54:	24634240 	addiu	v1,v1,16960
  405f58:	aca40000 	sw	a0,0(a1)
  405f5c:	8fa20010 	lw	v0,16(sp)
  405f60:	24420001 	addiu	v0,v0,1
  405f64:	afa20010 	sw	v0,16(sp)
  405f68:	8fa20010 	lw	v0,16(sp)
  405f6c:	0043102b 	sltu	v0,v0,v1
  405f70:	1440fff9 	bnez	v0,405f58 <delay_so+0x48>
  405f74:	3c02b070 	lui	v0,0xb070
  405f78:	ac400000 	sw	zero,0(v0)
  405f7c:	8fbf001c 	lw	ra,28(sp)
  405f80:	03e00008 	jr	ra
  405f84:	27bd0020 	addiu	sp,sp,32

00405f88 <delay_la>:
  405f88:	27bdffe0 	addiu	sp,sp,-32
  405f8c:	afbf001c 	sw	ra,28(sp)
  405f90:	3c040066 	lui	a0,0x66
  405f94:	0c101c11 	jal	407044 <set_leds>
  405f98:	24846666 	addiu	a0,a0,26214
  405f9c:	0c101ce6 	jal	407398 <set_seven_seg_value>
  405fa0:	24040294 	li	a0,660
  405fa4:	afa00010 	sw	zero,16(sp)
  405fa8:	8fa20010 	lw	v0,16(sp)
  405fac:	3c03000f 	lui	v1,0xf
  405fb0:	24634240 	addiu	v1,v1,16960
  405fb4:	0043102b 	sltu	v0,v0,v1
  405fb8:	1040000d 	beqz	v0,405ff0 <delay_la+0x68>
  405fbc:	3c02b070 	lui	v0,0xb070
  405fc0:	3c05b070 	lui	a1,0xb070
  405fc4:	24040294 	li	a0,660
  405fc8:	3c03000f 	lui	v1,0xf
  405fcc:	24634240 	addiu	v1,v1,16960
  405fd0:	aca40000 	sw	a0,0(a1)
  405fd4:	8fa20010 	lw	v0,16(sp)
  405fd8:	24420001 	addiu	v0,v0,1
  405fdc:	afa20010 	sw	v0,16(sp)
  405fe0:	8fa20010 	lw	v0,16(sp)
  405fe4:	0043102b 	sltu	v0,v0,v1
  405fe8:	1440fff9 	bnez	v0,405fd0 <delay_la+0x48>
  405fec:	3c02b070 	lui	v0,0xb070
  405ff0:	ac400000 	sw	zero,0(v0)
  405ff4:	8fbf001c 	lw	ra,28(sp)
  405ff8:	03e00008 	jr	ra
  405ffc:	27bd0020 	addiu	sp,sp,32

00406000 <delay_xi>:
  406000:	27bdffe0 	addiu	sp,sp,-32
  406004:	afbf001c 	sw	ra,28(sp)
  406008:	3c040077 	lui	a0,0x77
  40600c:	0c101c11 	jal	407044 <set_leds>
  406010:	24847777 	addiu	a0,a0,30583
  406014:	0c101ce6 	jal	407398 <set_seven_seg_value>
  406018:	2404024c 	li	a0,588
  40601c:	afa00010 	sw	zero,16(sp)
  406020:	8fa20010 	lw	v0,16(sp)
  406024:	3c03000f 	lui	v1,0xf
  406028:	24634240 	addiu	v1,v1,16960
  40602c:	0043102b 	sltu	v0,v0,v1
  406030:	1040000d 	beqz	v0,406068 <delay_xi+0x68>
  406034:	3c02b070 	lui	v0,0xb070
  406038:	3c05b070 	lui	a1,0xb070
  40603c:	2404024c 	li	a0,588
  406040:	3c03000f 	lui	v1,0xf
  406044:	24634240 	addiu	v1,v1,16960
  406048:	aca40000 	sw	a0,0(a1)
  40604c:	8fa20010 	lw	v0,16(sp)
  406050:	24420001 	addiu	v0,v0,1
  406054:	afa20010 	sw	v0,16(sp)
  406058:	8fa20010 	lw	v0,16(sp)
  40605c:	0043102b 	sltu	v0,v0,v1
  406060:	1440fff9 	bnez	v0,406048 <delay_xi+0x48>
  406064:	3c02b070 	lui	v0,0xb070
  406068:	ac400000 	sw	zero,0(v0)
  40606c:	8fbf001c 	lw	ra,28(sp)
  406070:	03e00008 	jr	ra
  406074:	27bd0020 	addiu	sp,sp,32

00406078 <start_ringtone>:
  406078:	27bdffe8 	addiu	sp,sp,-24
  40607c:	afbf0014 	sw	ra,20(sp)
  406080:	0c101800 	jal	406000 <delay_xi>
  406084:	00000000 	nop
  406088:	0c10171b 	jal	405c6c <delay_zero>
  40608c:	00000000 	nop
  406090:	0c10176a 	jal	405da8 <delay_mi>
  406094:	00000000 	nop
  406098:	0c10176a 	jal	405da8 <delay_mi>
  40609c:	00000000 	nop
  4060a0:	0c1017a6 	jal	405e98 <delay_fa>
  4060a4:	00000000 	nop
  4060a8:	0c1017c4 	jal	405f10 <delay_so>
  4060ac:	00000000 	nop
  4060b0:	0c10171b 	jal	405c6c <delay_zero>
  4060b4:	00000000 	nop
  4060b8:	0c1017c4 	jal	405f10 <delay_so>
  4060bc:	00000000 	nop
  4060c0:	0c1017a6 	jal	405e98 <delay_fa>
  4060c4:	00000000 	nop
  4060c8:	0c10176a 	jal	405da8 <delay_mi>
  4060cc:	00000000 	nop
  4060d0:	0c10174c 	jal	405d30 <delay_re>
  4060d4:	00000000 	nop
  4060d8:	0c10171b 	jal	405c6c <delay_zero>
  4060dc:	00000000 	nop
  4060e0:	0c10172e 	jal	405cb8 <delay_do>
  4060e4:	00000000 	nop
  4060e8:	0c10172e 	jal	405cb8 <delay_do>
  4060ec:	00000000 	nop
  4060f0:	0c10174c 	jal	405d30 <delay_re>
  4060f4:	00000000 	nop
  4060f8:	0c10176a 	jal	405da8 <delay_mi>
  4060fc:	00000000 	nop
  406100:	0c10171b 	jal	405c6c <delay_zero>
  406104:	00000000 	nop
  406108:	0c101788 	jal	405e20 <delay_long_mi>
  40610c:	00000000 	nop
  406110:	0c10174c 	jal	405d30 <delay_re>
  406114:	00000000 	nop
  406118:	0c10174c 	jal	405d30 <delay_re>
  40611c:	00000000 	nop
  406120:	8fbf0014 	lw	ra,20(sp)
  406124:	03e00008 	jr	ra
  406128:	27bd0018 	addiu	sp,sp,24

0040612c <boot_music>:
  40612c:	27bdffe8 	addiu	sp,sp,-24
  406130:	afbf0014 	sw	ra,20(sp)
  406134:	0c1017c4 	jal	405f10 <delay_so>
  406138:	00000000 	nop
  40613c:	0c10172e 	jal	405cb8 <delay_do>
  406140:	00000000 	nop
  406144:	0c10174c 	jal	405d30 <delay_re>
  406148:	00000000 	nop
  40614c:	0c10176a 	jal	405da8 <delay_mi>
  406150:	00000000 	nop
  406154:	0c10171b 	jal	405c6c <delay_zero>
  406158:	00000000 	nop
  40615c:	0c10174c 	jal	405d30 <delay_re>
  406160:	00000000 	nop
  406164:	0c10176a 	jal	405da8 <delay_mi>
  406168:	00000000 	nop
  40616c:	0c1017c4 	jal	405f10 <delay_so>
  406170:	00000000 	nop
  406174:	0c1017e2 	jal	405f88 <delay_la>
  406178:	00000000 	nop
  40617c:	8fbf0014 	lw	ra,20(sp)
  406180:	03e00008 	jr	ra
  406184:	27bd0018 	addiu	sp,sp,24

00406188 <two_tigers>:
  406188:	27bdffe8 	addiu	sp,sp,-24
  40618c:	afbf0014 	sw	ra,20(sp)
  406190:	0c101800 	jal	406000 <delay_xi>
  406194:	00000000 	nop
  406198:	0c10171b 	jal	405c6c <delay_zero>
  40619c:	00000000 	nop
  4061a0:	0c10172e 	jal	405cb8 <delay_do>
  4061a4:	00000000 	nop
  4061a8:	0c10174c 	jal	405d30 <delay_re>
  4061ac:	00000000 	nop
  4061b0:	0c10176a 	jal	405da8 <delay_mi>
  4061b4:	00000000 	nop
  4061b8:	0c10172e 	jal	405cb8 <delay_do>
  4061bc:	00000000 	nop
  4061c0:	0c10171b 	jal	405c6c <delay_zero>
  4061c4:	00000000 	nop
  4061c8:	0c10172e 	jal	405cb8 <delay_do>
  4061cc:	00000000 	nop
  4061d0:	0c10174c 	jal	405d30 <delay_re>
  4061d4:	00000000 	nop
  4061d8:	0c10176a 	jal	405da8 <delay_mi>
  4061dc:	00000000 	nop
  4061e0:	0c10172e 	jal	405cb8 <delay_do>
  4061e4:	00000000 	nop
  4061e8:	0c10171b 	jal	405c6c <delay_zero>
  4061ec:	00000000 	nop
  4061f0:	0c10176a 	jal	405da8 <delay_mi>
  4061f4:	00000000 	nop
  4061f8:	0c1017a6 	jal	405e98 <delay_fa>
  4061fc:	00000000 	nop
  406200:	0c1017c4 	jal	405f10 <delay_so>
  406204:	00000000 	nop
  406208:	0c10171b 	jal	405c6c <delay_zero>
  40620c:	00000000 	nop
  406210:	0c10176a 	jal	405da8 <delay_mi>
  406214:	00000000 	nop
  406218:	0c1017a6 	jal	405e98 <delay_fa>
  40621c:	00000000 	nop
  406220:	0c1017c4 	jal	405f10 <delay_so>
  406224:	00000000 	nop
  406228:	0c101ce6 	jal	407398 <set_seven_seg_value>
  40622c:	00002025 	move	a0,zero
  406230:	0c101c11 	jal	407044 <set_leds>
  406234:	24045555 	li	a0,21845
  406238:	8fbf0014 	lw	ra,20(sp)
  40623c:	03e00008 	jr	ra
  406240:	27bd0018 	addiu	sp,sp,24

00406244 <serial_proc_data>:
  406244:	27bdffe8 	addiu	sp,sp,-24
  406248:	afbf0014 	sw	ra,20(sp)
  40624c:	0c101dc1 	jal	407704 <get_UART_LSR>
  406250:	00000000 	nop
  406254:	0c101df3 	jal	4077cc <get_UART_DR>
  406258:	00402025 	move	a0,v0
  40625c:	10400003 	beqz	v0,40626c <serial_proc_data+0x28>
  406260:	2402ffff 	li	v0,-1
  406264:	0c101d91 	jal	407644 <get_UART_RBR>
  406268:	00000000 	nop
  40626c:	8fbf0014 	lw	ra,20(sp)
  406270:	03e00008 	jr	ra
  406274:	27bd0018 	addiu	sp,sp,24

00406278 <serial_putc>:
  406278:	27bdffe8 	addiu	sp,sp,-24
  40627c:	afbf0014 	sw	ra,20(sp)
  406280:	afb00010 	sw	s0,16(sp)
  406284:	00808025 	move	s0,a0
  406288:	0c101dc1 	jal	407704 <get_UART_LSR>
  40628c:	00000000 	nop
  406290:	0c101de7 	jal	40779c <get_UART_TEMT>
  406294:	00402025 	move	a0,v0
  406298:	1040fffb 	beqz	v0,406288 <serial_putc+0x10>
  40629c:	00000000 	nop
  4062a0:	0c101d95 	jal	407654 <set_UART_THR>
  4062a4:	02002025 	move	a0,s0
  4062a8:	8fbf0014 	lw	ra,20(sp)
  4062ac:	8fb00010 	lw	s0,16(sp)
  4062b0:	03e00008 	jr	ra
  4062b4:	27bd0018 	addiu	sp,sp,24

004062b8 <serial_intr>:
  4062b8:	27bdffe0 	addiu	sp,sp,-32
  4062bc:	afbf001c 	sw	ra,28(sp)
  4062c0:	afb20018 	sw	s2,24(sp)
  4062c4:	afb10014 	sw	s1,20(sp)
  4062c8:	afb00010 	sw	s0,16(sp)
  4062cc:	2411ffff 	li	s1,-1
  4062d0:	3c100042 	lui	s0,0x42
  4062d4:	26105b50 	addiu	s0,s0,23376
  4062d8:	24120200 	li	s2,512
  4062dc:	0c101891 	jal	406244 <serial_proc_data>
  4062e0:	00000000 	nop
  4062e4:	1051000b 	beq	v0,s1,406314 <serial_intr+0x5c>
  4062e8:	8fbf001c 	lw	ra,28(sp)
  4062ec:	1040fffb 	beqz	v0,4062dc <serial_intr+0x24>
  4062f0:	00000000 	nop
  4062f4:	8e030204 	lw	v1,516(s0)
  4062f8:	24640001 	addiu	a0,v1,1
  4062fc:	ae040204 	sw	a0,516(s0)
  406300:	00701821 	addu	v1,v1,s0
  406304:	1492fff5 	bne	a0,s2,4062dc <serial_intr+0x24>
  406308:	a0620000 	sb	v0,0(v1)
  40630c:	1000fff3 	b	4062dc <serial_intr+0x24>
  406310:	ae000204 	sw	zero,516(s0)
  406314:	8fb20018 	lw	s2,24(sp)
  406318:	8fb10014 	lw	s1,20(sp)
  40631c:	8fb00010 	lw	s0,16(sp)
  406320:	03e00008 	jr	ra
  406324:	27bd0020 	addiu	sp,sp,32

00406328 <cons_getc>:
  406328:	27bdffe8 	addiu	sp,sp,-24
  40632c:	afbf0014 	sw	ra,20(sp)
  406330:	0c1018ae 	jal	4062b8 <serial_intr>
  406334:	00000000 	nop
  406338:	3c030042 	lui	v1,0x42
  40633c:	24635b50 	addiu	v1,v1,23376
  406340:	8c620200 	lw	v0,512(v1)
  406344:	8c630204 	lw	v1,516(v1)
  406348:	1043000e 	beq	v0,v1,406384 <cons_getc+0x5c>
  40634c:	24440001 	addiu	a0,v0,1
  406350:	3c030042 	lui	v1,0x42
  406354:	24635b50 	addiu	v1,v1,23376
  406358:	ac640200 	sw	a0,512(v1)
  40635c:	00431021 	addu	v0,v0,v1
  406360:	24030200 	li	v1,512
  406364:	10830004 	beq	a0,v1,406378 <cons_getc+0x50>
  406368:	90420000 	lbu	v0,0(v0)
  40636c:	8fbf0014 	lw	ra,20(sp)
  406370:	03e00008 	jr	ra
  406374:	27bd0018 	addiu	sp,sp,24
  406378:	3c030042 	lui	v1,0x42
  40637c:	1000fffb 	b	40636c <cons_getc+0x44>
  406380:	ac605d50 	sw	zero,23888(v1)
  406384:	1000fff9 	b	40636c <cons_getc+0x44>
  406388:	00001025 	move	v0,zero

0040638c <cons_init>:
  40638c:	27bdffe8 	addiu	sp,sp,-24
  406390:	afbf0014 	sw	ra,20(sp)
  406394:	0c101df5 	jal	4077d4 <init_uart>
  406398:	00000000 	nop
  40639c:	8fbf0014 	lw	ra,20(sp)
  4063a0:	03e00008 	jr	ra
  4063a4:	27bd0018 	addiu	sp,sp,24

004063a8 <cputchar>:
  4063a8:	27bdffe8 	addiu	sp,sp,-24
  4063ac:	2402000a 	li	v0,10
  4063b0:	10820006 	beq	a0,v0,4063cc <cputchar+0x24>
  4063b4:	afbf0014 	sw	ra,20(sp)
  4063b8:	0c10189e 	jal	406278 <serial_putc>
  4063bc:	00000000 	nop
  4063c0:	8fbf0014 	lw	ra,20(sp)
  4063c4:	03e00008 	jr	ra
  4063c8:	27bd0018 	addiu	sp,sp,24
  4063cc:	0c10189e 	jal	406278 <serial_putc>
  4063d0:	2404000a 	li	a0,10
  4063d4:	0c10189e 	jal	406278 <serial_putc>
  4063d8:	2404000d 	li	a0,13
  4063dc:	1000fff9 	b	4063c4 <cputchar+0x1c>
  4063e0:	8fbf0014 	lw	ra,20(sp)

004063e4 <getchar>:
  4063e4:	27bdffe8 	addiu	sp,sp,-24
  4063e8:	afbf0014 	sw	ra,20(sp)
  4063ec:	0c1018ca 	jal	406328 <cons_getc>
  4063f0:	00000000 	nop
  4063f4:	1040fffd 	beqz	v0,4063ec <getchar+0x8>
  4063f8:	8fbf0014 	lw	ra,20(sp)
  4063fc:	03e00008 	jr	ra
  406400:	27bd0018 	addiu	sp,sp,24

00406404 <iscons>:
  406404:	03e00008 	jr	ra
  406408:	24020001 	li	v0,1

0040640c <xchg_spi>:
  40640c:	27bdffe8 	addiu	sp,sp,-24
  406410:	afbf0014 	sw	ra,20(sp)
  406414:	0c101c91 	jal	407244 <spi_send>
  406418:	00000000 	nop
  40641c:	8fbf0014 	lw	ra,20(sp)
  406420:	03e00008 	jr	ra
  406424:	27bd0018 	addiu	sp,sp,24

00406428 <wait_ready>:
  406428:	27bdffe0 	addiu	sp,sp,-32
  40642c:	afbf001c 	sw	ra,28(sp)
  406430:	afb10018 	sw	s1,24(sp)
  406434:	afb00014 	sw	s0,20(sp)
  406438:	00048080 	sll	s0,a0,0x2
  40643c:	02048021 	addu	s0,s0,a0
  406440:	001080c0 	sll	s0,s0,0x3
  406444:	02048023 	subu	s0,s0,a0
  406448:	00108100 	sll	s0,s0,0x4
  40644c:	02048021 	addu	s0,s0,a0
  406450:	001080c0 	sll	s0,s0,0x3
  406454:	0c101903 	jal	40640c <xchg_spi>
  406458:	240400ff 	li	a0,255
  40645c:	00408825 	move	s1,v0
  406460:	240200ff 	li	v0,255
  406464:	12220003 	beq	s1,v0,406474 <wait_ready+0x4c>
  406468:	2610ffff 	addiu	s0,s0,-1
  40646c:	1600fff9 	bnez	s0,406454 <wait_ready+0x2c>
  406470:	00000000 	nop
  406474:	0c101c11 	jal	407044 <set_leds>
  406478:	02202025 	move	a0,s1
  40647c:	3a2200ff 	xori	v0,s1,0xff
  406480:	2c420001 	sltiu	v0,v0,1
  406484:	8fbf001c 	lw	ra,28(sp)
  406488:	8fb10018 	lw	s1,24(sp)
  40648c:	8fb00014 	lw	s0,20(sp)
  406490:	03e00008 	jr	ra
  406494:	27bd0020 	addiu	sp,sp,32

00406498 <deselect>:
  406498:	27bdffe8 	addiu	sp,sp,-24
  40649c:	afbf0014 	sw	ra,20(sp)
  4064a0:	0c101cd4 	jal	407350 <spi_deselect_slave>
  4064a4:	00002025 	move	a0,zero
  4064a8:	8fbf0014 	lw	ra,20(sp)
  4064ac:	03e00008 	jr	ra
  4064b0:	27bd0018 	addiu	sp,sp,24

004064b4 <select>:
  4064b4:	27bdffe8 	addiu	sp,sp,-24
  4064b8:	afbf0014 	sw	ra,20(sp)
  4064bc:	afb00010 	sw	s0,16(sp)
  4064c0:	0c101cce 	jal	407338 <spi_select_slave>
  4064c4:	00002025 	move	a0,zero
  4064c8:	0c10190a 	jal	406428 <wait_ready>
  4064cc:	240401f4 	li	a0,500
  4064d0:	10400006 	beqz	v0,4064ec <select+0x38>
  4064d4:	24100001 	li	s0,1
  4064d8:	02001025 	move	v0,s0
  4064dc:	8fbf0014 	lw	ra,20(sp)
  4064e0:	8fb00010 	lw	s0,16(sp)
  4064e4:	03e00008 	jr	ra
  4064e8:	27bd0018 	addiu	sp,sp,24
  4064ec:	0c101926 	jal	406498 <deselect>
  4064f0:	00408025 	move	s0,v0
  4064f4:	1000fff9 	b	4064dc <select+0x28>
  4064f8:	02001025 	move	v0,s0

004064fc <send_cmd>:
  4064fc:	27bdffe0 	addiu	sp,sp,-32
  406500:	afbf001c 	sw	ra,28(sp)
  406504:	afb20018 	sw	s2,24(sp)
  406508:	afb10014 	sw	s1,20(sp)
  40650c:	afb00010 	sw	s0,16(sp)
  406510:	00808025 	move	s0,a0
  406514:	7c041420 	seb	v0,a0
  406518:	04400026 	bltz	v0,4065b4 <send_cmd+0xb8>
  40651c:	00a09025 	move	s2,a1
  406520:	240200a9 	li	v0,169
  406524:	1202002e 	beq	s0,v0,4065e0 <send_cmd+0xe4>
  406528:	2402000c 	li	v0,12
  40652c:	12020008 	beq	s0,v0,406550 <send_cmd+0x54>
  406530:	02002825 	move	a1,s0
  406534:	0c101926 	jal	406498 <deselect>
  406538:	241100ff 	li	s1,255
  40653c:	0c10192d 	jal	4064b4 <select>
  406540:	00000000 	nop
  406544:	10400049 	beqz	v0,40666c <send_cmd+0x170>
  406548:	02201025 	move	v0,s1
  40654c:	02002825 	move	a1,s0
  406550:	3c040042 	lui	a0,0x42
  406554:	0c10122b 	jal	4048ac <printf>
  406558:	2484c868 	addiu	a0,a0,-14232
  40655c:	02402825 	move	a1,s2
  406560:	3c040042 	lui	a0,0x42
  406564:	0c10122b 	jal	4048ac <printf>
  406568:	2484c888 	addiu	a0,a0,-14200
  40656c:	0c101903 	jal	40640c <xchg_spi>
  406570:	36040040 	ori	a0,s0,0x40
  406574:	0c101903 	jal	40640c <xchg_spi>
  406578:	00122602 	srl	a0,s2,0x18
  40657c:	0c101903 	jal	40640c <xchg_spi>
  406580:	7e443c00 	ext	a0,s2,0x10,0x8
  406584:	0c101903 	jal	40640c <xchg_spi>
  406588:	7e443a00 	ext	a0,s2,0x8,0x8
  40658c:	0c101903 	jal	40640c <xchg_spi>
  406590:	324400ff 	andi	a0,s2,0xff
  406594:	12000022 	beqz	s0,406620 <send_cmd+0x124>
  406598:	24020008 	li	v0,8
  40659c:	16020017 	bne	s0,v0,4065fc <send_cmd+0x100>
  4065a0:	00000000 	nop
  4065a4:	0c101903 	jal	40640c <xchg_spi>
  4065a8:	24040087 	li	a0,135
  4065ac:	1000001f 	b	40662c <send_cmd+0x130>
  4065b0:	2410000a 	li	s0,10
  4065b4:	00002825 	move	a1,zero
  4065b8:	0c10193f 	jal	4064fc <send_cmd>
  4065bc:	24040037 	li	a0,55
  4065c0:	00408825 	move	s1,v0
  4065c4:	0c101c11 	jal	407044 <set_leds>
  4065c8:	00402025 	move	a0,v0
  4065cc:	2e220002 	sltiu	v0,s1,2
  4065d0:	10400026 	beqz	v0,40666c <send_cmd+0x170>
  4065d4:	02201025 	move	v0,s1
  4065d8:	1000ffd1 	b	406520 <send_cmd+0x24>
  4065dc:	3210007f 	andi	s0,s0,0x7f
  4065e0:	3c020001 	lui	v0,0x1
  4065e4:	344286a1 	ori	v0,v0,0x86a1
  4065e8:	2442ffff 	addiu	v0,v0,-1
  4065ec:	1440ffff 	bnez	v0,4065ec <send_cmd+0xf0>
  4065f0:	2442ffff 	addiu	v0,v0,-1
  4065f4:	1000ffcf 	b	406534 <send_cmd+0x38>
  4065f8:	00000000 	nop
  4065fc:	0c101903 	jal	40640c <xchg_spi>
  406600:	24040001 	li	a0,1
  406604:	2402000c 	li	v0,12
  406608:	56020008 	bnel	s0,v0,40662c <send_cmd+0x130>
  40660c:	2410000a 	li	s0,10
  406610:	0c101903 	jal	40640c <xchg_spi>
  406614:	240400ff 	li	a0,255
  406618:	10000004 	b	40662c <send_cmd+0x130>
  40661c:	2410000a 	li	s0,10
  406620:	0c101903 	jal	40640c <xchg_spi>
  406624:	24040095 	li	a0,149
  406628:	2410000a 	li	s0,10
  40662c:	0c101903 	jal	40640c <xchg_spi>
  406630:	240400ff 	li	a0,255
  406634:	00408825 	move	s1,v0
  406638:	7c021420 	seb	v0,v0
  40663c:	04410004 	bgez	v0,406650 <send_cmd+0x154>
  406640:	2610ffff 	addiu	s0,s0,-1
  406644:	321000ff 	andi	s0,s0,0xff
  406648:	1600fff8 	bnez	s0,40662c <send_cmd+0x130>
  40664c:	00000000 	nop
  406650:	02202825 	move	a1,s1
  406654:	3c040042 	lui	a0,0x42
  406658:	0c10122b 	jal	4048ac <printf>
  40665c:	2484c89c 	addiu	a0,a0,-14180
  406660:	0c101c11 	jal	407044 <set_leds>
  406664:	02202025 	move	a0,s1
  406668:	02201025 	move	v0,s1
  40666c:	8fbf001c 	lw	ra,28(sp)
  406670:	8fb20018 	lw	s2,24(sp)
  406674:	8fb10014 	lw	s1,20(sp)
  406678:	8fb00010 	lw	s0,16(sp)
  40667c:	03e00008 	jr	ra
  406680:	27bd0020 	addiu	sp,sp,32

00406684 <rcvr_datablock>:
  406684:	27bdffd8 	addiu	sp,sp,-40
  406688:	afbf0024 	sw	ra,36(sp)
  40668c:	afb30020 	sw	s3,32(sp)
  406690:	afb2001c 	sw	s2,28(sp)
  406694:	afb10018 	sw	s1,24(sp)
  406698:	afb00014 	sw	s0,20(sp)
  40669c:	00809025 	move	s2,a0
  4066a0:	00a09825 	move	s3,a1
  4066a4:	3c10000f 	lui	s0,0xf
  4066a8:	26104240 	addiu	s0,s0,16960
  4066ac:	0c101903 	jal	40640c <xchg_spi>
  4066b0:	240400ff 	li	a0,255
  4066b4:	240300ff 	li	v1,255
  4066b8:	14430005 	bne	v0,v1,4066d0 <rcvr_datablock+0x4c>
  4066bc:	2610ffff 	addiu	s0,s0,-1
  4066c0:	1600fffa 	bnez	s0,4066ac <rcvr_datablock+0x28>
  4066c4:	00001825 	move	v1,zero
  4066c8:	10000005 	b	4066e0 <rcvr_datablock+0x5c>
  4066cc:	00601025 	move	v0,v1
  4066d0:	240400fe 	li	a0,254
  4066d4:	10440009 	beq	v0,a0,4066fc <rcvr_datablock+0x78>
  4066d8:	00001825 	move	v1,zero
  4066dc:	00601025 	move	v0,v1
  4066e0:	8fbf0024 	lw	ra,36(sp)
  4066e4:	8fb30020 	lw	s3,32(sp)
  4066e8:	8fb2001c 	lw	s2,28(sp)
  4066ec:	8fb10018 	lw	s1,24(sp)
  4066f0:	8fb00014 	lw	s0,20(sp)
  4066f4:	03e00008 	jr	ra
  4066f8:	27bd0028 	addiu	sp,sp,40
  4066fc:	327100ff 	andi	s1,s3,0xff
  406700:	10000009 	b	406728 <rcvr_datablock+0xa4>
  406704:	00008025 	move	s0,zero
  406708:	0270102b 	sltu	v0,s3,s0
  40670c:	1440000f 	bnez	v0,40674c <rcvr_datablock+0xc8>
  406710:	24050010 	li	a1,16
  406714:	0c101cb0 	jal	4072c0 <spi_recv_multi>
  406718:	02402025 	move	a0,s2
  40671c:	26520010 	addiu	s2,s2,16
  406720:	2631fff0 	addiu	s1,s1,-16
  406724:	323100ff 	andi	s1,s1,0xff
  406728:	0213102b 	sltu	v0,s0,s3
  40672c:	1440fff6 	bnez	v0,406708 <rcvr_datablock+0x84>
  406730:	26100010 	addiu	s0,s0,16
  406734:	0c101903 	jal	40640c <xchg_spi>
  406738:	240400ff 	li	a0,255
  40673c:	0c101903 	jal	40640c <xchg_spi>
  406740:	240400ff 	li	a0,255
  406744:	1000ffe5 	b	4066dc <rcvr_datablock+0x58>
  406748:	24030001 	li	v1,1
  40674c:	02202825 	move	a1,s1
  406750:	0c101cb0 	jal	4072c0 <spi_recv_multi>
  406754:	02402025 	move	a0,s2
  406758:	1000fff1 	b	406720 <rcvr_datablock+0x9c>
  40675c:	26520010 	addiu	s2,s2,16

00406760 <xmit_datablock>:
  406760:	27bdffd8 	addiu	sp,sp,-40
  406764:	afbf0024 	sw	ra,36(sp)
  406768:	afb30020 	sw	s3,32(sp)
  40676c:	afb2001c 	sw	s2,28(sp)
  406770:	afb10018 	sw	s1,24(sp)
  406774:	afb00014 	sw	s0,20(sp)
  406778:	00809025 	move	s2,a0
  40677c:	00a08025 	move	s0,a1
  406780:	0c10190a 	jal	406428 <wait_ready>
  406784:	240401f4 	li	a0,500
  406788:	14400008 	bnez	v0,4067ac <xmit_datablock+0x4c>
  40678c:	00000000 	nop
  406790:	8fbf0024 	lw	ra,36(sp)
  406794:	8fb30020 	lw	s3,32(sp)
  406798:	8fb2001c 	lw	s2,28(sp)
  40679c:	8fb10018 	lw	s1,24(sp)
  4067a0:	8fb00014 	lw	s0,20(sp)
  4067a4:	03e00008 	jr	ra
  4067a8:	27bd0028 	addiu	sp,sp,40
  4067ac:	0c101903 	jal	40640c <xchg_spi>
  4067b0:	02002025 	move	a0,s0
  4067b4:	240200fd 	li	v0,253
  4067b8:	1202001b 	beq	s0,v0,406828 <xmit_datablock+0xc8>
  4067bc:	00008025 	move	s0,zero
  4067c0:	00008825 	move	s1,zero
  4067c4:	24130200 	li	s3,512
  4067c8:	26310010 	addiu	s1,s1,16
  4067cc:	2e220201 	sltiu	v0,s1,513
  4067d0:	10400019 	beqz	v0,406838 <xmit_datablock+0xd8>
  4067d4:	24050010 	li	a1,16
  4067d8:	0c101c9b 	jal	40726c <spi_send_multi>
  4067dc:	02402025 	move	a0,s2
  4067e0:	26520010 	addiu	s2,s2,16
  4067e4:	2610fff0 	addiu	s0,s0,-16
  4067e8:	1633fff7 	bne	s1,s3,4067c8 <xmit_datablock+0x68>
  4067ec:	321000ff 	andi	s0,s0,0xff
  4067f0:	0c101903 	jal	40640c <xchg_spi>
  4067f4:	240400ff 	li	a0,255
  4067f8:	1040fffd 	beqz	v0,4067f0 <xmit_datablock+0x90>
  4067fc:	00000000 	nop
  406800:	0c101903 	jal	40640c <xchg_spi>
  406804:	240400ff 	li	a0,255
  406808:	1040fffd 	beqz	v0,406800 <xmit_datablock+0xa0>
  40680c:	00000000 	nop
  406810:	0c101903 	jal	40640c <xchg_spi>
  406814:	240400ff 	li	a0,255
  406818:	3044001f 	andi	a0,v0,0x1f
  40681c:	24030005 	li	v1,5
  406820:	1483ffdb 	bne	a0,v1,406790 <xmit_datablock+0x30>
  406824:	00001025 	move	v0,zero
  406828:	0c10190a 	jal	406428 <wait_ready>
  40682c:	240401f4 	li	a0,500
  406830:	1000ffd7 	b	406790 <xmit_datablock+0x30>
  406834:	24020001 	li	v0,1
  406838:	02002825 	move	a1,s0
  40683c:	0c101c9b 	jal	40726c <spi_send_multi>
  406840:	02402025 	move	a0,s2
  406844:	1000ffe7 	b	4067e4 <xmit_datablock+0x84>
  406848:	26520010 	addiu	s2,s2,16

0040684c <disk_initialize>:
  40684c:	10800003 	beqz	a0,40685c <disk_initialize+0x10>
  406850:	24020001 	li	v0,1
  406854:	03e00008 	jr	ra
  406858:	00000000 	nop
  40685c:	27bdffd0 	addiu	sp,sp,-48
  406860:	afbf002c 	sw	ra,44(sp)
  406864:	afb40028 	sw	s4,40(sp)
  406868:	afb30024 	sw	s3,36(sp)
  40686c:	afb20020 	sw	s2,32(sp)
  406870:	afb1001c 	sw	s1,28(sp)
  406874:	0c101c69 	jal	4071a4 <spi_disable>
  406878:	afb00018 	sw	s0,24(sp)
  40687c:	3c020041 	lui	v0,0x41
  406880:	9042f068 	lbu	v0,-3992(v0)
  406884:	30420002 	andi	v0,v0,0x2
  406888:	1040000b 	beqz	v0,4068b8 <disk_initialize+0x6c>
  40688c:	3c020041 	lui	v0,0x41
  406890:	9042f068 	lbu	v0,-3992(v0)
  406894:	304200ff 	andi	v0,v0,0xff
  406898:	8fbf002c 	lw	ra,44(sp)
  40689c:	8fb40028 	lw	s4,40(sp)
  4068a0:	8fb30024 	lw	s3,36(sp)
  4068a4:	8fb20020 	lw	s2,32(sp)
  4068a8:	8fb1001c 	lw	s1,28(sp)
  4068ac:	8fb00018 	lw	s0,24(sp)
  4068b0:	1000ffe8 	b	406854 <disk_initialize+0x8>
  4068b4:	27bd0030 	addiu	sp,sp,48
  4068b8:	0c101c15 	jal	407054 <spi_init>
  4068bc:	00000000 	nop
  4068c0:	3c020001 	lui	v0,0x1
  4068c4:	344286a1 	ori	v0,v0,0x86a1
  4068c8:	2442ffff 	addiu	v0,v0,-1
  4068cc:	1440ffff 	bnez	v0,4068cc <disk_initialize+0x80>
  4068d0:	2442ffff 	addiu	v0,v0,-1
  4068d4:	2410000a 	li	s0,10
  4068d8:	0c101903 	jal	40640c <xchg_spi>
  4068dc:	240400ff 	li	a0,255
  4068e0:	2610ffff 	addiu	s0,s0,-1
  4068e4:	321000ff 	andi	s0,s0,0xff
  4068e8:	1600fffb 	bnez	s0,4068d8 <disk_initialize+0x8c>
  4068ec:	00002825 	move	a1,zero
  4068f0:	0c10193f 	jal	4064fc <send_cmd>
  4068f4:	00002025 	move	a0,zero
  4068f8:	00408825 	move	s1,v0
  4068fc:	24020001 	li	v0,1
  406900:	1222000a 	beq	s1,v0,40692c <disk_initialize+0xe0>
  406904:	240501aa 	li	a1,426
  406908:	3c020042 	lui	v0,0x42
  40690c:	0c101926 	jal	406498 <deselect>
  406910:	a0405d58 	sb	zero,23896(v0)
  406914:	00002825 	move	a1,zero
  406918:	3c040042 	lui	a0,0x42
  40691c:	0c10122b 	jal	4048ac <printf>
  406920:	2484c8dc 	addiu	a0,a0,-14116
  406924:	10000063 	b	406ab4 <disk_initialize+0x268>
  406928:	3c020041 	lui	v0,0x41
  40692c:	0c10193f 	jal	4064fc <send_cmd>
  406930:	24040008 	li	a0,8
  406934:	24030001 	li	v1,1
  406938:	14430039 	bne	v0,v1,406a20 <disk_initialize+0x1d4>
  40693c:	00002825 	move	a1,zero
  406940:	27b20010 	addiu	s2,sp,16
  406944:	27b10014 	addiu	s1,sp,20
  406948:	02408025 	move	s0,s2
  40694c:	0c101903 	jal	40640c <xchg_spi>
  406950:	240400ff 	li	a0,255
  406954:	a2020000 	sb	v0,0(s0)
  406958:	26100001 	addiu	s0,s0,1
  40695c:	1630fffb 	bne	s1,s0,40694c <disk_initialize+0x100>
  406960:	93a30012 	lbu	v1,18(sp)
  406964:	24020001 	li	v0,1
  406968:	1462ffe8 	bne	v1,v0,40690c <disk_initialize+0xc0>
  40696c:	3c020042 	lui	v0,0x42
  406970:	93a30013 	lbu	v1,19(sp)
  406974:	240200aa 	li	v0,170
  406978:	1462ffe4 	bne	v1,v0,40690c <disk_initialize+0xc0>
  40697c:	3c020042 	lui	v0,0x42
  406980:	3c11000f 	lui	s1,0xf
  406984:	2631423e 	addiu	s1,s1,16958
  406988:	3c140001 	lui	s4,0x1
  40698c:	2413ffff 	li	s3,-1
  406990:	3c054000 	lui	a1,0x4000
  406994:	0c10193f 	jal	4064fc <send_cmd>
  406998:	240400a9 	li	a0,169
  40699c:	1040001c 	beqz	v0,406a10 <disk_initialize+0x1c4>
  4069a0:	368286a1 	ori	v0,s4,0x86a1
  4069a4:	2442ffff 	addiu	v0,v0,-1
  4069a8:	1440ffff 	bnez	v0,4069a8 <disk_initialize+0x15c>
  4069ac:	2442ffff 	addiu	v0,v0,-1
  4069b0:	2631ffff 	addiu	s1,s1,-1
  4069b4:	1633fff7 	bne	s1,s3,406994 <disk_initialize+0x148>
  4069b8:	3c054000 	lui	a1,0x4000
  4069bc:	00002825 	move	a1,zero
  4069c0:	0c10193f 	jal	4064fc <send_cmd>
  4069c4:	2404003a 	li	a0,58
  4069c8:	1440ffd0 	bnez	v0,40690c <disk_initialize+0xc0>
  4069cc:	3c020042 	lui	v0,0x42
  4069d0:	0c101903 	jal	40640c <xchg_spi>
  4069d4:	240400ff 	li	a0,255
  4069d8:	a2420000 	sb	v0,0(s2)
  4069dc:	26520001 	addiu	s2,s2,1
  4069e0:	1650fffb 	bne	s2,s0,4069d0 <disk_initialize+0x184>
  4069e4:	93a20010 	lbu	v0,16(sp)
  4069e8:	30420040 	andi	v0,v0,0x40
  4069ec:	24030004 	li	v1,4
  4069f0:	2404000c 	li	a0,12
  4069f4:	0082180b 	movn	v1,a0,v0
  4069f8:	00601025 	move	v0,v1
  4069fc:	3c030042 	lui	v1,0x42
  406a00:	0c101926 	jal	406498 <deselect>
  406a04:	a0625d58 	sb	v0,23896(v1)
  406a08:	10000022 	b	406a94 <disk_initialize+0x248>
  406a0c:	3c030041 	lui	v1,0x41
  406a10:	1220ffbe 	beqz	s1,40690c <disk_initialize+0xc0>
  406a14:	3c020042 	lui	v0,0x42
  406a18:	1000ffe9 	b	4069c0 <disk_initialize+0x174>
  406a1c:	00002825 	move	a1,zero
  406a20:	0c10193f 	jal	4064fc <send_cmd>
  406a24:	240400a9 	li	a0,169
  406a28:	2c420002 	sltiu	v0,v0,2
  406a2c:	24130002 	li	s3,2
  406a30:	0222980a 	movz	s3,s1,v0
  406a34:	240300a9 	li	v1,169
  406a38:	0062880b 	movn	s1,v1,v0
  406a3c:	3c10000f 	lui	s0,0xf
  406a40:	2610423d 	addiu	s0,s0,16957
  406a44:	10000003 	b	406a54 <disk_initialize+0x208>
  406a48:	2412ffff 	li	s2,-1
  406a4c:	1212001c 	beq	s0,s2,406ac0 <disk_initialize+0x274>
  406a50:	3c020042 	lui	v0,0x42
  406a54:	00002825 	move	a1,zero
  406a58:	0c10193f 	jal	4064fc <send_cmd>
  406a5c:	02202025 	move	a0,s1
  406a60:	5440fffa 	bnezl	v0,406a4c <disk_initialize+0x200>
  406a64:	2610ffff 	addiu	s0,s0,-1
  406a68:	1600ffa8 	bnez	s0,40690c <disk_initialize+0xc0>
  406a6c:	3c020042 	lui	v0,0x42
  406a70:	24050200 	li	a1,512
  406a74:	0c10193f 	jal	4064fc <send_cmd>
  406a78:	24040010 	li	a0,16
  406a7c:	1440ffa3 	bnez	v0,40690c <disk_initialize+0xc0>
  406a80:	3c020042 	lui	v0,0x42
  406a84:	0c101926 	jal	406498 <deselect>
  406a88:	a0535d58 	sb	s3,23896(v0)
  406a8c:	1260ffa1 	beqz	s3,406914 <disk_initialize+0xc8>
  406a90:	3c030041 	lui	v1,0x41
  406a94:	9062f068 	lbu	v0,-3992(v1)
  406a98:	304200fe 	andi	v0,v0,0xfe
  406a9c:	a062f068 	sb	v0,-3992(v1)
  406aa0:	00002825 	move	a1,zero
  406aa4:	3c040042 	lui	a0,0x42
  406aa8:	0c10122b 	jal	4048ac <printf>
  406aac:	2484c8b8 	addiu	a0,a0,-14152
  406ab0:	3c020041 	lui	v0,0x41
  406ab4:	9042f068 	lbu	v0,-3992(v0)
  406ab8:	1000ff77 	b	406898 <disk_initialize+0x4c>
  406abc:	304200ff 	andi	v0,v0,0xff
  406ac0:	0c101926 	jal	406498 <deselect>
  406ac4:	a0405d58 	sb	zero,23896(v0)
  406ac8:	1000ff93 	b	406918 <disk_initialize+0xcc>
  406acc:	00002825 	move	a1,zero

00406ad0 <disk_status>:
  406ad0:	14800004 	bnez	a0,406ae4 <disk_status+0x14>
  406ad4:	24020001 	li	v0,1
  406ad8:	3c020041 	lui	v0,0x41
  406adc:	9042f068 	lbu	v0,-3992(v0)
  406ae0:	304200ff 	andi	v0,v0,0xff
  406ae4:	03e00008 	jr	ra
  406ae8:	00000000 	nop

00406aec <disk_read>:
  406aec:	10800003 	beqz	a0,406afc <disk_read+0x10>
  406af0:	24020004 	li	v0,4
  406af4:	03e00008 	jr	ra
  406af8:	00000000 	nop
  406afc:	27bdffe0 	addiu	sp,sp,-32
  406b00:	afbf001c 	sw	ra,28(sp)
  406b04:	afb20018 	sw	s2,24(sp)
  406b08:	afb10014 	sw	s1,20(sp)
  406b0c:	afb00010 	sw	s0,16(sp)
  406b10:	00a08825 	move	s1,a1
  406b14:	14e00007 	bnez	a3,406b34 <disk_read+0x48>
  406b18:	00e08025 	move	s0,a3
  406b1c:	8fbf001c 	lw	ra,28(sp)
  406b20:	8fb20018 	lw	s2,24(sp)
  406b24:	8fb10014 	lw	s1,20(sp)
  406b28:	8fb00010 	lw	s0,16(sp)
  406b2c:	1000fff1 	b	406af4 <disk_read+0x8>
  406b30:	27bd0020 	addiu	sp,sp,32
  406b34:	3c020041 	lui	v0,0x41
  406b38:	9043f068 	lbu	v1,-3992(v0)
  406b3c:	30630001 	andi	v1,v1,0x1
  406b40:	1460fff6 	bnez	v1,406b1c <disk_read+0x30>
  406b44:	24020003 	li	v0,3
  406b48:	3c020042 	lui	v0,0x42
  406b4c:	90425d58 	lbu	v0,23896(v0)
  406b50:	30420008 	andi	v0,v0,0x8
  406b54:	00062a40 	sll	a1,a2,0x9
  406b58:	2cf20002 	sltiu	s2,a3,2
  406b5c:	2e520001 	sltiu	s2,s2,1
  406b60:	26520011 	addiu	s2,s2,17
  406b64:	00c2280b 	movn	a1,a2,v0
  406b68:	0c10193f 	jal	4064fc <send_cmd>
  406b6c:	02402025 	move	a0,s2
  406b70:	1440000c 	bnez	v0,406ba4 <disk_read+0xb8>
  406b74:	00000000 	nop
  406b78:	24050200 	li	a1,512
  406b7c:	0c1019a1 	jal	406684 <rcvr_datablock>
  406b80:	02202025 	move	a0,s1
  406b84:	10400005 	beqz	v0,406b9c <disk_read+0xb0>
  406b88:	24020012 	li	v0,18
  406b8c:	2610ffff 	addiu	s0,s0,-1
  406b90:	1600fff9 	bnez	s0,406b78 <disk_read+0x8c>
  406b94:	26310200 	addiu	s1,s1,512
  406b98:	24020012 	li	v0,18
  406b9c:	52420005 	beql	s2,v0,406bb4 <disk_read+0xc8>
  406ba0:	00002825 	move	a1,zero
  406ba4:	0c101926 	jal	406498 <deselect>
  406ba8:	00000000 	nop
  406bac:	1000ffdb 	b	406b1c <disk_read+0x30>
  406bb0:	0010102b 	sltu	v0,zero,s0
  406bb4:	0c10193f 	jal	4064fc <send_cmd>
  406bb8:	2404000c 	li	a0,12
  406bbc:	1000fff9 	b	406ba4 <disk_read+0xb8>
  406bc0:	00000000 	nop

00406bc4 <disk_write>:
  406bc4:	10800003 	beqz	a0,406bd4 <disk_write+0x10>
  406bc8:	24020004 	li	v0,4
  406bcc:	03e00008 	jr	ra
  406bd0:	00000000 	nop
  406bd4:	27bdffe0 	addiu	sp,sp,-32
  406bd8:	afbf001c 	sw	ra,28(sp)
  406bdc:	afb20018 	sw	s2,24(sp)
  406be0:	afb10014 	sw	s1,20(sp)
  406be4:	afb00010 	sw	s0,16(sp)
  406be8:	00a08825 	move	s1,a1
  406bec:	00c09025 	move	s2,a2
  406bf0:	14e00007 	bnez	a3,406c10 <disk_write+0x4c>
  406bf4:	00e08025 	move	s0,a3
  406bf8:	8fbf001c 	lw	ra,28(sp)
  406bfc:	8fb20018 	lw	s2,24(sp)
  406c00:	8fb10014 	lw	s1,20(sp)
  406c04:	8fb00010 	lw	s0,16(sp)
  406c08:	1000fff0 	b	406bcc <disk_write+0x8>
  406c0c:	27bd0020 	addiu	sp,sp,32
  406c10:	3c020041 	lui	v0,0x41
  406c14:	9043f068 	lbu	v1,-3992(v0)
  406c18:	30630001 	andi	v1,v1,0x1
  406c1c:	1460fff6 	bnez	v1,406bf8 <disk_write+0x34>
  406c20:	24020003 	li	v0,3
  406c24:	3c020041 	lui	v0,0x41
  406c28:	9043f068 	lbu	v1,-3992(v0)
  406c2c:	30630004 	andi	v1,v1,0x4
  406c30:	1460fff1 	bnez	v1,406bf8 <disk_write+0x34>
  406c34:	24020002 	li	v0,2
  406c38:	3c020042 	lui	v0,0x42
  406c3c:	90425d58 	lbu	v0,23896(v0)
  406c40:	30440008 	andi	a0,v0,0x8
  406c44:	00061a40 	sll	v1,a2,0x9
  406c48:	0064900a 	movz	s2,v1,a0
  406c4c:	24030001 	li	v1,1
  406c50:	10e30019 	beq	a3,v1,406cb8 <disk_write+0xf4>
  406c54:	30420006 	andi	v0,v0,0x6
  406c58:	14400021 	bnez	v0,406ce0 <disk_write+0x11c>
  406c5c:	00e02825 	move	a1,a3
  406c60:	02402825 	move	a1,s2
  406c64:	0c10193f 	jal	4064fc <send_cmd>
  406c68:	24040019 	li	a0,25
  406c6c:	1440000e 	bnez	v0,406ca8 <disk_write+0xe4>
  406c70:	00000000 	nop
  406c74:	240500fc 	li	a1,252
  406c78:	0c1019d8 	jal	406760 <xmit_datablock>
  406c7c:	02202025 	move	a0,s1
  406c80:	10400005 	beqz	v0,406c98 <disk_write+0xd4>
  406c84:	240500fd 	li	a1,253
  406c88:	2610ffff 	addiu	s0,s0,-1
  406c8c:	1600fff9 	bnez	s0,406c74 <disk_write+0xb0>
  406c90:	26310200 	addiu	s1,s1,512
  406c94:	240500fd 	li	a1,253
  406c98:	0c1019d8 	jal	406760 <xmit_datablock>
  406c9c:	00002025 	move	a0,zero
  406ca0:	24030001 	li	v1,1
  406ca4:	0062800a 	movz	s0,v1,v0
  406ca8:	0c101926 	jal	406498 <deselect>
  406cac:	00000000 	nop
  406cb0:	1000ffd1 	b	406bf8 <disk_write+0x34>
  406cb4:	0010102b 	sltu	v0,zero,s0
  406cb8:	02402825 	move	a1,s2
  406cbc:	0c10193f 	jal	4064fc <send_cmd>
  406cc0:	24040018 	li	a0,24
  406cc4:	1440fff8 	bnez	v0,406ca8 <disk_write+0xe4>
  406cc8:	00000000 	nop
  406ccc:	240500fe 	li	a1,254
  406cd0:	0c1019d8 	jal	406760 <xmit_datablock>
  406cd4:	02202025 	move	a0,s1
  406cd8:	1000fff3 	b	406ca8 <disk_write+0xe4>
  406cdc:	2c500001 	sltiu	s0,v0,1
  406ce0:	0c10193f 	jal	4064fc <send_cmd>
  406ce4:	24040097 	li	a0,151
  406ce8:	1000ffde 	b	406c64 <disk_write+0xa0>
  406cec:	02402825 	move	a1,s2

00406cf0 <disk_ioctl>:
  406cf0:	27bdffd0 	addiu	sp,sp,-48
  406cf4:	afbf002c 	sw	ra,44(sp)
  406cf8:	afb10028 	sw	s1,40(sp)
  406cfc:	afb00024 	sw	s0,36(sp)
  406d00:	10800007 	beqz	a0,406d20 <disk_ioctl+0x30>
  406d04:	24100004 	li	s0,4
  406d08:	02001025 	move	v0,s0
  406d0c:	8fbf002c 	lw	ra,44(sp)
  406d10:	8fb10028 	lw	s1,40(sp)
  406d14:	8fb00024 	lw	s0,36(sp)
  406d18:	03e00008 	jr	ra
  406d1c:	27bd0030 	addiu	sp,sp,48
  406d20:	3c020041 	lui	v0,0x41
  406d24:	9042f068 	lbu	v0,-3992(v0)
  406d28:	30420001 	andi	v0,v0,0x1
  406d2c:	1440fff6 	bnez	v0,406d08 <disk_ioctl+0x18>
  406d30:	24100003 	li	s0,3
  406d34:	2ca20037 	sltiu	v0,a1,55
  406d38:	104000c0 	beqz	v0,40703c <disk_ioctl+0x34c>
  406d3c:	00c08825 	move	s1,a2
  406d40:	00052880 	sll	a1,a1,0x2
  406d44:	3c020042 	lui	v0,0x42
  406d48:	2442bc2c 	addiu	v0,v0,-17364
  406d4c:	00452821 	addu	a1,v0,a1
  406d50:	8ca20000 	lw	v0,0(a1)
  406d54:	00400008 	jr	v0
  406d58:	00000000 	nop
  406d5c:	0c10192d 	jal	4064b4 <select>
  406d60:	00000000 	nop
  406d64:	2c500001 	sltiu	s0,v0,1
  406d68:	0c101926 	jal	406498 <deselect>
  406d6c:	00000000 	nop
  406d70:	1000ffe6 	b	406d0c <disk_ioctl+0x1c>
  406d74:	02001025 	move	v0,s0
  406d78:	00002825 	move	a1,zero
  406d7c:	0c10193f 	jal	4064fc <send_cmd>
  406d80:	24040009 	li	a0,9
  406d84:	1440fff8 	bnez	v0,406d68 <disk_ioctl+0x78>
  406d88:	24100001 	li	s0,1
  406d8c:	24050010 	li	a1,16
  406d90:	0c1019a1 	jal	406684 <rcvr_datablock>
  406d94:	27a40010 	addiu	a0,sp,16
  406d98:	1040fff3 	beqz	v0,406d68 <disk_ioctl+0x78>
  406d9c:	24030001 	li	v1,1
  406da0:	93a20010 	lbu	v0,16(sp)
  406da4:	00021182 	srl	v0,v0,0x6
  406da8:	10430018 	beq	v0,v1,406e0c <disk_ioctl+0x11c>
  406dac:	93a30017 	lbu	v1,23(sp)
  406db0:	93a20018 	lbu	v0,24(sp)
  406db4:	00021182 	srl	v0,v0,0x6
  406db8:	00031880 	sll	v1,v1,0x2
  406dbc:	00431021 	addu	v0,v0,v1
  406dc0:	93a30016 	lbu	v1,22(sp)
  406dc4:	00031a80 	sll	v1,v1,0xa
  406dc8:	30630c00 	andi	v1,v1,0xc00
  406dcc:	00431021 	addu	v0,v0,v1
  406dd0:	24420001 	addiu	v0,v0,1
  406dd4:	93a30015 	lbu	v1,21(sp)
  406dd8:	3063000f 	andi	v1,v1,0xf
  406ddc:	93a4001a 	lbu	a0,26(sp)
  406de0:	000421c2 	srl	a0,a0,0x7
  406de4:	00641821 	addu	v1,v1,a0
  406de8:	93a40019 	lbu	a0,25(sp)
  406dec:	00042040 	sll	a0,a0,0x1
  406df0:	30840006 	andi	a0,a0,0x6
  406df4:	00641821 	addu	v1,v1,a0
  406df8:	24630019 	addiu	v1,v1,25
  406dfc:	00621004 	sllv	v0,v0,v1
  406e00:	ae220000 	sw	v0,0(s1)
  406e04:	1000ffd8 	b	406d68 <disk_ioctl+0x78>
  406e08:	00008025 	move	s0,zero
  406e0c:	93a20018 	lbu	v0,24(sp)
  406e10:	00021200 	sll	v0,v0,0x8
  406e14:	93a30019 	lbu	v1,25(sp)
  406e18:	00431021 	addu	v0,v0,v1
  406e1c:	93a30017 	lbu	v1,23(sp)
  406e20:	00031c00 	sll	v1,v1,0x10
  406e24:	3c04003f 	lui	a0,0x3f
  406e28:	00641824 	and	v1,v1,a0
  406e2c:	24630001 	addiu	v1,v1,1
  406e30:	00431021 	addu	v0,v0,v1
  406e34:	00021280 	sll	v0,v0,0xa
  406e38:	ae220000 	sw	v0,0(s1)
  406e3c:	1000ffca 	b	406d68 <disk_ioctl+0x78>
  406e40:	00008025 	move	s0,zero
  406e44:	3c020042 	lui	v0,0x42
  406e48:	90425d58 	lbu	v0,23896(v0)
  406e4c:	30420004 	andi	v0,v0,0x4
  406e50:	10400018 	beqz	v0,406eb4 <disk_ioctl+0x1c4>
  406e54:	00002825 	move	a1,zero
  406e58:	0c10193f 	jal	4064fc <send_cmd>
  406e5c:	2404008d 	li	a0,141
  406e60:	1440ffc1 	bnez	v0,406d68 <disk_ioctl+0x78>
  406e64:	24100001 	li	s0,1
  406e68:	0c101903 	jal	40640c <xchg_spi>
  406e6c:	240400ff 	li	a0,255
  406e70:	24050010 	li	a1,16
  406e74:	0c1019a1 	jal	406684 <rcvr_datablock>
  406e78:	27a40010 	addiu	a0,sp,16
  406e7c:	1040ffba 	beqz	v0,406d68 <disk_ioctl+0x78>
  406e80:	00000000 	nop
  406e84:	24100030 	li	s0,48
  406e88:	0c101903 	jal	40640c <xchg_spi>
  406e8c:	240400ff 	li	a0,255
  406e90:	2610ffff 	addiu	s0,s0,-1
  406e94:	321000ff 	andi	s0,s0,0xff
  406e98:	1600fffb 	bnez	s0,406e88 <disk_ioctl+0x198>
  406e9c:	93a2001a 	lbu	v0,26(sp)
  406ea0:	00021902 	srl	v1,v0,0x4
  406ea4:	24020010 	li	v0,16
  406ea8:	00621004 	sllv	v0,v0,v1
  406eac:	1000ffae 	b	406d68 <disk_ioctl+0x78>
  406eb0:	ae220000 	sw	v0,0(s1)
  406eb4:	0c10193f 	jal	4064fc <send_cmd>
  406eb8:	24040009 	li	a0,9
  406ebc:	1440ffaa 	bnez	v0,406d68 <disk_ioctl+0x78>
  406ec0:	24100001 	li	s0,1
  406ec4:	24050010 	li	a1,16
  406ec8:	0c1019a1 	jal	406684 <rcvr_datablock>
  406ecc:	27a40010 	addiu	a0,sp,16
  406ed0:	1040ffa5 	beqz	v0,406d68 <disk_ioctl+0x78>
  406ed4:	00000000 	nop
  406ed8:	3c020042 	lui	v0,0x42
  406edc:	90425d58 	lbu	v0,23896(v0)
  406ee0:	30420002 	andi	v0,v0,0x2
  406ee4:	1040000e 	beqz	v0,406f20 <disk_ioctl+0x230>
  406ee8:	93a3001b 	lbu	v1,27(sp)
  406eec:	93a2001a 	lbu	v0,26(sp)
  406ef0:	00021040 	sll	v0,v0,0x1
  406ef4:	3042007e 	andi	v0,v0,0x7e
  406ef8:	000319c2 	srl	v1,v1,0x7
  406efc:	00431021 	addu	v0,v0,v1
  406f00:	24420001 	addiu	v0,v0,1
  406f04:	93a3001d 	lbu	v1,29(sp)
  406f08:	00031982 	srl	v1,v1,0x6
  406f0c:	2463ffff 	addiu	v1,v1,-1
  406f10:	00621004 	sllv	v0,v0,v1
  406f14:	ae220000 	sw	v0,0(s1)
  406f18:	1000ff93 	b	406d68 <disk_ioctl+0x78>
  406f1c:	00008025 	move	s0,zero
  406f20:	000310c0 	sll	v0,v1,0x3
  406f24:	30420018 	andi	v0,v0,0x18
  406f28:	00031942 	srl	v1,v1,0x5
  406f2c:	00431021 	addu	v0,v0,v1
  406f30:	24420001 	addiu	v0,v0,1
  406f34:	93a3001a 	lbu	v1,26(sp)
  406f38:	7c632080 	ext	v1,v1,0x2,0x5
  406f3c:	24630001 	addiu	v1,v1,1
  406f40:	70431002 	mul	v0,v0,v1
  406f44:	ae220000 	sw	v0,0(s1)
  406f48:	1000ff87 	b	406d68 <disk_ioctl+0x78>
  406f4c:	00008025 	move	s0,zero
  406f50:	3c020042 	lui	v0,0x42
  406f54:	90425d58 	lbu	v0,23896(v0)
  406f58:	a0c20000 	sb	v0,0(a2)
  406f5c:	1000ff82 	b	406d68 <disk_ioctl+0x78>
  406f60:	00008025 	move	s0,zero
  406f64:	00002825 	move	a1,zero
  406f68:	0c10193f 	jal	4064fc <send_cmd>
  406f6c:	24040009 	li	a0,9
  406f70:	1440ff7d 	bnez	v0,406d68 <disk_ioctl+0x78>
  406f74:	24100001 	li	s0,1
  406f78:	24050010 	li	a1,16
  406f7c:	0c1019a1 	jal	406684 <rcvr_datablock>
  406f80:	02202025 	move	a0,s1
  406f84:	1000ff78 	b	406d68 <disk_ioctl+0x78>
  406f88:	2c500001 	sltiu	s0,v0,1
  406f8c:	00002825 	move	a1,zero
  406f90:	0c10193f 	jal	4064fc <send_cmd>
  406f94:	2404000a 	li	a0,10
  406f98:	1440ff73 	bnez	v0,406d68 <disk_ioctl+0x78>
  406f9c:	24100001 	li	s0,1
  406fa0:	24050010 	li	a1,16
  406fa4:	0c1019a1 	jal	406684 <rcvr_datablock>
  406fa8:	02202025 	move	a0,s1
  406fac:	1000ff6e 	b	406d68 <disk_ioctl+0x78>
  406fb0:	2c500001 	sltiu	s0,v0,1
  406fb4:	00002825 	move	a1,zero
  406fb8:	0c10193f 	jal	4064fc <send_cmd>
  406fbc:	2404003a 	li	a0,58
  406fc0:	1440ff69 	bnez	v0,406d68 <disk_ioctl+0x78>
  406fc4:	24100001 	li	s0,1
  406fc8:	26300004 	addiu	s0,s1,4
  406fcc:	26310001 	addiu	s1,s1,1
  406fd0:	0c101903 	jal	40640c <xchg_spi>
  406fd4:	240400ff 	li	a0,255
  406fd8:	1630fffc 	bne	s1,s0,406fcc <disk_ioctl+0x2dc>
  406fdc:	a222ffff 	sb	v0,-1(s1)
  406fe0:	1000ff61 	b	406d68 <disk_ioctl+0x78>
  406fe4:	00008025 	move	s0,zero
  406fe8:	00002825 	move	a1,zero
  406fec:	0c10193f 	jal	4064fc <send_cmd>
  406ff0:	2404008d 	li	a0,141
  406ff4:	1440ff5c 	bnez	v0,406d68 <disk_ioctl+0x78>
  406ff8:	24100001 	li	s0,1
  406ffc:	0c101903 	jal	40640c <xchg_spi>
  407000:	240400ff 	li	a0,255
  407004:	24050040 	li	a1,64
  407008:	0c1019a1 	jal	406684 <rcvr_datablock>
  40700c:	02202025 	move	a0,s1
  407010:	1000ff55 	b	406d68 <disk_ioctl+0x78>
  407014:	2c500001 	sltiu	s0,v0,1
  407018:	0c101c69 	jal	4071a4 <spi_disable>
  40701c:	00000000 	nop
  407020:	3c030041 	lui	v1,0x41
  407024:	9062f068 	lbu	v0,-3992(v1)
  407028:	304200ff 	andi	v0,v0,0xff
  40702c:	34420001 	ori	v0,v0,0x1
  407030:	a062f068 	sb	v0,-3992(v1)
  407034:	1000ff4c 	b	406d68 <disk_ioctl+0x78>
  407038:	00008025 	move	s0,zero
  40703c:	1000ff4a 	b	406d68 <disk_ioctl+0x78>
  407040:	24100004 	li	s0,4

00407044 <set_leds>:
  407044:	3c02b060 	lui	v0,0xb060
  407048:	ac440000 	sw	a0,0(v0)
  40704c:	03e00008 	jr	ra
  407050:	00000000 	nop

00407054 <spi_init>:
  407054:	27bdffe0 	addiu	sp,sp,-32
  407058:	afbf001c 	sw	ra,28(sp)
  40705c:	afb10018 	sw	s1,24(sp)
  407060:	afb00014 	sw	s0,20(sp)
  407064:	00002825 	move	a1,zero
  407068:	3c040042 	lui	a0,0x42
  40706c:	0c10122b 	jal	4048ac <printf>
  407070:	2484c900 	addiu	a0,a0,-14080
  407074:	2411000f 	li	s1,15
  407078:	3c100042 	lui	s0,0x42
  40707c:	2610c924 	addiu	s0,s0,-14044
  407080:	00002825 	move	a1,zero
  407084:	0c10122b 	jal	4048ac <printf>
  407088:	02002025 	move	a0,s0
  40708c:	2403012c 	li	v1,300
  407090:	240203e8 	li	v0,1000
  407094:	2442ffff 	addiu	v0,v0,-1
  407098:	5440ffff 	bnezl	v0,407098 <spi_init+0x44>
  40709c:	2442ffff 	addiu	v0,v0,-1
  4070a0:	2463ffff 	addiu	v1,v1,-1
  4070a4:	1460fffb 	bnez	v1,407094 <spi_init+0x40>
  4070a8:	240203e8 	li	v0,1000
  4070ac:	2631ffff 	addiu	s1,s1,-1
  4070b0:	1620fff4 	bnez	s1,407084 <spi_init+0x30>
  4070b4:	00002825 	move	a1,zero
  4070b8:	3c040042 	lui	a0,0x42
  4070bc:	0c10122b 	jal	4048ac <printf>
  4070c0:	2484c928 	addiu	a0,a0,-14040
  4070c4:	3c020041 	lui	v0,0x41
  4070c8:	8c43f06c 	lw	v1,-3988(v0)
  4070cc:	24040001 	li	a0,1
  4070d0:	ac640000 	sw	a0,0(v1)
  4070d4:	8c42f06c 	lw	v0,-3988(v0)
  4070d8:	2403000a 	li	v1,10
  4070dc:	ac430040 	sw	v1,64(v0)
  4070e0:	240300e4 	li	v1,228
  4070e4:	ac430060 	sw	v1,96(v0)
  4070e8:	ac40001c 	sw	zero,28(v0)
  4070ec:	8c500064 	lw	s0,100(v0)
  4070f0:	321007ff 	andi	s0,s0,0x7ff
  4070f4:	24020025 	li	v0,37
  4070f8:	12020004 	beq	s0,v0,40710c <spi_init+0xb8>
  4070fc:	00000000 	nop
  407100:	3c040042 	lui	a0,0x42
  407104:	0c10122b 	jal	4048ac <printf>
  407108:	2484c948 	addiu	a0,a0,-14008
  40710c:	0c101c11 	jal	407044 <set_leds>
  407110:	02002025 	move	a0,s0
  407114:	3c020041 	lui	v0,0x41
  407118:	8c42f06c 	lw	v0,-3988(v0)
  40711c:	24030086 	li	v1,134
  407120:	ac430060 	sw	v1,96(v0)
  407124:	00002825 	move	a1,zero
  407128:	3c040042 	lui	a0,0x42
  40712c:	0c10122b 	jal	4048ac <printf>
  407130:	2484c978 	addiu	a0,a0,-13960
  407134:	2411000f 	li	s1,15
  407138:	3c100042 	lui	s0,0x42
  40713c:	2610c924 	addiu	s0,s0,-14044
  407140:	00002825 	move	a1,zero
  407144:	0c10122b 	jal	4048ac <printf>
  407148:	02002025 	move	a0,s0
  40714c:	2403012c 	li	v1,300
  407150:	240203e8 	li	v0,1000
  407154:	2442ffff 	addiu	v0,v0,-1
  407158:	5440ffff 	bnezl	v0,407158 <spi_init+0x104>
  40715c:	2442ffff 	addiu	v0,v0,-1
  407160:	2463ffff 	addiu	v1,v1,-1
  407164:	1460fffb 	bnez	v1,407154 <spi_init+0x100>
  407168:	240203e8 	li	v0,1000
  40716c:	2631ffff 	addiu	s1,s1,-1
  407170:	1620fff4 	bnez	s1,407144 <spi_init+0xf0>
  407174:	00002825 	move	a1,zero
  407178:	3c040042 	lui	a0,0x42
  40717c:	0c10122b 	jal	4048ac <printf>
  407180:	2484c998 	addiu	a0,a0,-13928
  407184:	3c020041 	lui	v0,0x41
  407188:	8c42f06c 	lw	v0,-3988(v0)
  40718c:	ac400000 	sw	zero,0(v0)
  407190:	8fbf001c 	lw	ra,28(sp)
  407194:	8fb10018 	lw	s1,24(sp)
  407198:	8fb00014 	lw	s0,20(sp)
  40719c:	03e00008 	jr	ra
  4071a0:	27bd0020 	addiu	sp,sp,32

004071a4 <spi_disable>:
  4071a4:	27bdffe0 	addiu	sp,sp,-32
  4071a8:	afbf001c 	sw	ra,28(sp)
  4071ac:	afb10018 	sw	s1,24(sp)
  4071b0:	afb00014 	sw	s0,20(sp)
  4071b4:	00002825 	move	a1,zero
  4071b8:	3c040042 	lui	a0,0x42
  4071bc:	0c10122b 	jal	4048ac <printf>
  4071c0:	2484c900 	addiu	a0,a0,-14080
  4071c4:	2410000f 	li	s0,15
  4071c8:	3c020042 	lui	v0,0x42
  4071cc:	2451c924 	addiu	s1,v0,-14044
  4071d0:	00002825 	move	a1,zero
  4071d4:	0c10122b 	jal	4048ac <printf>
  4071d8:	02202025 	move	a0,s1
  4071dc:	2403012c 	li	v1,300
  4071e0:	240203e8 	li	v0,1000
  4071e4:	2442ffff 	addiu	v0,v0,-1
  4071e8:	5440ffff 	bnezl	v0,4071e8 <spi_disable+0x44>
  4071ec:	2442ffff 	addiu	v0,v0,-1
  4071f0:	2463ffff 	addiu	v1,v1,-1
  4071f4:	1460fffb 	bnez	v1,4071e4 <spi_disable+0x40>
  4071f8:	240203e8 	li	v0,1000
  4071fc:	2610ffff 	addiu	s0,s0,-1
  407200:	1600fff4 	bnez	s0,4071d4 <spi_disable+0x30>
  407204:	00002825 	move	a1,zero
  407208:	3c040042 	lui	a0,0x42
  40720c:	0c10122b 	jal	4048ac <printf>
  407210:	2484c9b4 	addiu	a0,a0,-13900
  407214:	3c020041 	lui	v0,0x41
  407218:	8c43f06c 	lw	v1,-3988(v0)
  40721c:	24040001 	li	a0,1
  407220:	ac640000 	sw	a0,0(v1)
  407224:	8c42f06c 	lw	v0,-3988(v0)
  407228:	240300e4 	li	v1,228
  40722c:	ac430060 	sw	v1,96(v0)
  407230:	8fbf001c 	lw	ra,28(sp)
  407234:	8fb10018 	lw	s1,24(sp)
  407238:	8fb00014 	lw	s0,20(sp)
  40723c:	03e00008 	jr	ra
  407240:	27bd0020 	addiu	sp,sp,32

00407244 <spi_send>:
  407244:	3c020041 	lui	v0,0x41
  407248:	8c43f06c 	lw	v1,-3988(v0)
  40724c:	ac640068 	sw	a0,104(v1)
  407250:	8c620064 	lw	v0,100(v1)
  407254:	30420004 	andi	v0,v0,0x4
  407258:	1040fffd 	beqz	v0,407250 <spi_send+0xc>
  40725c:	00000000 	nop
  407260:	8c62006c 	lw	v0,108(v1)
  407264:	03e00008 	jr	ra
  407268:	304200ff 	andi	v0,v0,0xff

0040726c <spi_send_multi>:
  40726c:	10a0000b 	beqz	a1,40729c <spi_send_multi+0x30>
  407270:	3c020041 	lui	v0,0x41
  407274:	8c46f06c 	lw	a2,-3988(v0)
  407278:	24a3ffff 	addiu	v1,a1,-1
  40727c:	306300ff 	andi	v1,v1,0xff
  407280:	24630001 	addiu	v1,v1,1
  407284:	00831821 	addu	v1,a0,v1
  407288:	24840001 	addiu	a0,a0,1
  40728c:	9082ffff 	lbu	v0,-1(a0)
  407290:	acc20068 	sw	v0,104(a2)
  407294:	5483fffd 	bnel	a0,v1,40728c <spi_send_multi+0x20>
  407298:	24840001 	addiu	a0,a0,1
  40729c:	3c020041 	lui	v0,0x41
  4072a0:	8c43f06c 	lw	v1,-3988(v0)
  4072a4:	8c620064 	lw	v0,100(v1)
  4072a8:	30420004 	andi	v0,v0,0x4
  4072ac:	1040fffd 	beqz	v0,4072a4 <spi_send_multi+0x38>
  4072b0:	240200c6 	li	v0,198
  4072b4:	ac620060 	sw	v0,96(v1)
  4072b8:	03e00008 	jr	ra
  4072bc:	00000000 	nop

004072c0 <spi_recv_multi>:
  4072c0:	10a00009 	beqz	a1,4072e8 <spi_recv_multi+0x28>
  4072c4:	3c020041 	lui	v0,0x41
  4072c8:	8c46f06c 	lw	a2,-3988(v0)
  4072cc:	00001025 	move	v0,zero
  4072d0:	240300ff 	li	v1,255
  4072d4:	acc30068 	sw	v1,104(a2)
  4072d8:	24420001 	addiu	v0,v0,1
  4072dc:	304200ff 	andi	v0,v0,0xff
  4072e0:	14a2fffc 	bne	a1,v0,4072d4 <spi_recv_multi+0x14>
  4072e4:	00000000 	nop
  4072e8:	3c020041 	lui	v0,0x41
  4072ec:	8c43f06c 	lw	v1,-3988(v0)
  4072f0:	8c620064 	lw	v0,100(v1)
  4072f4:	30420004 	andi	v0,v0,0x4
  4072f8:	1040fffd 	beqz	v0,4072f0 <spi_recv_multi+0x30>
  4072fc:	00000000 	nop
  407300:	10a0000b 	beqz	a1,407330 <spi_recv_multi+0x70>
  407304:	00000000 	nop
  407308:	24a2ffff 	addiu	v0,a1,-1
  40730c:	304200ff 	andi	v0,v0,0xff
  407310:	24420001 	addiu	v0,v0,1
  407314:	00821021 	addu	v0,a0,v0
  407318:	3c050041 	lui	a1,0x41
  40731c:	24840001 	addiu	a0,a0,1
  407320:	8ca3f06c 	lw	v1,-3988(a1)
  407324:	8c63006c 	lw	v1,108(v1)
  407328:	1482fffc 	bne	a0,v0,40731c <spi_recv_multi+0x5c>
  40732c:	a083ffff 	sb	v1,-1(a0)
  407330:	03e00008 	jr	ra
  407334:	00000000 	nop

00407338 <spi_select_slave>:
  407338:	3c020041 	lui	v0,0x41
  40733c:	8c42f06c 	lw	v0,-3988(v0)
  407340:	2403fffe 	li	v1,-2
  407344:	ac430070 	sw	v1,112(v0)
  407348:	03e00008 	jr	ra
  40734c:	00000000 	nop

00407350 <spi_deselect_slave>:
  407350:	3c020041 	lui	v0,0x41
  407354:	8c42f06c 	lw	v0,-3988(v0)
  407358:	2403ffff 	li	v1,-1
  40735c:	ac430070 	sw	v1,112(v0)
  407360:	03e00008 	jr	ra
  407364:	00000000 	nop

00407368 <get_seven_seg_enable>:
  407368:	3c02b080 	lui	v0,0xb080
  40736c:	8c420000 	lw	v0,0(v0)
  407370:	03e00008 	jr	ra
  407374:	00000000 	nop

00407378 <set_seven_seg_enable>:
  407378:	3c02b080 	lui	v0,0xb080
  40737c:	ac440000 	sw	a0,0(v0)
  407380:	03e00008 	jr	ra
  407384:	00000000 	nop

00407388 <get_seven_seg_value>:
  407388:	3c02b081 	lui	v0,0xb081
  40738c:	8c420000 	lw	v0,0(v0)
  407390:	03e00008 	jr	ra
  407394:	00000000 	nop

00407398 <set_seven_seg_value>:
  407398:	3c02b081 	lui	v0,0xb081
  40739c:	ac440000 	sw	a0,0(v0)
  4073a0:	03e00008 	jr	ra
  4073a4:	00000000 	nop

004073a8 <init_seven_seg>:
  4073a8:	3c02b080 	lui	v0,0xb080
  4073ac:	ac400000 	sw	zero,0(v0)
  4073b0:	3c02b081 	lui	v0,0xb081
  4073b4:	ac400000 	sw	zero,0(v0)
  4073b8:	03e00008 	jr	ra
  4073bc:	00000000 	nop

004073c0 <enable_one_seven_seg>:
  4073c0:	2c820008 	sltiu	v0,a0,8
  4073c4:	14400003 	bnez	v0,4073d4 <enable_one_seven_seg+0x14>
  4073c8:	3c03b080 	lui	v1,0xb080
  4073cc:	03e00008 	jr	ra
  4073d0:	00000000 	nop
  4073d4:	8c650000 	lw	a1,0(v1)
  4073d8:	24020001 	li	v0,1
  4073dc:	00822004 	sllv	a0,v0,a0
  4073e0:	00852025 	or	a0,a0,a1
  4073e4:	ac640000 	sw	a0,0(v1)
  4073e8:	1000fff8 	b	4073cc <enable_one_seven_seg+0xc>
  4073ec:	00000000 	nop

004073f0 <enable_all_seven_seg>:
  4073f0:	240300ff 	li	v1,255
  4073f4:	3c02b080 	lui	v0,0xb080
  4073f8:	ac430000 	sw	v1,0(v0)
  4073fc:	03e00008 	jr	ra
  407400:	00000000 	nop

00407404 <disable_one_seven_seg>:
  407404:	2c820008 	sltiu	v0,a0,8
  407408:	14400003 	bnez	v0,407418 <disable_one_seven_seg+0x14>
  40740c:	3c03b080 	lui	v1,0xb080
  407410:	03e00008 	jr	ra
  407414:	00000000 	nop
  407418:	8c650000 	lw	a1,0(v1)
  40741c:	24020001 	li	v0,1
  407420:	00822004 	sllv	a0,v0,a0
  407424:	00042027 	nor	a0,zero,a0
  407428:	00852024 	and	a0,a0,a1
  40742c:	ac640000 	sw	a0,0(v1)
  407430:	1000fff7 	b	407410 <disable_one_seven_seg+0xc>
  407434:	00000000 	nop

00407438 <disable_all_seven_seg>:
  407438:	3c02b080 	lui	v0,0xb080
  40743c:	ac400000 	sw	zero,0(v0)
  407440:	03e00008 	jr	ra
  407444:	00000000 	nop

00407448 <set_seven_seg_digit>:
  407448:	2c820010 	sltiu	v0,a0,16
  40744c:	10400003 	beqz	v0,40745c <set_seven_seg_digit+0x14>
  407450:	2ca20008 	sltiu	v0,a1,8
  407454:	14400003 	bnez	v0,407464 <set_seven_seg_digit+0x1c>
  407458:	3c02b080 	lui	v0,0xb080
  40745c:	03e00008 	jr	ra
  407460:	00000000 	nop
  407464:	8c430000 	lw	v1,0(v0)
  407468:	00052880 	sll	a1,a1,0x2
  40746c:	2402000f 	li	v0,15
  407470:	00a21004 	sllv	v0,v0,a1
  407474:	00021027 	nor	v0,zero,v0
  407478:	00431024 	and	v0,v0,v1
  40747c:	00a42004 	sllv	a0,a0,a1
  407480:	00442025 	or	a0,v0,a0
  407484:	3c02b081 	lui	v0,0xb081
  407488:	ac440000 	sw	a0,0(v0)
  40748c:	1000fff3 	b	40745c <set_seven_seg_digit+0x14>
  407490:	00000000 	nop

00407494 <clean_seven_seg_value>:
  407494:	3c02b081 	lui	v0,0xb081
  407498:	ac400000 	sw	zero,0(v0)
  40749c:	03e00008 	jr	ra
  4074a0:	00000000 	nop

004074a4 <get_switches>:
  4074a4:	3c02b0c0 	lui	v0,0xb0c0
  4074a8:	8c420000 	lw	v0,0(v0)
  4074ac:	03e00008 	jr	ra
  4074b0:	00000000 	nop

004074b4 <set_TCSR0>:
  4074b4:	3c02b050 	lui	v0,0xb050
  4074b8:	ac440000 	sw	a0,0(v0)
  4074bc:	03e00008 	jr	ra
  4074c0:	00000000 	nop

004074c4 <get_TCSR0>:
  4074c4:	3c02b050 	lui	v0,0xb050
  4074c8:	8c420000 	lw	v0,0(v0)
  4074cc:	03e00008 	jr	ra
  4074d0:	00000000 	nop

004074d4 <set_TLR0>:
  4074d4:	3c02b050 	lui	v0,0xb050
  4074d8:	ac440004 	sw	a0,4(v0)
  4074dc:	03e00008 	jr	ra
  4074e0:	00000000 	nop

004074e4 <get_TLR0>:
  4074e4:	3c02b050 	lui	v0,0xb050
  4074e8:	8c420004 	lw	v0,4(v0)
  4074ec:	03e00008 	jr	ra
  4074f0:	00000000 	nop

004074f4 <get_TCR0>:
  4074f4:	3c02b050 	lui	v0,0xb050
  4074f8:	8c420008 	lw	v0,8(v0)
  4074fc:	03e00008 	jr	ra
  407500:	00000000 	nop

00407504 <get_timer0_int>:
  407504:	3c02b050 	lui	v0,0xb050
  407508:	8c420000 	lw	v0,0(v0)
  40750c:	03e00008 	jr	ra
  407510:	7c420200 	ext	v0,v0,0x8,0x1

00407514 <clear_timer0_int>:
  407514:	3c03b050 	lui	v1,0xb050
  407518:	8c620000 	lw	v0,0(v1)
  40751c:	34420100 	ori	v0,v0,0x100
  407520:	ac620000 	sw	v0,0(v1)
  407524:	03e00008 	jr	ra
  407528:	00000000 	nop

0040752c <enable_timer0>:
  40752c:	3c03b050 	lui	v1,0xb050
  407530:	8c620000 	lw	v0,0(v1)
  407534:	34420080 	ori	v0,v0,0x80
  407538:	ac620000 	sw	v0,0(v1)
  40753c:	03e00008 	jr	ra
  407540:	00000000 	nop

00407544 <disable_timer0>:
  407544:	3c03b050 	lui	v1,0xb050
  407548:	8c620000 	lw	v0,0(v1)
  40754c:	7c0239c4 	ins	v0,zero,0x7,0x1
  407550:	ac620000 	sw	v0,0(v1)
  407554:	03e00008 	jr	ra
  407558:	00000000 	nop

0040755c <set_timing_interval_s>:
  40755c:	2c820056 	sltiu	v0,a0,86
  407560:	10400008 	beqz	v0,407584 <set_timing_interval_s+0x28>
  407564:	3c0202fa 	lui	v0,0x2fa
  407568:	3442f080 	ori	v0,v0,0xf080
  40756c:	70822002 	mul	a0,a0,v0
  407570:	2484fffc 	addiu	a0,a0,-4
  407574:	3c02b050 	lui	v0,0xb050
  407578:	ac440004 	sw	a0,4(v0)
  40757c:	03e00008 	jr	ra
  407580:	00000000 	nop
  407584:	27bdffe8 	addiu	sp,sp,-24
  407588:	afbf0014 	sw	ra,20(sp)
  40758c:	3c060042 	lui	a2,0x42
  407590:	24c6c9b8 	addiu	a2,a2,-13896
  407594:	2405002e 	li	a1,46
  407598:	3c040042 	lui	a0,0x42
  40759c:	0c10123f 	jal	4048fc <_panic>
  4075a0:	2484c9e8 	addiu	a0,a0,-13848

004075a4 <set_timing_interval_ms>:
  4075a4:	3c020001 	lui	v0,0x1
  4075a8:	24424f8c 	addiu	v0,v0,20364
  4075ac:	0082102b 	sltu	v0,a0,v0
  4075b0:	1040000e 	beqz	v0,4075ec <set_timing_interval_ms+0x48>
  4075b4:	00041040 	sll	v0,a0,0x1
  4075b8:	00441021 	addu	v0,v0,a0
  4075bc:	00021980 	sll	v1,v0,0x6
  4075c0:	00431021 	addu	v0,v0,v1
  4075c4:	00021080 	sll	v0,v0,0x2
  4075c8:	00441021 	addu	v0,v0,a0
  4075cc:	00021080 	sll	v0,v0,0x2
  4075d0:	00442021 	addu	a0,v0,a0
  4075d4:	00042100 	sll	a0,a0,0x4
  4075d8:	2484fffc 	addiu	a0,a0,-4
  4075dc:	3c02b050 	lui	v0,0xb050
  4075e0:	ac440004 	sw	a0,4(v0)
  4075e4:	03e00008 	jr	ra
  4075e8:	00000000 	nop
  4075ec:	27bdffe8 	addiu	sp,sp,-24
  4075f0:	afbf0014 	sw	ra,20(sp)
  4075f4:	3c060042 	lui	a2,0x42
  4075f8:	24c6c9fc 	addiu	a2,a2,-13828
  4075fc:	24050036 	li	a1,54
  407600:	3c040042 	lui	a0,0x42
  407604:	0c10123f 	jal	4048fc <_panic>
  407608:	2484c9e8 	addiu	a0,a0,-13848

0040760c <init_timer>:
  40760c:	27bdffe8 	addiu	sp,sp,-24
  407610:	afbf0014 	sw	ra,20(sp)
  407614:	3c02b050 	lui	v0,0xb050
  407618:	ac400000 	sw	zero,0(v0)
  40761c:	3c0302fa 	lui	v1,0x2fa
  407620:	3463f07c 	ori	v1,v1,0xf07c
  407624:	ac430004 	sw	v1,4(v0)
  407628:	24030052 	li	v1,82
  40762c:	ac430000 	sw	v1,0(v0)
  407630:	0c101d4b 	jal	40752c <enable_timer0>
  407634:	00000000 	nop
  407638:	8fbf0014 	lw	ra,20(sp)
  40763c:	03e00008 	jr	ra
  407640:	27bd0018 	addiu	sp,sp,24

00407644 <get_UART_RBR>:
  407644:	3c02b040 	lui	v0,0xb040
  407648:	8c421000 	lw	v0,4096(v0)
  40764c:	03e00008 	jr	ra
  407650:	00000000 	nop

00407654 <set_UART_THR>:
  407654:	3c02b040 	lui	v0,0xb040
  407658:	ac441000 	sw	a0,4096(v0)
  40765c:	03e00008 	jr	ra
  407660:	00000000 	nop

00407664 <get_UART_IER>:
  407664:	3c02b040 	lui	v0,0xb040
  407668:	8c421004 	lw	v0,4100(v0)
  40766c:	03e00008 	jr	ra
  407670:	00000000 	nop

00407674 <set_UART_IER>:
  407674:	3c02b040 	lui	v0,0xb040
  407678:	ac441004 	sw	a0,4100(v0)
  40767c:	03e00008 	jr	ra
  407680:	00000000 	nop

00407684 <get_UART_IIR>:
  407684:	3c02b040 	lui	v0,0xb040
  407688:	8c421008 	lw	v0,4104(v0)
  40768c:	03e00008 	jr	ra
  407690:	00000000 	nop

00407694 <set_UART_FCR>:
  407694:	3c02b040 	lui	v0,0xb040
  407698:	ac441008 	sw	a0,4104(v0)
  40769c:	03e00008 	jr	ra
  4076a0:	00000000 	nop

004076a4 <get_UART_FCR>:
  4076a4:	3c02b040 	lui	v0,0xb040
  4076a8:	8c421008 	lw	v0,4104(v0)
  4076ac:	03e00008 	jr	ra
  4076b0:	00000000 	nop

004076b4 <set_UART_LCR>:
  4076b4:	3c02b040 	lui	v0,0xb040
  4076b8:	ac44100c 	sw	a0,4108(v0)
  4076bc:	03e00008 	jr	ra
  4076c0:	00000000 	nop

004076c4 <get_UART_LCR>:
  4076c4:	3c02b040 	lui	v0,0xb040
  4076c8:	8c42100c 	lw	v0,4108(v0)
  4076cc:	03e00008 	jr	ra
  4076d0:	00000000 	nop

004076d4 <set_UART_MCR>:
  4076d4:	3c02b040 	lui	v0,0xb040
  4076d8:	ac441010 	sw	a0,4112(v0)
  4076dc:	03e00008 	jr	ra
  4076e0:	00000000 	nop

004076e4 <get_UART_MCR>:
  4076e4:	3c02b040 	lui	v0,0xb040
  4076e8:	8c421010 	lw	v0,4112(v0)
  4076ec:	03e00008 	jr	ra
  4076f0:	00000000 	nop

004076f4 <set_UART_LSR>:
  4076f4:	3c02b040 	lui	v0,0xb040
  4076f8:	ac441014 	sw	a0,4116(v0)
  4076fc:	03e00008 	jr	ra
  407700:	00000000 	nop

00407704 <get_UART_LSR>:
  407704:	3c02b040 	lui	v0,0xb040
  407708:	8c421014 	lw	v0,4116(v0)
  40770c:	03e00008 	jr	ra
  407710:	00000000 	nop

00407714 <set_UART_MSR>:
  407714:	3c02b040 	lui	v0,0xb040
  407718:	ac441018 	sw	a0,4120(v0)
  40771c:	03e00008 	jr	ra
  407720:	00000000 	nop

00407724 <get_UART_MSR>:
  407724:	3c02b040 	lui	v0,0xb040
  407728:	8c421018 	lw	v0,4120(v0)
  40772c:	03e00008 	jr	ra
  407730:	00000000 	nop

00407734 <set_UART_SCR>:
  407734:	3c02b040 	lui	v0,0xb040
  407738:	ac44101c 	sw	a0,4124(v0)
  40773c:	03e00008 	jr	ra
  407740:	00000000 	nop

00407744 <get_UART_SCR>:
  407744:	3c02b040 	lui	v0,0xb040
  407748:	8c42101c 	lw	v0,4124(v0)
  40774c:	03e00008 	jr	ra
  407750:	00000000 	nop

00407754 <set_UART_DLL>:
  407754:	3c02b040 	lui	v0,0xb040
  407758:	ac441000 	sw	a0,4096(v0)
  40775c:	03e00008 	jr	ra
  407760:	00000000 	nop

00407764 <get_UART_DLL>:
  407764:	3c02b040 	lui	v0,0xb040
  407768:	8c421000 	lw	v0,4096(v0)
  40776c:	03e00008 	jr	ra
  407770:	00000000 	nop

00407774 <set_UART_DLM>:
  407774:	3c02b040 	lui	v0,0xb040
  407778:	ac441004 	sw	a0,4100(v0)
  40777c:	03e00008 	jr	ra
  407780:	00000000 	nop

00407784 <get_UART_DLM>:
  407784:	3c02b040 	lui	v0,0xb040
  407788:	8c421004 	lw	v0,4100(v0)
  40778c:	03e00008 	jr	ra
  407790:	00000000 	nop

00407794 <get_UART_ERF>:
  407794:	03e00008 	jr	ra
  407798:	7c8201c0 	ext	v0,a0,0x7,0x1

0040779c <get_UART_TEMT>:
  40779c:	03e00008 	jr	ra
  4077a0:	7c820180 	ext	v0,a0,0x6,0x1

004077a4 <get_UART_THRE>:
  4077a4:	03e00008 	jr	ra
  4077a8:	7c820140 	ext	v0,a0,0x5,0x1

004077ac <get_UART_BI>:
  4077ac:	03e00008 	jr	ra
  4077b0:	7c820100 	ext	v0,a0,0x4,0x1

004077b4 <get_UART_FE>:
  4077b4:	03e00008 	jr	ra
  4077b8:	7c8200c0 	ext	v0,a0,0x3,0x1

004077bc <get_UART_PE>:
  4077bc:	03e00008 	jr	ra
  4077c0:	7c820080 	ext	v0,a0,0x2,0x1

004077c4 <get_UART_OE>:
  4077c4:	03e00008 	jr	ra
  4077c8:	7c820040 	ext	v0,a0,0x1,0x1

004077cc <get_UART_DR>:
  4077cc:	03e00008 	jr	ra
  4077d0:	30820001 	andi	v0,a0,0x1

004077d4 <init_uart>:
  4077d4:	3c02b040 	lui	v0,0xb040
  4077d8:	24030080 	li	v1,128
  4077dc:	ac43100c 	sw	v1,4108(v0)
  4077e0:	2403001b 	li	v1,27
  4077e4:	ac431000 	sw	v1,4096(v0)
  4077e8:	ac401004 	sw	zero,4100(v0)
  4077ec:	24030003 	li	v1,3
  4077f0:	ac43100c 	sw	v1,4108(v0)
  4077f4:	ac401004 	sw	zero,4100(v0)
  4077f8:	03e00008 	jr	ra
  4077fc:	00000000 	nop

00407800 <interface_init>:
  407800:	27bdffe8 	addiu	sp,sp,-24
  407804:	afbf0014 	sw	ra,20(sp)
  407808:	afb00010 	sw	s0,16(sp)
  40780c:	3c100042 	lui	s0,0x42
  407810:	0c10122b 	jal	4048ac <printf>
  407814:	2604c1e0 	addiu	a0,s0,-15904
  407818:	0c10122b 	jal	4048ac <printf>
  40781c:	2604c1e0 	addiu	a0,s0,-15904
  407820:	0c10122b 	jal	4048ac <printf>
  407824:	2604c1e0 	addiu	a0,s0,-15904
  407828:	3c040042 	lui	a0,0x42
  40782c:	0c10122b 	jal	4048ac <printf>
  407830:	2484ca34 	addiu	a0,a0,-13772
  407834:	3c040042 	lui	a0,0x42
  407838:	0c10122b 	jal	4048ac <printf>
  40783c:	2484ca6c 	addiu	a0,a0,-13716
  407840:	3c040042 	lui	a0,0x42
  407844:	0c10122b 	jal	4048ac <printf>
  407848:	2484caa4 	addiu	a0,a0,-13660
  40784c:	3c040042 	lui	a0,0x42
  407850:	0c10122b 	jal	4048ac <printf>
  407854:	2484cadc 	addiu	a0,a0,-13604
  407858:	3c040042 	lui	a0,0x42
  40785c:	0c10122b 	jal	4048ac <printf>
  407860:	2484cb14 	addiu	a0,a0,-13548
  407864:	3c040042 	lui	a0,0x42
  407868:	0c10122b 	jal	4048ac <printf>
  40786c:	2484cb4c 	addiu	a0,a0,-13492
  407870:	0c10122b 	jal	4048ac <printf>
  407874:	2604c1e0 	addiu	a0,s0,-15904
  407878:	0c10184b 	jal	40612c <boot_music>
  40787c:	00000000 	nop
  407880:	8fbf0014 	lw	ra,20(sp)
  407884:	8fb00010 	lw	s0,16(sp)
  407888:	03e00008 	jr	ra
  40788c:	27bd0018 	addiu	sp,sp,24

00407890 <time_setup>:
  407890:	27bdffe8 	addiu	sp,sp,-24
  407894:	afbf0014 	sw	ra,20(sp)
  407898:	3c040042 	lui	a0,0x42
  40789c:	0c10122b 	jal	4048ac <printf>
  4078a0:	2484cb84 	addiu	a0,a0,-13436
  4078a4:	3c040042 	lui	a0,0x42
  4078a8:	0c101256 	jal	404958 <readline>
  4078ac:	2484cbb0 	addiu	a0,a0,-13392
  4078b0:	3c040042 	lui	a0,0x42
  4078b4:	0c101256 	jal	404958 <readline>
  4078b8:	2484cbb8 	addiu	a0,a0,-13384
  4078bc:	3c040042 	lui	a0,0x42
  4078c0:	0c101256 	jal	404958 <readline>
  4078c4:	2484cbc4 	addiu	a0,a0,-13372
  4078c8:	0c101ce6 	jal	407398 <set_seven_seg_value>
  4078cc:	90440000 	lbu	a0,0(v0)
  4078d0:	8fbf0014 	lw	ra,20(sp)
  4078d4:	03e00008 	jr	ra
  4078d8:	27bd0018 	addiu	sp,sp,24

004078dc <device_init>:
  4078dc:	27bdffe8 	addiu	sp,sp,-24
  4078e0:	afbf0014 	sw	ra,20(sp)
  4078e4:	0c101c11 	jal	407044 <set_leds>
  4078e8:	24045555 	li	a0,21845
  4078ec:	40026000 	mfc0	v0,c0_status
  4078f0:	7c02b584 	ins	v0,zero,0x16,0x1
  4078f4:	40826000 	mtc0	v0,c0_status
  4078f8:	000000c0 	ehb
  4078fc:	40026000 	mfc0	v0,c0_status
  407900:	34427c01 	ori	v0,v0,0x7c01
  407904:	40826000 	mtc0	v0,c0_status
  407908:	000000c0 	ehb
  40790c:	0c101cea 	jal	4073a8 <init_seven_seg>
  407910:	00000000 	nop
  407914:	0c101cfc 	jal	4073f0 <enable_all_seven_seg>
  407918:	00000000 	nop
  40791c:	8fbf0014 	lw	ra,20(sp)
  407920:	03e00008 	jr	ra
  407924:	27bd0018 	addiu	sp,sp,24

00407928 <sys_init>:
  407928:	27bdffe8 	addiu	sp,sp,-24
  40792c:	afbf0014 	sw	ra,20(sp)
  407930:	0c102f68 	jal	40bda0 <mips_tlbinvalall>
  407934:	00000000 	nop
  407938:	0c101f26 	jal	407c98 <mips_detect_memory>
  40793c:	00000000 	nop
  407940:	0c101fa9 	jal	407ea4 <mips_vm_init>
  407944:	00000000 	nop
  407948:	0c102007 	jal	40801c <page_init>
  40794c:	00000000 	nop
  407950:	0c10217b 	jal	4085ec <page_check>
  407954:	00000000 	nop
  407958:	0c100cdd 	jal	403374 <env_init>
  40795c:	00000000 	nop
  407960:	3c020041 	lui	v0,0x41
  407964:	8c457624 	lw	a1,30244(v0)
  407968:	3c040041 	lui	a0,0x41
  40796c:	0c100d9b 	jal	40366c <env_create>
  407970:	24844348 	addiu	a0,a0,17224
  407974:	0c10168f 	jal	405a3c <trap_init>
  407978:	00000000 	nop
  40797c:	3c040042 	lui	a0,0x42
  407980:	0c10122b 	jal	4048ac <printf>
  407984:	2484cbcc 	addiu	a0,a0,-13364
  407988:	3c040042 	lui	a0,0x42
  40798c:	0c10122b 	jal	4048ac <printf>
  407990:	2484cbec 	addiu	a0,a0,-13332
  407994:	0c1012aa 	jal	404aa8 <sched_yield>
  407998:	41606020 	ei
  40799c:	8fbf0014 	lw	ra,20(sp)
  4079a0:	03e00008 	jr	ra
  4079a4:	27bd0018 	addiu	sp,sp,24

004079a8 <SD_TEST>:
  4079a8:	27bdffe8 	addiu	sp,sp,-24
  4079ac:	afbf0014 	sw	ra,20(sp)
  4079b0:	0c101a13 	jal	40684c <disk_initialize>
  4079b4:	00002025 	move	a0,zero
  4079b8:	8fbf0014 	lw	ra,20(sp)
  4079bc:	03e00008 	jr	ra
  4079c0:	27bd0018 	addiu	sp,sp,24

004079c4 <main>:
  4079c4:	27bdffe8 	addiu	sp,sp,-24
  4079c8:	afbf0014 	sw	ra,20(sp)
  4079cc:	0c101e00 	jal	407800 <interface_init>
  4079d0:	00000000 	nop
  4079d4:	0c101e37 	jal	4078dc <device_init>
  4079d8:	00000000 	nop
  4079dc:	0c101e4a 	jal	407928 <sys_init>
  4079e0:	00000000 	nop
  4079e4:	3c040042 	lui	a0,0x42
  4079e8:	0c10123f 	jal	4048fc <_panic>
  4079ec:	2484cc0c 	addiu	a0,a0,-13300
  4079f0:	00001025 	move	v0,zero
  4079f4:	8fbf0014 	lw	ra,20(sp)
  4079f8:	03e00008 	jr	ra
  4079fc:	27bd0018 	addiu	sp,sp,24

00407a00 <alloc>:
  407a00:	27bdffe0 	addiu	sp,sp,-32
  407a04:	afbf001c 	sw	ra,28(sp)
  407a08:	afb10018 	sw	s1,24(sp)
  407a0c:	afb00014 	sw	s0,20(sp)
  407a10:	3c020042 	lui	v0,0x42
  407a14:	8c425d60 	lw	v0,23904(v0)
  407a18:	14400006 	bnez	v0,407a34 <alloc+0x34>
  407a1c:	3c020042 	lui	v0,0x42
  407a20:	3c020042 	lui	v0,0x42
  407a24:	24425e14 	addiu	v0,v0,24084
  407a28:	3c030042 	lui	v1,0x42
  407a2c:	ac625d60 	sw	v0,23904(v1)
  407a30:	3c020042 	lui	v0,0x42
  407a34:	8c505d60 	lw	s0,23904(v0)
  407a38:	2610ffff 	addiu	s0,s0,-1
  407a3c:	02058021 	addu	s0,s0,a1
  407a40:	00052823 	negu	a1,a1
  407a44:	02058024 	and	s0,s0,a1
  407a48:	02048821 	addu	s1,s0,a0
  407a4c:	14c0000e 	bnez	a2,407a88 <alloc+0x88>
  407a50:	ac515d60 	sw	s1,23904(v0)
  407a54:	06210012 	bgez	s1,407aa0 <alloc+0xa0>
  407a58:	3c028000 	lui	v0,0x8000
  407a5c:	02228821 	addu	s1,s1,v0
  407a60:	3c020042 	lui	v0,0x42
  407a64:	8c425dfc 	lw	v0,24060(v0)
  407a68:	0222882b 	sltu	s1,s1,v0
  407a6c:	12200013 	beqz	s1,407abc <alloc+0xbc>
  407a70:	02001025 	move	v0,s0
  407a74:	8fbf001c 	lw	ra,28(sp)
  407a78:	8fb10018 	lw	s1,24(sp)
  407a7c:	8fb00014 	lw	s0,20(sp)
  407a80:	03e00008 	jr	ra
  407a84:	27bd0020 	addiu	sp,sp,32
  407a88:	00803025 	move	a2,a0
  407a8c:	00002825 	move	a1,zero
  407a90:	0c101390 	jal	404e40 <memset>
  407a94:	02002025 	move	a0,s0
  407a98:	1000ffee 	b	407a54 <alloc+0x54>
  407a9c:	00000000 	nop
  407aa0:	02203825 	move	a3,s1
  407aa4:	3c060042 	lui	a2,0x42
  407aa8:	24c6c144 	addiu	a2,a2,-16060
  407aac:	24050084 	li	a1,132
  407ab0:	3c040042 	lui	a0,0x42
  407ab4:	0c10123f 	jal	4048fc <_panic>
  407ab8:	2484cc10 	addiu	a0,a0,-13296
  407abc:	3c060042 	lui	a2,0x42
  407ac0:	24c6cc18 	addiu	a2,a2,-13288
  407ac4:	24050085 	li	a1,133
  407ac8:	3c040042 	lui	a0,0x42
  407acc:	0c10123f 	jal	4048fc <_panic>
  407ad0:	2484cc10 	addiu	a0,a0,-13296

00407ad4 <page2ppn>:
  407ad4:	3c020041 	lui	v0,0x41
  407ad8:	8c42f004 	lw	v0,-4092(v0)
  407adc:	00822023 	subu	a0,a0,v0
  407ae0:	00042083 	sra	a0,a0,0x2
  407ae4:	00041080 	sll	v0,a0,0x2
  407ae8:	00441021 	addu	v0,v0,a0
  407aec:	00022100 	sll	a0,v0,0x4
  407af0:	00441021 	addu	v0,v0,a0
  407af4:	00021a00 	sll	v1,v0,0x8
  407af8:	00431021 	addu	v0,v0,v1
  407afc:	00021c00 	sll	v1,v0,0x10
  407b00:	00431021 	addu	v0,v0,v1
  407b04:	03e00008 	jr	ra
  407b08:	00021023 	negu	v0,v0

00407b0c <page2pa>:
  407b0c:	3c020041 	lui	v0,0x41
  407b10:	8c42f004 	lw	v0,-4092(v0)
  407b14:	00822023 	subu	a0,a0,v0
  407b18:	00042083 	sra	a0,a0,0x2
  407b1c:	00041080 	sll	v0,a0,0x2
  407b20:	00441021 	addu	v0,v0,a0
  407b24:	00022100 	sll	a0,v0,0x4
  407b28:	00441021 	addu	v0,v0,a0
  407b2c:	00021a00 	sll	v1,v0,0x8
  407b30:	00431021 	addu	v0,v0,v1
  407b34:	00021c00 	sll	v1,v0,0x10
  407b38:	00431021 	addu	v0,v0,v1
  407b3c:	00021023 	negu	v0,v0
  407b40:	03e00008 	jr	ra
  407b44:	00021300 	sll	v0,v0,0xc

00407b48 <pa2page>:
  407b48:	00042b02 	srl	a1,a0,0xc
  407b4c:	3c020042 	lui	v0,0x42
  407b50:	8c435df4 	lw	v1,24052(v0)
  407b54:	00a3182b 	sltu	v1,a1,v1
  407b58:	10600007 	beqz	v1,407b78 <pa2page+0x30>
  407b5c:	00051040 	sll	v0,a1,0x1
  407b60:	00451021 	addu	v0,v0,a1
  407b64:	00021080 	sll	v0,v0,0x2
  407b68:	3c030041 	lui	v1,0x41
  407b6c:	8c63f004 	lw	v1,-4092(v1)
  407b70:	03e00008 	jr	ra
  407b74:	00621021 	addu	v0,v1,v0
  407b78:	27bdffe8 	addiu	sp,sp,-24
  407b7c:	afbf0014 	sw	ra,20(sp)
  407b80:	00803825 	move	a3,a0
  407b84:	3c060042 	lui	a2,0x42
  407b88:	24c6cc28 	addiu	a2,a2,-13272
  407b8c:	2405002b 	li	a1,43
  407b90:	3c040042 	lui	a0,0x42
  407b94:	0c10123f 	jal	4048fc <_panic>
  407b98:	2484cc10 	addiu	a0,a0,-13296

00407b9c <page2kva>:
  407b9c:	27bdffe8 	addiu	sp,sp,-24
  407ba0:	afbf0014 	sw	ra,20(sp)
  407ba4:	0c101ec3 	jal	407b0c <page2pa>
  407ba8:	00000000 	nop
  407bac:	00021b02 	srl	v1,v0,0xc
  407bb0:	3c040042 	lui	a0,0x42
  407bb4:	8c845df4 	lw	a0,24052(a0)
  407bb8:	0064182b 	sltu	v1,v1,a0
  407bbc:	10600005 	beqz	v1,407bd4 <page2kva+0x38>
  407bc0:	3c038000 	lui	v1,0x8000
  407bc4:	00431021 	addu	v0,v0,v1
  407bc8:	8fbf0014 	lw	ra,20(sp)
  407bcc:	03e00008 	jr	ra
  407bd0:	27bd0018 	addiu	sp,sp,24
  407bd4:	00403825 	move	a3,v0
  407bd8:	3c060042 	lui	a2,0x42
  407bdc:	24c6c1ac 	addiu	a2,a2,-15956
  407be0:	24050032 	li	a1,50
  407be4:	3c040042 	lui	a0,0x42
  407be8:	0c10123f 	jal	4048fc <_panic>
  407bec:	2484cc10 	addiu	a0,a0,-13296

00407bf0 <va2pa>:
  407bf0:	27bdffe8 	addiu	sp,sp,-24
  407bf4:	afbf0014 	sw	ra,20(sp)
  407bf8:	00051582 	srl	v0,a1,0x16
  407bfc:	00021080 	sll	v0,v0,0x2
  407c00:	00822021 	addu	a0,a0,v0
  407c04:	8c870000 	lw	a3,0(a0)
  407c08:	30e20200 	andi	v0,a3,0x200
  407c0c:	10400014 	beqz	v0,407c60 <va2pa+0x70>
  407c10:	00071302 	srl	v0,a3,0xc
  407c14:	3c030042 	lui	v1,0x42
  407c18:	8c635df4 	lw	v1,24052(v1)
  407c1c:	0043102b 	sltu	v0,v0,v1
  407c20:	10400016 	beqz	v0,407c7c <va2pa+0x8c>
  407c24:	7ca54b00 	ext	a1,a1,0xc,0xa
  407c28:	7c075804 	ins	a3,zero,0x0,0xc
  407c2c:	00052880 	sll	a1,a1,0x2
  407c30:	00a72821 	addu	a1,a1,a3
  407c34:	3c078000 	lui	a3,0x8000
  407c38:	00e52821 	addu	a1,a3,a1
  407c3c:	8ca20000 	lw	v0,0(a1)
  407c40:	30430200 	andi	v1,v0,0x200
  407c44:	1460000a 	bnez	v1,407c70 <va2pa+0x80>
  407c48:	7c025804 	ins	v0,zero,0x0,0xc
  407c4c:	3c040042 	lui	a0,0x42
  407c50:	0c10122b 	jal	4048ac <printf>
  407c54:	2484cc5c 	addiu	a0,a0,-13220
  407c58:	10000005 	b	407c70 <va2pa+0x80>
  407c5c:	2402ffff 	li	v0,-1
  407c60:	3c040042 	lui	a0,0x42
  407c64:	0c10122b 	jal	4048ac <printf>
  407c68:	2484cc4c 	addiu	a0,a0,-13236
  407c6c:	2402ffff 	li	v0,-1
  407c70:	8fbf0014 	lw	ra,20(sp)
  407c74:	03e00008 	jr	ra
  407c78:	27bd0018 	addiu	sp,sp,24
  407c7c:	7c075804 	ins	a3,zero,0x0,0xc
  407c80:	3c060042 	lui	a2,0x42
  407c84:	24c6c1ac 	addiu	a2,a2,-15956
  407c88:	24050040 	li	a1,64
  407c8c:	3c040042 	lui	a0,0x42
  407c90:	0c10123f 	jal	4048fc <_panic>
  407c94:	2484cc10 	addiu	a0,a0,-13296

00407c98 <mips_detect_memory>:
  407c98:	27bdffe0 	addiu	sp,sp,-32
  407c9c:	afbf001c 	sw	ra,28(sp)
  407ca0:	afb10018 	sw	s1,24(sp)
  407ca4:	afb00014 	sw	s0,20(sp)
  407ca8:	3c020200 	lui	v0,0x200
  407cac:	3c030042 	lui	v1,0x42
  407cb0:	ac625dfc 	sw	v0,24060(v1)
  407cb4:	3c100042 	lui	s0,0x42
  407cb8:	ae025e00 	sw	v0,24064(s0)
  407cbc:	24032000 	li	v1,8192
  407cc0:	3c020042 	lui	v0,0x42
  407cc4:	ac435df4 	sw	v1,24052(v0)
  407cc8:	3c110042 	lui	s1,0x42
  407ccc:	ae205e04 	sw	zero,24068(s1)
  407cd0:	34058000 	li	a1,0x8000
  407cd4:	3c040042 	lui	a0,0x42
  407cd8:	0c10122b 	jal	4048ac <printf>
  407cdc:	2484cc70 	addiu	a0,a0,-13200
  407ce0:	8e265e04 	lw	a2,24068(s1)
  407ce4:	8e055e00 	lw	a1,24064(s0)
  407ce8:	00063282 	srl	a2,a2,0xa
  407cec:	00052a82 	srl	a1,a1,0xa
  407cf0:	3c040042 	lui	a0,0x42
  407cf4:	0c10122b 	jal	4048ac <printf>
  407cf8:	2484cc94 	addiu	a0,a0,-13164
  407cfc:	8fbf001c 	lw	ra,28(sp)
  407d00:	8fb10018 	lw	s1,24(sp)
  407d04:	8fb00014 	lw	s0,20(sp)
  407d08:	03e00008 	jr	ra
  407d0c:	27bd0020 	addiu	sp,sp,32

00407d10 <boot_map_segment>:
  407d10:	27bdffc0 	addiu	sp,sp,-64
  407d14:	afbf003c 	sw	ra,60(sp)
  407d18:	afbe0038 	sw	s8,56(sp)
  407d1c:	afb70034 	sw	s7,52(sp)
  407d20:	afb60030 	sw	s6,48(sp)
  407d24:	afb5002c 	sw	s5,44(sp)
  407d28:	afb40028 	sw	s4,40(sp)
  407d2c:	afb30024 	sw	s3,36(sp)
  407d30:	afb20020 	sw	s2,32(sp)
  407d34:	afb1001c 	sw	s1,28(sp)
  407d38:	30c20fff 	andi	v0,a2,0xfff
  407d3c:	14400016 	bnez	v0,407d98 <boot_map_segment+0x88>
  407d40:	afb00018 	sw	s0,24(sp)
  407d44:	0080b025 	move	s6,a0
  407d48:	00063302 	srl	a2,a2,0xc
  407d4c:	10c00049 	beqz	a2,407e74 <boot_map_segment+0x164>
  407d50:	00a09025 	move	s2,a1
  407d54:	00058d82 	srl	s1,a1,0x16
  407d58:	00118880 	sll	s1,s1,0x2
  407d5c:	00918821 	addu	s1,a0,s1
  407d60:	8e220000 	lw	v0,0(s1)
  407d64:	00021b02 	srl	v1,v0,0xc
  407d68:	3c040042 	lui	a0,0x42
  407d6c:	8c845df4 	lw	a0,24052(a0)
  407d70:	0064182b 	sltu	v1,v1,a0
  407d74:	1060000e 	beqz	v1,407db0 <boot_map_segment+0xa0>
  407d78:	00009825 	move	s3,zero
  407d7c:	afa60010 	sw	a2,16(sp)
  407d80:	3c178000 	lui	s7,0x8000
  407d84:	00e5a023 	subu	s4,a3,a1
  407d88:	8fb50050 	lw	s5,80(sp)
  407d8c:	36b50200 	ori	s5,s5,0x200
  407d90:	1000002c 	b	407e44 <boot_map_segment+0x134>
  407d94:	3c1e0042 	lui	s8,0x42
  407d98:	3c060042 	lui	a2,0x42
  407d9c:	24c6ccb0 	addiu	a2,a2,-13136
  407da0:	240500c3 	li	a1,195
  407da4:	3c040042 	lui	a0,0x42
  407da8:	0c10123f 	jal	4048fc <_panic>
  407dac:	2484cc10 	addiu	a0,a0,-13296
  407db0:	7c025804 	ins	v0,zero,0x0,0xc
  407db4:	00403825 	move	a3,v0
  407db8:	3c060042 	lui	a2,0x42
  407dbc:	24c6c1ac 	addiu	a2,a2,-15956
  407dc0:	240500a0 	li	a1,160
  407dc4:	3c040042 	lui	a0,0x42
  407dc8:	0c10123f 	jal	4048fc <_panic>
  407dcc:	2484cc10 	addiu	a0,a0,-13296
  407dd0:	24060001 	li	a2,1
  407dd4:	24051000 	li	a1,4096
  407dd8:	0c101e80 	jal	407a00 <alloc>
  407ddc:	24041000 	li	a0,4096
  407de0:	0441001e 	bgez	v0,407e5c <boot_map_segment+0x14c>
  407de4:	00403825 	move	a3,v0
  407de8:	00571821 	addu	v1,v0,s7
  407dec:	34630600 	ori	v1,v1,0x600
  407df0:	ae230000 	sw	v1,0(s1)
  407df4:	7e074b00 	ext	a3,s0,0xc,0xa
  407df8:	00073880 	sll	a3,a3,0x2
  407dfc:	00471021 	addu	v0,v0,a3
  407e00:	02908021 	addu	s0,s4,s0
  407e04:	7c105804 	ins	s0,zero,0x0,0xc
  407e08:	02158025 	or	s0,s0,s5
  407e0c:	ac500000 	sw	s0,0(v0)
  407e10:	26730001 	addiu	s3,s3,1
  407e14:	8fa20010 	lw	v0,16(sp)
  407e18:	10530016 	beq	v0,s3,407e74 <boot_map_segment+0x164>
  407e1c:	26521000 	addiu	s2,s2,4096
  407e20:	00128d82 	srl	s1,s2,0x16
  407e24:	00118880 	sll	s1,s1,0x2
  407e28:	02d18821 	addu	s1,s6,s1
  407e2c:	8e220000 	lw	v0,0(s1)
  407e30:	00021b02 	srl	v1,v0,0xc
  407e34:	8fc45df4 	lw	a0,24052(s8)
  407e38:	0064182b 	sltu	v1,v1,a0
  407e3c:	5060ffdd 	beqzl	v1,407db4 <boot_map_segment+0xa4>
  407e40:	7c025804 	ins	v0,zero,0x0,0xc
  407e44:	30430200 	andi	v1,v0,0x200
  407e48:	1060ffe1 	beqz	v1,407dd0 <boot_map_segment+0xc0>
  407e4c:	02408025 	move	s0,s2
  407e50:	7c025804 	ins	v0,zero,0x0,0xc
  407e54:	1000ffe7 	b	407df4 <boot_map_segment+0xe4>
  407e58:	00571021 	addu	v0,v0,s7
  407e5c:	3c060042 	lui	a2,0x42
  407e60:	24c6c144 	addiu	a2,a2,-16060
  407e64:	240500aa 	li	a1,170
  407e68:	3c040042 	lui	a0,0x42
  407e6c:	0c10123f 	jal	4048fc <_panic>
  407e70:	2484cc10 	addiu	a0,a0,-13296
  407e74:	8fbf003c 	lw	ra,60(sp)
  407e78:	8fbe0038 	lw	s8,56(sp)
  407e7c:	8fb70034 	lw	s7,52(sp)
  407e80:	8fb60030 	lw	s6,48(sp)
  407e84:	8fb5002c 	lw	s5,44(sp)
  407e88:	8fb40028 	lw	s4,40(sp)
  407e8c:	8fb30024 	lw	s3,36(sp)
  407e90:	8fb20020 	lw	s2,32(sp)
  407e94:	8fb1001c 	lw	s1,28(sp)
  407e98:	8fb00018 	lw	s0,24(sp)
  407e9c:	03e00008 	jr	ra
  407ea0:	27bd0040 	addiu	sp,sp,64

00407ea4 <mips_vm_init>:
  407ea4:	27bdffd0 	addiu	sp,sp,-48
  407ea8:	afbf002c 	sw	ra,44(sp)
  407eac:	afb30028 	sw	s3,40(sp)
  407eb0:	afb20024 	sw	s2,36(sp)
  407eb4:	afb10020 	sw	s1,32(sp)
  407eb8:	afb0001c 	sw	s0,28(sp)
  407ebc:	24060001 	li	a2,1
  407ec0:	24051000 	li	a1,4096
  407ec4:	0c101e80 	jal	407a00 <alloc>
  407ec8:	24041000 	li	a0,4096
  407ecc:	00408025 	move	s0,v0
  407ed0:	3c130042 	lui	s3,0x42
  407ed4:	8e655d60 	lw	a1,23904(s3)
  407ed8:	3c040042 	lui	a0,0x42
  407edc:	0c10122b 	jal	4048ac <printf>
  407ee0:	2484ccd0 	addiu	a0,a0,-13104
  407ee4:	3c020042 	lui	v0,0x42
  407ee8:	ac50b628 	sw	s0,-18904(v0)
  407eec:	3c020042 	lui	v0,0x42
  407ef0:	ac505df8 	sw	s0,24056(v0)
  407ef4:	3c120042 	lui	s2,0x42
  407ef8:	8e425df4 	lw	v0,24052(s2)
  407efc:	00022040 	sll	a0,v0,0x1
  407f00:	00822021 	addu	a0,a0,v0
  407f04:	24060001 	li	a2,1
  407f08:	24051000 	li	a1,4096
  407f0c:	0c101e80 	jal	407a00 <alloc>
  407f10:	00042080 	sll	a0,a0,0x2
  407f14:	3c110041 	lui	s1,0x41
  407f18:	ae22f004 	sw	v0,-4092(s1)
  407f1c:	8e655d60 	lw	a1,23904(s3)
  407f20:	3c040042 	lui	a0,0x42
  407f24:	0c10122b 	jal	4048ac <printf>
  407f28:	2484ccfc 	addiu	a0,a0,-13060
  407f2c:	8e425df4 	lw	v0,24052(s2)
  407f30:	00023040 	sll	a2,v0,0x1
  407f34:	8e27f004 	lw	a3,-4092(s1)
  407f38:	04e1002b 	bgez	a3,407fe8 <mips_vm_init+0x144>
  407f3c:	00c23021 	addu	a2,a2,v0
  407f40:	00063080 	sll	a2,a2,0x2
  407f44:	24c60fff 	addiu	a2,a2,4095
  407f48:	7c065804 	ins	a2,zero,0x0,0xc
  407f4c:	24020400 	li	v0,1024
  407f50:	afa20010 	sw	v0,16(sp)
  407f54:	3c028000 	lui	v0,0x8000
  407f58:	00e23821 	addu	a3,a3,v0
  407f5c:	3c057f80 	lui	a1,0x7f80
  407f60:	0c101f44 	jal	407d10 <boot_map_segment>
  407f64:	02002025 	move	a0,s0
  407f68:	24060001 	li	a2,1
  407f6c:	24051000 	li	a1,4096
  407f70:	3c040003 	lui	a0,0x3
  407f74:	0c101e80 	jal	407a00 <alloc>
  407f78:	3484a000 	ori	a0,a0,0xa000
  407f7c:	3c030042 	lui	v1,0x42
  407f80:	0441001f 	bgez	v0,408000 <mips_vm_init+0x15c>
  407f84:	ac625744 	sw	v0,22340(v1)
  407f88:	24030400 	li	v1,1024
  407f8c:	afa30010 	sw	v1,16(sp)
  407f90:	3c078000 	lui	a3,0x8000
  407f94:	00473821 	addu	a3,v0,a3
  407f98:	3c060003 	lui	a2,0x3
  407f9c:	34c6a000 	ori	a2,a2,0xa000
  407fa0:	3c057f40 	lui	a1,0x7f40
  407fa4:	0c101f44 	jal	407d10 <boot_map_segment>
  407fa8:	02002025 	move	a0,s0
  407fac:	3c020042 	lui	v0,0x42
  407fb0:	8c455df8 	lw	a1,24056(v0)
  407fb4:	3c040042 	lui	a0,0x42
  407fb8:	0c10122b 	jal	4048ac <printf>
  407fbc:	2484cd1c 	addiu	a0,a0,-13028
  407fc0:	3c040042 	lui	a0,0x42
  407fc4:	0c10122b 	jal	4048ac <printf>
  407fc8:	2484cd3c 	addiu	a0,a0,-12996
  407fcc:	8fbf002c 	lw	ra,44(sp)
  407fd0:	8fb30028 	lw	s3,40(sp)
  407fd4:	8fb20024 	lw	s2,36(sp)
  407fd8:	8fb10020 	lw	s1,32(sp)
  407fdc:	8fb0001c 	lw	s0,28(sp)
  407fe0:	03e00008 	jr	ra
  407fe4:	27bd0030 	addiu	sp,sp,48
  407fe8:	3c060042 	lui	a2,0x42
  407fec:	24c6c144 	addiu	a2,a2,-16060
  407ff0:	240500f2 	li	a1,242
  407ff4:	3c040042 	lui	a0,0x42
  407ff8:	0c10123f 	jal	4048fc <_panic>
  407ffc:	2484cc10 	addiu	a0,a0,-13296
  408000:	00403825 	move	a3,v0
  408004:	3c060042 	lui	a2,0x42
  408008:	24c6c144 	addiu	a2,a2,-16060
  40800c:	240500fb 	li	a1,251
  408010:	3c040042 	lui	a0,0x42
  408014:	0c10123f 	jal	4048fc <_panic>
  408018:	2484cc10 	addiu	a0,a0,-13296

0040801c <page_init>:
  40801c:	3c020042 	lui	v0,0x42
  408020:	ac405d5c 	sw	zero,23900(v0)
  408024:	3c020042 	lui	v0,0x42
  408028:	8c435d60 	lw	v1,23904(v0)
  40802c:	24630fff 	addiu	v1,v1,4095
  408030:	7c035804 	ins	v1,zero,0x0,0xc
  408034:	04610036 	bgez	v1,408110 <page_init+0xf4>
  408038:	ac435d60 	sw	v1,23904(v0)
  40803c:	3c078000 	lui	a3,0x8000
  408040:	00671821 	addu	v1,v1,a3
  408044:	00031b02 	srl	v1,v1,0xc
  408048:	1060003a 	beqz	v1,408134 <page_init+0x118>
  40804c:	3c020041 	lui	v0,0x41
  408050:	8c42f004 	lw	v0,-4092(v0)
  408054:	00032040 	sll	a0,v1,0x1
  408058:	00832021 	addu	a0,a0,v1
  40805c:	00042080 	sll	a0,a0,0x2
  408060:	00442021 	addu	a0,v0,a0
  408064:	24050001 	li	a1,1
  408068:	a4450008 	sh	a1,8(v0)
  40806c:	2442000c 	addiu	v0,v0,12
  408070:	5482fffe 	bnel	a0,v0,40806c <page_init+0x50>
  408074:	a4450008 	sh	a1,8(v0)
  408078:	3c020042 	lui	v0,0x42
  40807c:	8c425df4 	lw	v0,24052(v0)
  408080:	0062102b 	sltu	v0,v1,v0
  408084:	1040002d 	beqz	v0,40813c <page_init+0x120>
  408088:	00000000 	nop
  40808c:	00031040 	sll	v0,v1,0x1
  408090:	00431021 	addu	v0,v0,v1
  408094:	00021080 	sll	v0,v0,0x2
  408098:	00402825 	move	a1,v0
  40809c:	3c040042 	lui	a0,0x42
  4080a0:	8c865d5c 	lw	a2,23900(a0)
  4080a4:	3c040041 	lui	a0,0x41
  4080a8:	8c84f004 	lw	a0,-4092(a0)
  4080ac:	00821021 	addu	v0,a0,v0
  4080b0:	ac460000 	sw	a2,0(v0)
  4080b4:	3c080041 	lui	t0,0x41
  4080b8:	3c070042 	lui	a3,0x42
  4080bc:	24ea5d5c 	addiu	t2,a3,23900
  4080c0:	3c090042 	lui	t1,0x42
  4080c4:	8d04f004 	lw	a0,-4092(t0)
  4080c8:	00851021 	addu	v0,a0,a1
  4080cc:	ace25d5c 	sw	v0,23900(a3)
  4080d0:	ac4a0004 	sw	t2,4(v0)
  4080d4:	a4400008 	sh	zero,8(v0)
  4080d8:	24630001 	addiu	v1,v1,1
  4080dc:	8d265df4 	lw	a2,24052(t1)
  4080e0:	0066302b 	sltu	a2,v1,a2
  4080e4:	10c00015 	beqz	a2,40813c <page_init+0x120>
  4080e8:	00000000 	nop
  4080ec:	24a5000c 	addiu	a1,a1,12
  4080f0:	00852021 	addu	a0,a0,a1
  4080f4:	1040fff3 	beqz	v0,4080c4 <page_init+0xa8>
  4080f8:	ac820000 	sw	v0,0(a0)
  4080fc:	8ce45d5c 	lw	a0,23900(a3)
  408100:	8d02f004 	lw	v0,-4092(t0)
  408104:	00451021 	addu	v0,v0,a1
  408108:	1000ffee 	b	4080c4 <page_init+0xa8>
  40810c:	ac820004 	sw	v0,4(a0)
  408110:	27bdffe8 	addiu	sp,sp,-24
  408114:	afbf0014 	sw	ra,20(sp)
  408118:	00603825 	move	a3,v1
  40811c:	3c060042 	lui	a2,0x42
  408120:	24c6c144 	addiu	a2,a2,-16060
  408124:	24050118 	li	a1,280
  408128:	3c040042 	lui	a0,0x42
  40812c:	0c10123f 	jal	4048fc <_panic>
  408130:	2484cc10 	addiu	a0,a0,-13296
  408134:	1000ffd0 	b	408078 <page_init+0x5c>
  408138:	00001825 	move	v1,zero
  40813c:	03e00008 	jr	ra
  408140:	00000000 	nop

00408144 <page_alloc>:
  408144:	27bdffe8 	addiu	sp,sp,-24
  408148:	afbf0014 	sw	ra,20(sp)
  40814c:	afb00010 	sw	s0,16(sp)
  408150:	3c020042 	lui	v0,0x42
  408154:	8c505d5c 	lw	s0,23900(v0)
  408158:	12000011 	beqz	s0,4081a0 <page_alloc+0x5c>
  40815c:	2402fffc 	li	v0,-4
  408160:	ac900000 	sw	s0,0(a0)
  408164:	0c101ee7 	jal	407b9c <page2kva>
  408168:	02002025 	move	a0,s0
  40816c:	24061000 	li	a2,4096
  408170:	00002825 	move	a1,zero
  408174:	0c101390 	jal	404e40 <memset>
  408178:	00402025 	move	a0,v0
  40817c:	8e020000 	lw	v0,0(s0)
  408180:	50400004 	beqzl	v0,408194 <page_alloc+0x50>
  408184:	8e020004 	lw	v0,4(s0)
  408188:	8e030004 	lw	v1,4(s0)
  40818c:	ac430004 	sw	v1,4(v0)
  408190:	8e020004 	lw	v0,4(s0)
  408194:	8e030000 	lw	v1,0(s0)
  408198:	ac430000 	sw	v1,0(v0)
  40819c:	00001025 	move	v0,zero
  4081a0:	8fbf0014 	lw	ra,20(sp)
  4081a4:	8fb00010 	lw	s0,16(sp)
  4081a8:	03e00008 	jr	ra
  4081ac:	27bd0018 	addiu	sp,sp,24

004081b0 <page_free>:
  4081b0:	94820008 	lhu	v0,8(a0)
  4081b4:	1440000c 	bnez	v0,4081e8 <page_free+0x38>
  4081b8:	00000000 	nop
  4081bc:	3c020042 	lui	v0,0x42
  4081c0:	8c425d5c 	lw	v0,23900(v0)
  4081c4:	10400004 	beqz	v0,4081d8 <page_free+0x28>
  4081c8:	ac820000 	sw	v0,0(a0)
  4081cc:	3c020042 	lui	v0,0x42
  4081d0:	8c425d5c 	lw	v0,23900(v0)
  4081d4:	ac440004 	sw	a0,4(v0)
  4081d8:	3c020042 	lui	v0,0x42
  4081dc:	ac445d5c 	sw	a0,23900(v0)
  4081e0:	24425d5c 	addiu	v0,v0,23900
  4081e4:	ac820004 	sw	v0,4(a0)
  4081e8:	03e00008 	jr	ra
  4081ec:	00000000 	nop

004081f0 <pgdir_walk>:
  4081f0:	27bdffd0 	addiu	sp,sp,-48
  4081f4:	afbf002c 	sw	ra,44(sp)
  4081f8:	afb40028 	sw	s4,40(sp)
  4081fc:	afb30024 	sw	s3,36(sp)
  408200:	afb20020 	sw	s2,32(sp)
  408204:	afb1001c 	sw	s1,28(sp)
  408208:	afb00018 	sw	s0,24(sp)
  40820c:	00e08025 	move	s0,a3
  408210:	00051582 	srl	v0,a1,0x16
  408214:	00021080 	sll	v0,v0,0x2
  408218:	00829821 	addu	s3,a0,v0
  40821c:	8e670000 	lw	a3,0(s3)
  408220:	00071302 	srl	v0,a3,0xc
  408224:	3c030042 	lui	v1,0x42
  408228:	8c635df4 	lw	v1,24052(v1)
  40822c:	0043102b 	sltu	v0,v0,v1
  408230:	10400007 	beqz	v0,408250 <pgdir_walk+0x60>
  408234:	30e20200 	andi	v0,a3,0x200
  408238:	1440000c 	bnez	v0,40826c <pgdir_walk+0x7c>
  40823c:	00a09025 	move	s2,a1
  408240:	14c00023 	bnez	a2,4082d0 <pgdir_walk+0xe0>
  408244:	00c01025 	move	v0,a2
  408248:	10000019 	b	4082b0 <pgdir_walk+0xc0>
  40824c:	ae000000 	sw	zero,0(s0)
  408250:	7c075804 	ins	a3,zero,0x0,0xc
  408254:	3c060042 	lui	a2,0x42
  408258:	24c6c1ac 	addiu	a2,a2,-15956
  40825c:	24050170 	li	a1,368
  408260:	3c040042 	lui	a0,0x42
  408264:	0c10123f 	jal	4048fc <_panic>
  408268:	2484cc10 	addiu	a0,a0,-13296
  40826c:	7c075804 	ins	a3,zero,0x0,0xc
  408270:	3c118000 	lui	s1,0x8000
  408274:	00f18821 	addu	s1,a3,s1
  408278:	02202825 	move	a1,s1
  40827c:	3c040042 	lui	a0,0x42
  408280:	0c10122b 	jal	4048ac <printf>
  408284:	2484cd5c 	addiu	a0,a0,-12964
  408288:	12000004 	beqz	s0,40829c <pgdir_walk+0xac>
  40828c:	7e454b00 	ext	a1,s2,0xc,0xa
  408290:	00052880 	sll	a1,a1,0x2
  408294:	02252821 	addu	a1,s1,a1
  408298:	ae050000 	sw	a1,0(s0)
  40829c:	02002825 	move	a1,s0
  4082a0:	3c040042 	lui	a0,0x42
  4082a4:	0c10122b 	jal	4048ac <printf>
  4082a8:	2484cd7c 	addiu	a0,a0,-12932
  4082ac:	00001025 	move	v0,zero
  4082b0:	8fbf002c 	lw	ra,44(sp)
  4082b4:	8fb40028 	lw	s4,40(sp)
  4082b8:	8fb30024 	lw	s3,36(sp)
  4082bc:	8fb20020 	lw	s2,32(sp)
  4082c0:	8fb1001c 	lw	s1,28(sp)
  4082c4:	8fb00018 	lw	s0,24(sp)
  4082c8:	03e00008 	jr	ra
  4082cc:	27bd0030 	addiu	sp,sp,48
  4082d0:	0c102051 	jal	408144 <page_alloc>
  4082d4:	27a40010 	addiu	a0,sp,16
  4082d8:	14400012 	bnez	v0,408324 <pgdir_walk+0x134>
  4082dc:	8fb40010 	lw	s4,16(sp)
  4082e0:	0c101ec3 	jal	407b0c <page2pa>
  4082e4:	02802025 	move	a0,s4
  4082e8:	00021b02 	srl	v1,v0,0xc
  4082ec:	3c040042 	lui	a0,0x42
  4082f0:	8c845df4 	lw	a0,24052(a0)
  4082f4:	0064182b 	sltu	v1,v1,a0
  4082f8:	1060000d 	beqz	v1,408330 <pgdir_walk+0x140>
  4082fc:	3c078000 	lui	a3,0x8000
  408300:	00473821 	addu	a3,v0,a3
  408304:	04e10011 	bgez	a3,40834c <pgdir_walk+0x15c>
  408308:	00e08825 	move	s1,a3
  40830c:	34420600 	ori	v0,v0,0x600
  408310:	ae620000 	sw	v0,0(s3)
  408314:	96820008 	lhu	v0,8(s4)
  408318:	24420001 	addiu	v0,v0,1
  40831c:	1000ffd6 	b	408278 <pgdir_walk+0x88>
  408320:	a6820008 	sh	v0,8(s4)
  408324:	ae000000 	sw	zero,0(s0)
  408328:	1000ffe1 	b	4082b0 <pgdir_walk+0xc0>
  40832c:	2402fffc 	li	v0,-4
  408330:	00403825 	move	a3,v0
  408334:	3c060042 	lui	a2,0x42
  408338:	24c6c1ac 	addiu	a2,a2,-15956
  40833c:	24050182 	li	a1,386
  408340:	3c040042 	lui	a0,0x42
  408344:	0c10123f 	jal	4048fc <_panic>
  408348:	2484cc10 	addiu	a0,a0,-13296
  40834c:	3c060042 	lui	a2,0x42
  408350:	24c6c144 	addiu	a2,a2,-16060
  408354:	24050183 	li	a1,387
  408358:	3c040042 	lui	a0,0x42
  40835c:	0c10123f 	jal	4048fc <_panic>
  408360:	2484cc10 	addiu	a0,a0,-13296

00408364 <page_lookup>:
  408364:	27bdffd8 	addiu	sp,sp,-40
  408368:	afbf0024 	sw	ra,36(sp)
  40836c:	afb10020 	sw	s1,32(sp)
  408370:	afb0001c 	sw	s0,28(sp)
  408374:	00c08825 	move	s1,a2
  408378:	27a70010 	addiu	a3,sp,16
  40837c:	0c10207c 	jal	4081f0 <pgdir_walk>
  408380:	00003025 	move	a2,zero
  408384:	8fb00010 	lw	s0,16(sp)
  408388:	12000009 	beqz	s0,4083b0 <page_lookup+0x4c>
  40838c:	00001025 	move	v0,zero
  408390:	8e040000 	lw	a0,0(s0)
  408394:	30820200 	andi	v0,a0,0x200
  408398:	10400005 	beqz	v0,4083b0 <page_lookup+0x4c>
  40839c:	00001025 	move	v0,zero
  4083a0:	0c101ed2 	jal	407b48 <pa2page>
  4083a4:	00000000 	nop
  4083a8:	56200001 	bnezl	s1,4083b0 <page_lookup+0x4c>
  4083ac:	ae300000 	sw	s0,0(s1)
  4083b0:	8fbf0024 	lw	ra,36(sp)
  4083b4:	8fb10020 	lw	s1,32(sp)
  4083b8:	8fb0001c 	lw	s0,28(sp)
  4083bc:	03e00008 	jr	ra
  4083c0:	27bd0028 	addiu	sp,sp,40
  4083c4:	1000fffa 	b	4083b0 <page_lookup+0x4c>
  4083c8:	00001025 	move	v0,zero

004083cc <page_decref>:
  4083cc:	94820008 	lhu	v0,8(a0)
  4083d0:	2442ffff 	addiu	v0,v0,-1
  4083d4:	3042ffff 	andi	v0,v0,0xffff
  4083d8:	10400003 	beqz	v0,4083e8 <page_decref+0x1c>
  4083dc:	a4820008 	sh	v0,8(a0)
  4083e0:	03e00008 	jr	ra
  4083e4:	00000000 	nop
  4083e8:	27bdffe8 	addiu	sp,sp,-24
  4083ec:	afbf0014 	sw	ra,20(sp)
  4083f0:	0c10206c 	jal	4081b0 <page_free>
  4083f4:	00000000 	nop
  4083f8:	8fbf0014 	lw	ra,20(sp)
  4083fc:	1000fff8 	b	4083e0 <page_decref+0x14>
  408400:	27bd0018 	addiu	sp,sp,24

00408404 <tlb_invalidate>:
  408404:	27bdffe8 	addiu	sp,sp,-24
  408408:	afbf0014 	sw	ra,20(sp)
  40840c:	3c020042 	lui	v0,0x42
  408410:	8c425740 	lw	v0,22336(v0)
  408414:	1040000a 	beqz	v0,408440 <tlb_invalidate+0x3c>
  408418:	00a02025 	move	a0,a1
  40841c:	8c4200a4 	lw	v0,164(v0)
  408420:	000212c2 	srl	v0,v0,0xb
  408424:	00021180 	sll	v0,v0,0x6
  408428:	7c045804 	ins	a0,zero,0x0,0xc
  40842c:	0c102ffe 	jal	40bff8 <tlb_out>
  408430:	00442025 	or	a0,v0,a0
  408434:	8fbf0014 	lw	ra,20(sp)
  408438:	03e00008 	jr	ra
  40843c:	27bd0018 	addiu	sp,sp,24
  408440:	0c102ffe 	jal	40bff8 <tlb_out>
  408444:	7c045804 	ins	a0,zero,0x0,0xc
  408448:	1000fffb 	b	408438 <tlb_invalidate+0x34>
  40844c:	8fbf0014 	lw	ra,20(sp)

00408450 <page_remove>:
  408450:	27bdffd8 	addiu	sp,sp,-40
  408454:	afbf0024 	sw	ra,36(sp)
  408458:	afb10020 	sw	s1,32(sp)
  40845c:	afb0001c 	sw	s0,28(sp)
  408460:	00808025 	move	s0,a0
  408464:	00a08825 	move	s1,a1
  408468:	0c1020d9 	jal	408364 <page_lookup>
  40846c:	27a60010 	addiu	a2,sp,16
  408470:	1040000c 	beqz	v0,4084a4 <page_remove+0x54>
  408474:	8fbf0024 	lw	ra,36(sp)
  408478:	94430008 	lhu	v1,8(v0)
  40847c:	2463ffff 	addiu	v1,v1,-1
  408480:	3063ffff 	andi	v1,v1,0xffff
  408484:	1060000b 	beqz	v1,4084b4 <page_remove+0x64>
  408488:	a4430008 	sh	v1,8(v0)
  40848c:	8fa20010 	lw	v0,16(sp)
  408490:	ac400000 	sw	zero,0(v0)
  408494:	02202825 	move	a1,s1
  408498:	0c102101 	jal	408404 <tlb_invalidate>
  40849c:	02002025 	move	a0,s0
  4084a0:	8fbf0024 	lw	ra,36(sp)
  4084a4:	8fb10020 	lw	s1,32(sp)
  4084a8:	8fb0001c 	lw	s0,28(sp)
  4084ac:	03e00008 	jr	ra
  4084b0:	27bd0028 	addiu	sp,sp,40
  4084b4:	0c10206c 	jal	4081b0 <page_free>
  4084b8:	00402025 	move	a0,v0
  4084bc:	1000fff4 	b	408490 <page_remove+0x40>
  4084c0:	8fa20010 	lw	v0,16(sp)

004084c4 <page_insert>:
  4084c4:	27bdffc8 	addiu	sp,sp,-56
  4084c8:	afbf0034 	sw	ra,52(sp)
  4084cc:	afb30030 	sw	s3,48(sp)
  4084d0:	afb2002c 	sw	s2,44(sp)
  4084d4:	afb10028 	sw	s1,40(sp)
  4084d8:	afb00024 	sw	s0,36(sp)
  4084dc:	00808025 	move	s0,a0
  4084e0:	00a09825 	move	s3,a1
  4084e4:	00c08825 	move	s1,a2
  4084e8:	00e09025 	move	s2,a3
  4084ec:	afa70010 	sw	a3,16(sp)
  4084f0:	00c03825 	move	a3,a2
  4084f4:	00a03025 	move	a2,a1
  4084f8:	00802825 	move	a1,a0
  4084fc:	3c040042 	lui	a0,0x42
  408500:	0c10122b 	jal	4048ac <printf>
  408504:	2484cd98 	addiu	a0,a0,-12904
  408508:	36520200 	ori	s2,s2,0x200
  40850c:	27a70018 	addiu	a3,sp,24
  408510:	00003025 	move	a2,zero
  408514:	02202825 	move	a1,s1
  408518:	0c10207c 	jal	4081f0 <pgdir_walk>
  40851c:	02002025 	move	a0,s0
  408520:	8fa20018 	lw	v0,24(sp)
  408524:	10400005 	beqz	v0,40853c <page_insert+0x78>
  408528:	02202825 	move	a1,s1
  40852c:	8c440000 	lw	a0,0(v0)
  408530:	30820200 	andi	v0,a0,0x200
  408534:	1440001a 	bnez	v0,4085a0 <page_insert+0xdc>
  408538:	00000000 	nop
  40853c:	0c102101 	jal	408404 <tlb_invalidate>
  408540:	02002025 	move	a0,s0
  408544:	27a70018 	addiu	a3,sp,24
  408548:	24060001 	li	a2,1
  40854c:	02202825 	move	a1,s1
  408550:	0c10207c 	jal	4081f0 <pgdir_walk>
  408554:	02002025 	move	a0,s0
  408558:	14400022 	bnez	v0,4085e4 <page_insert+0x120>
  40855c:	00408025 	move	s0,v0
  408560:	8fb10018 	lw	s1,24(sp)
  408564:	0c101ec3 	jal	407b0c <page2pa>
  408568:	02602025 	move	a0,s3
  40856c:	02421025 	or	v0,s2,v0
  408570:	ae220000 	sw	v0,0(s1)
  408574:	96620008 	lhu	v0,8(s3)
  408578:	24420001 	addiu	v0,v0,1
  40857c:	a6620008 	sh	v0,8(s3)
  408580:	02001025 	move	v0,s0
  408584:	8fbf0034 	lw	ra,52(sp)
  408588:	8fb30030 	lw	s3,48(sp)
  40858c:	8fb2002c 	lw	s2,44(sp)
  408590:	8fb10028 	lw	s1,40(sp)
  408594:	8fb00024 	lw	s0,36(sp)
  408598:	03e00008 	jr	ra
  40859c:	27bd0038 	addiu	sp,sp,56
  4085a0:	0c101ed2 	jal	407b48 <pa2page>
  4085a4:	00000000 	nop
  4085a8:	12620005 	beq	s3,v0,4085c0 <page_insert+0xfc>
  4085ac:	02202825 	move	a1,s1
  4085b0:	0c102114 	jal	408450 <page_remove>
  4085b4:	02002025 	move	a0,s0
  4085b8:	1000ffe0 	b	40853c <page_insert+0x78>
  4085bc:	02202825 	move	a1,s1
  4085c0:	0c102101 	jal	408404 <tlb_invalidate>
  4085c4:	02002025 	move	a0,s0
  4085c8:	8fb00018 	lw	s0,24(sp)
  4085cc:	0c101ec3 	jal	407b0c <page2pa>
  4085d0:	02602025 	move	a0,s3
  4085d4:	02421025 	or	v0,s2,v0
  4085d8:	ae020000 	sw	v0,0(s0)
  4085dc:	1000ffe8 	b	408580 <page_insert+0xbc>
  4085e0:	00008025 	move	s0,zero
  4085e4:	1000ffe6 	b	408580 <page_insert+0xbc>
  4085e8:	2410fffc 	li	s0,-4

004085ec <page_check>:
  4085ec:	27bdffd0 	addiu	sp,sp,-48
  4085f0:	afbf002c 	sw	ra,44(sp)
  4085f4:	afb20028 	sw	s2,40(sp)
  4085f8:	afb10024 	sw	s1,36(sp)
  4085fc:	afb00020 	sw	s0,32(sp)
  408600:	3c040042 	lui	a0,0x42
  408604:	0c10122b 	jal	4048ac <printf>
  408608:	2484cdc4 	addiu	a0,a0,-12860
  40860c:	afa0001c 	sw	zero,28(sp)
  408610:	afa00018 	sw	zero,24(sp)
  408614:	afa00014 	sw	zero,20(sp)
  408618:	0c102051 	jal	408144 <page_alloc>
  40861c:	27a40014 	addiu	a0,sp,20
  408620:	14400111 	bnez	v0,408a68 <page_check+0x47c>
  408624:	3c070042 	lui	a3,0x42
  408628:	0c102051 	jal	408144 <page_alloc>
  40862c:	27a40018 	addiu	a0,sp,24
  408630:	14400114 	bnez	v0,408a84 <page_check+0x498>
  408634:	3c070042 	lui	a3,0x42
  408638:	0c102051 	jal	408144 <page_alloc>
  40863c:	27a4001c 	addiu	a0,sp,28
  408640:	14400117 	bnez	v0,408aa0 <page_check+0x4b4>
  408644:	8fa30014 	lw	v1,20(sp)
  408648:	1060011d 	beqz	v1,408ac0 <page_check+0x4d4>
  40864c:	8fa20018 	lw	v0,24(sp)
  408650:	10400123 	beqz	v0,408ae0 <page_check+0x4f4>
  408654:	3c070042 	lui	a3,0x42
  408658:	10620122 	beq	v1,v0,408ae4 <page_check+0x4f8>
  40865c:	24e7ce18 	addiu	a3,a3,-12776
  408660:	8fa4001c 	lw	a0,28(sp)
  408664:	10800125 	beqz	a0,408afc <page_check+0x510>
  408668:	3c070042 	lui	a3,0x42
  40866c:	50440124 	beql	v0,a0,408b00 <page_check+0x514>
  408670:	24e7ce2c 	addiu	a3,a3,-12756
  408674:	10640121 	beq	v1,a0,408afc <page_check+0x510>
  408678:	3c020042 	lui	v0,0x42
  40867c:	8c515d5c 	lw	s1,23900(v0)
  408680:	ac405d5c 	sw	zero,23900(v0)
  408684:	0c102051 	jal	408144 <page_alloc>
  408688:	27a40010 	addiu	a0,sp,16
  40868c:	2403fffc 	li	v1,-4
  408690:	14430121 	bne	v0,v1,408b18 <page_check+0x52c>
  408694:	00003825 	move	a3,zero
  408698:	00003025 	move	a2,zero
  40869c:	8fa50018 	lw	a1,24(sp)
  4086a0:	3c020042 	lui	v0,0x42
  4086a4:	0c102131 	jal	4084c4 <page_insert>
  4086a8:	8c445df8 	lw	a0,24056(v0)
  4086ac:	04410122 	bgez	v0,408b38 <page_check+0x54c>
  4086b0:	3c070042 	lui	a3,0x42
  4086b4:	0c10206c 	jal	4081b0 <page_free>
  4086b8:	8fa40014 	lw	a0,20(sp)
  4086bc:	00003825 	move	a3,zero
  4086c0:	00003025 	move	a2,zero
  4086c4:	8fa50018 	lw	a1,24(sp)
  4086c8:	3c020042 	lui	v0,0x42
  4086cc:	0c102131 	jal	4084c4 <page_insert>
  4086d0:	8c445df8 	lw	a0,24056(v0)
  4086d4:	1440011f 	bnez	v0,408b54 <page_check+0x568>
  4086d8:	3c020042 	lui	v0,0x42
  4086dc:	8c505df8 	lw	s0,24056(v0)
  4086e0:	0c101ec3 	jal	407b0c <page2pa>
  4086e4:	8fa40014 	lw	a0,20(sp)
  4086e8:	8e030000 	lw	v1,0(s0)
  4086ec:	7c035804 	ins	v1,zero,0x0,0xc
  4086f0:	14620120 	bne	v1,v0,408b74 <page_check+0x588>
  4086f4:	00002825 	move	a1,zero
  4086f8:	0c101efc 	jal	407bf0 <va2pa>
  4086fc:	02002025 	move	a0,s0
  408700:	00402825 	move	a1,v0
  408704:	3c040042 	lui	a0,0x42
  408708:	0c10122b 	jal	4048ac <printf>
  40870c:	2484ceec 	addiu	a0,a0,-12564
  408710:	0c101ec3 	jal	407b0c <page2pa>
  408714:	8fa40018 	lw	a0,24(sp)
  408718:	00402825 	move	a1,v0
  40871c:	3c040042 	lui	a0,0x42
  408720:	0c10122b 	jal	4048ac <printf>
  408724:	2484cf0c 	addiu	a0,a0,-12532
  408728:	00002825 	move	a1,zero
  40872c:	3c020042 	lui	v0,0x42
  408730:	0c101efc 	jal	407bf0 <va2pa>
  408734:	8c445df8 	lw	a0,24056(v0)
  408738:	00409025 	move	s2,v0
  40873c:	8fb00018 	lw	s0,24(sp)
  408740:	0c101ec3 	jal	407b0c <page2pa>
  408744:	02002025 	move	a0,s0
  408748:	16420112 	bne	s2,v0,408b94 <page_check+0x5a8>
  40874c:	24020001 	li	v0,1
  408750:	96030008 	lhu	v1,8(s0)
  408754:	14620117 	bne	v1,v0,408bb4 <page_check+0x5c8>
  408758:	00003825 	move	a3,zero
  40875c:	24061000 	li	a2,4096
  408760:	8fa5001c 	lw	a1,28(sp)
  408764:	3c020042 	lui	v0,0x42
  408768:	0c102131 	jal	4084c4 <page_insert>
  40876c:	8c445df8 	lw	a0,24056(v0)
  408770:	14400118 	bnez	v0,408bd4 <page_check+0x5e8>
  408774:	24051000 	li	a1,4096
  408778:	3c020042 	lui	v0,0x42
  40877c:	0c101efc 	jal	407bf0 <va2pa>
  408780:	8c445df8 	lw	a0,24056(v0)
  408784:	00409025 	move	s2,v0
  408788:	8fb0001c 	lw	s0,28(sp)
  40878c:	0c101ec3 	jal	407b0c <page2pa>
  408790:	02002025 	move	a0,s0
  408794:	16420117 	bne	s2,v0,408bf4 <page_check+0x608>
  408798:	24020001 	li	v0,1
  40879c:	96030008 	lhu	v1,8(s0)
  4087a0:	1462011c 	bne	v1,v0,408c14 <page_check+0x628>
  4087a4:	3c070042 	lui	a3,0x42
  4087a8:	0c102051 	jal	408144 <page_alloc>
  4087ac:	27a40010 	addiu	a0,sp,16
  4087b0:	2403fffc 	li	v1,-4
  4087b4:	1443011e 	bne	v0,v1,408c30 <page_check+0x644>
  4087b8:	3c070042 	lui	a3,0x42
  4087bc:	3c040042 	lui	a0,0x42
  4087c0:	0c10122b 	jal	4048ac <printf>
  4087c4:	2484cfc8 	addiu	a0,a0,-12344
  4087c8:	00003825 	move	a3,zero
  4087cc:	24061000 	li	a2,4096
  4087d0:	8fa5001c 	lw	a1,28(sp)
  4087d4:	3c020042 	lui	v0,0x42
  4087d8:	0c102131 	jal	4084c4 <page_insert>
  4087dc:	8c445df8 	lw	a0,24056(v0)
  4087e0:	1440011a 	bnez	v0,408c4c <page_check+0x660>
  4087e4:	24051000 	li	a1,4096
  4087e8:	3c020042 	lui	v0,0x42
  4087ec:	0c101efc 	jal	407bf0 <va2pa>
  4087f0:	8c445df8 	lw	a0,24056(v0)
  4087f4:	00409025 	move	s2,v0
  4087f8:	8fb0001c 	lw	s0,28(sp)
  4087fc:	0c101ec3 	jal	407b0c <page2pa>
  408800:	02002025 	move	a0,s0
  408804:	16420119 	bne	s2,v0,408c6c <page_check+0x680>
  408808:	24020001 	li	v0,1
  40880c:	96030008 	lhu	v1,8(s0)
  408810:	1462011e 	bne	v1,v0,408c8c <page_check+0x6a0>
  408814:	3c070042 	lui	a3,0x42
  408818:	0c102051 	jal	408144 <page_alloc>
  40881c:	27a40010 	addiu	a0,sp,16
  408820:	2403fffc 	li	v1,-4
  408824:	14430120 	bne	v0,v1,408ca8 <page_check+0x6bc>
  408828:	00003825 	move	a3,zero
  40882c:	3c060040 	lui	a2,0x40
  408830:	8fa50014 	lw	a1,20(sp)
  408834:	3c020042 	lui	v0,0x42
  408838:	0c102131 	jal	4084c4 <page_insert>
  40883c:	8c445df8 	lw	a0,24056(v0)
  408840:	04410121 	bgez	v0,408cc8 <page_check+0x6dc>
  408844:	00003825 	move	a3,zero
  408848:	24061000 	li	a2,4096
  40884c:	8fa50018 	lw	a1,24(sp)
  408850:	3c020042 	lui	v0,0x42
  408854:	0c102131 	jal	4084c4 <page_insert>
  408858:	8c445df8 	lw	a0,24056(v0)
  40885c:	14400122 	bnez	v0,408ce8 <page_check+0x6fc>
  408860:	00002825 	move	a1,zero
  408864:	3c020042 	lui	v0,0x42
  408868:	0c101efc 	jal	407bf0 <va2pa>
  40886c:	8c445df8 	lw	a0,24056(v0)
  408870:	00408025 	move	s0,v0
  408874:	0c101ec3 	jal	407b0c <page2pa>
  408878:	8fa40018 	lw	a0,24(sp)
  40887c:	16020122 	bne	s0,v0,408d08 <page_check+0x71c>
  408880:	24051000 	li	a1,4096
  408884:	3c020042 	lui	v0,0x42
  408888:	0c101efc 	jal	407bf0 <va2pa>
  40888c:	8c445df8 	lw	a0,24056(v0)
  408890:	00409025 	move	s2,v0
  408894:	8fb00018 	lw	s0,24(sp)
  408898:	0c101ec3 	jal	407b0c <page2pa>
  40889c:	02002025 	move	a0,s0
  4088a0:	16420121 	bne	s2,v0,408d28 <page_check+0x73c>
  4088a4:	24020002 	li	v0,2
  4088a8:	96030008 	lhu	v1,8(s0)
  4088ac:	14620126 	bne	v1,v0,408d48 <page_check+0x75c>
  4088b0:	8fa2001c 	lw	v0,28(sp)
  4088b4:	94450008 	lhu	a1,8(v0)
  4088b8:	3c040042 	lui	a0,0x42
  4088bc:	0c10122b 	jal	4048ac <printf>
  4088c0:	2484d074 	addiu	a0,a0,-12172
  4088c4:	8fa2001c 	lw	v0,28(sp)
  4088c8:	94420008 	lhu	v0,8(v0)
  4088cc:	14400126 	bnez	v0,408d68 <page_check+0x77c>
  4088d0:	3c070042 	lui	a3,0x42
  4088d4:	3c040042 	lui	a0,0x42
  4088d8:	0c10122b 	jal	4048ac <printf>
  4088dc:	2484d098 	addiu	a0,a0,-12136
  4088e0:	0c102051 	jal	408144 <page_alloc>
  4088e4:	27a40010 	addiu	a0,sp,16
  4088e8:	14400126 	bnez	v0,408d84 <page_check+0x798>
  4088ec:	8fa30010 	lw	v1,16(sp)
  4088f0:	8fa2001c 	lw	v0,28(sp)
  4088f4:	14620123 	bne	v1,v0,408d84 <page_check+0x798>
  4088f8:	3c100042 	lui	s0,0x42
  4088fc:	00002825 	move	a1,zero
  408900:	0c102114 	jal	408450 <page_remove>
  408904:	8e045df8 	lw	a0,24056(s0)
  408908:	00002825 	move	a1,zero
  40890c:	0c101efc 	jal	407bf0 <va2pa>
  408910:	8e045df8 	lw	a0,24056(s0)
  408914:	2403ffff 	li	v1,-1
  408918:	14430122 	bne	v0,v1,408da4 <page_check+0x7b8>
  40891c:	24051000 	li	a1,4096
  408920:	3c020042 	lui	v0,0x42
  408924:	0c101efc 	jal	407bf0 <va2pa>
  408928:	8c445df8 	lw	a0,24056(v0)
  40892c:	00409025 	move	s2,v0
  408930:	8fb00018 	lw	s0,24(sp)
  408934:	0c101ec3 	jal	407b0c <page2pa>
  408938:	02002025 	move	a0,s0
  40893c:	16420121 	bne	s2,v0,408dc4 <page_check+0x7d8>
  408940:	24020001 	li	v0,1
  408944:	96030008 	lhu	v1,8(s0)
  408948:	14620126 	bne	v1,v0,408de4 <page_check+0x7f8>
  40894c:	8fa2001c 	lw	v0,28(sp)
  408950:	94420008 	lhu	v0,8(v0)
  408954:	1440012b 	bnez	v0,408e04 <page_check+0x818>
  408958:	3c100042 	lui	s0,0x42
  40895c:	24051000 	li	a1,4096
  408960:	0c102114 	jal	408450 <page_remove>
  408964:	8e045df8 	lw	a0,24056(s0)
  408968:	00002825 	move	a1,zero
  40896c:	0c101efc 	jal	407bf0 <va2pa>
  408970:	8e045df8 	lw	a0,24056(s0)
  408974:	2403ffff 	li	v1,-1
  408978:	1443012a 	bne	v0,v1,408e24 <page_check+0x838>
  40897c:	24051000 	li	a1,4096
  408980:	3c020042 	lui	v0,0x42
  408984:	0c101efc 	jal	407bf0 <va2pa>
  408988:	8c445df8 	lw	a0,24056(v0)
  40898c:	2403ffff 	li	v1,-1
  408990:	1443012c 	bne	v0,v1,408e44 <page_check+0x858>
  408994:	8fa20018 	lw	v0,24(sp)
  408998:	94420008 	lhu	v0,8(v0)
  40899c:	14400131 	bnez	v0,408e64 <page_check+0x878>
  4089a0:	8fa2001c 	lw	v0,28(sp)
  4089a4:	94420008 	lhu	v0,8(v0)
  4089a8:	14400136 	bnez	v0,408e84 <page_check+0x898>
  4089ac:	3c070042 	lui	a3,0x42
  4089b0:	0c102051 	jal	408144 <page_alloc>
  4089b4:	27a40010 	addiu	a0,sp,16
  4089b8:	14400139 	bnez	v0,408ea0 <page_check+0x8b4>
  4089bc:	8fa30010 	lw	v1,16(sp)
  4089c0:	8fa20018 	lw	v0,24(sp)
  4089c4:	14620137 	bne	v1,v0,408ea4 <page_check+0x8b8>
  4089c8:	3c070042 	lui	a3,0x42
  4089cc:	0c102051 	jal	408144 <page_alloc>
  4089d0:	27a40010 	addiu	a0,sp,16
  4089d4:	2403fffc 	li	v1,-4
  4089d8:	14430139 	bne	v0,v1,408ec0 <page_check+0x8d4>
  4089dc:	3c020042 	lui	v0,0x42
  4089e0:	8c505df8 	lw	s0,24056(v0)
  4089e4:	0c101ec3 	jal	407b0c <page2pa>
  4089e8:	8fa40014 	lw	a0,20(sp)
  4089ec:	8e030000 	lw	v1,0(s0)
  4089f0:	7c035804 	ins	v1,zero,0x0,0xc
  4089f4:	1462013a 	bne	v1,v0,408ee0 <page_check+0x8f4>
  4089f8:	3c070042 	lui	a3,0x42
  4089fc:	ae000000 	sw	zero,0(s0)
  408a00:	8fa20014 	lw	v0,20(sp)
  408a04:	94450008 	lhu	a1,8(v0)
  408a08:	3c040042 	lui	a0,0x42
  408a0c:	0c10122b 	jal	4048ac <printf>
  408a10:	2484d148 	addiu	a0,a0,-11960
  408a14:	8fa40014 	lw	a0,20(sp)
  408a18:	94830008 	lhu	v1,8(a0)
  408a1c:	24020001 	li	v0,1
  408a20:	14620136 	bne	v1,v0,408efc <page_check+0x910>
  408a24:	3c020042 	lui	v0,0x42
  408a28:	a4800008 	sh	zero,8(a0)
  408a2c:	0c10206c 	jal	4081b0 <page_free>
  408a30:	ac515d5c 	sw	s1,23900(v0)
  408a34:	0c10206c 	jal	4081b0 <page_free>
  408a38:	8fa40018 	lw	a0,24(sp)
  408a3c:	0c10206c 	jal	4081b0 <page_free>
  408a40:	8fa4001c 	lw	a0,28(sp)
  408a44:	3c040042 	lui	a0,0x42
  408a48:	0c10122b 	jal	4048ac <printf>
  408a4c:	2484d178 	addiu	a0,a0,-11912
  408a50:	8fbf002c 	lw	ra,44(sp)
  408a54:	8fb20028 	lw	s2,40(sp)
  408a58:	8fb10024 	lw	s1,36(sp)
  408a5c:	8fb00020 	lw	s0,32(sp)
  408a60:	03e00008 	jr	ra
  408a64:	27bd0030 	addiu	sp,sp,48
  408a68:	24e7cdd0 	addiu	a3,a3,-12848
  408a6c:	3c060042 	lui	a2,0x42
  408a70:	24c6c1fc 	addiu	a2,a2,-15876
  408a74:	24050223 	li	a1,547
  408a78:	3c040042 	lui	a0,0x42
  408a7c:	0c10123f 	jal	4048fc <_panic>
  408a80:	2484cc10 	addiu	a0,a0,-13296
  408a84:	24e7cde8 	addiu	a3,a3,-12824
  408a88:	3c060042 	lui	a2,0x42
  408a8c:	24c6c1fc 	addiu	a2,a2,-15876
  408a90:	24050224 	li	a1,548
  408a94:	3c040042 	lui	a0,0x42
  408a98:	0c10123f 	jal	4048fc <_panic>
  408a9c:	2484cc10 	addiu	a0,a0,-13296
  408aa0:	3c070042 	lui	a3,0x42
  408aa4:	24e7ce00 	addiu	a3,a3,-12800
  408aa8:	3c060042 	lui	a2,0x42
  408aac:	24c6c1fc 	addiu	a2,a2,-15876
  408ab0:	24050225 	li	a1,549
  408ab4:	3c040042 	lui	a0,0x42
  408ab8:	0c10123f 	jal	4048fc <_panic>
  408abc:	2484cc10 	addiu	a0,a0,-13296
  408ac0:	3c070042 	lui	a3,0x42
  408ac4:	24e7ce48 	addiu	a3,a3,-12728
  408ac8:	3c060042 	lui	a2,0x42
  408acc:	24c6c1fc 	addiu	a2,a2,-15876
  408ad0:	24050227 	li	a1,551
  408ad4:	3c040042 	lui	a0,0x42
  408ad8:	0c10123f 	jal	4048fc <_panic>
  408adc:	2484cc10 	addiu	a0,a0,-13296
  408ae0:	24e7ce18 	addiu	a3,a3,-12776
  408ae4:	3c060042 	lui	a2,0x42
  408ae8:	24c6c1fc 	addiu	a2,a2,-15876
  408aec:	24050228 	li	a1,552
  408af0:	3c040042 	lui	a0,0x42
  408af4:	0c10123f 	jal	4048fc <_panic>
  408af8:	2484cc10 	addiu	a0,a0,-13296
  408afc:	24e7ce2c 	addiu	a3,a3,-12756
  408b00:	3c060042 	lui	a2,0x42
  408b04:	24c6c1fc 	addiu	a2,a2,-15876
  408b08:	24050229 	li	a1,553
  408b0c:	3c040042 	lui	a0,0x42
  408b10:	0c10123f 	jal	4048fc <_panic>
  408b14:	2484cc10 	addiu	a0,a0,-13296
  408b18:	3c070042 	lui	a3,0x42
  408b1c:	24e7ce4c 	addiu	a3,a3,-12724
  408b20:	3c060042 	lui	a2,0x42
  408b24:	24c6c1fc 	addiu	a2,a2,-15876
  408b28:	24050231 	li	a1,561
  408b2c:	3c040042 	lui	a0,0x42
  408b30:	0c10123f 	jal	4048fc <_panic>
  408b34:	2484cc10 	addiu	a0,a0,-13296
  408b38:	24e7ce6c 	addiu	a3,a3,-12692
  408b3c:	3c060042 	lui	a2,0x42
  408b40:	24c6c1fc 	addiu	a2,a2,-15876
  408b44:	24050234 	li	a1,564
  408b48:	3c040042 	lui	a0,0x42
  408b4c:	0c10123f 	jal	4048fc <_panic>
  408b50:	2484cc10 	addiu	a0,a0,-13296
  408b54:	3c070042 	lui	a3,0x42
  408b58:	24e7ce98 	addiu	a3,a3,-12648
  408b5c:	3c060042 	lui	a2,0x42
  408b60:	24c6c1fc 	addiu	a2,a2,-15876
  408b64:	24050238 	li	a1,568
  408b68:	3c040042 	lui	a0,0x42
  408b6c:	0c10123f 	jal	4048fc <_panic>
  408b70:	2484cc10 	addiu	a0,a0,-13296
  408b74:	3c070042 	lui	a3,0x42
  408b78:	24e7cec4 	addiu	a3,a3,-12604
  408b7c:	3c060042 	lui	a2,0x42
  408b80:	24c6c1fc 	addiu	a2,a2,-15876
  408b84:	24050239 	li	a1,569
  408b88:	3c040042 	lui	a0,0x42
  408b8c:	0c10123f 	jal	4048fc <_panic>
  408b90:	2484cc10 	addiu	a0,a0,-13296
  408b94:	3c070042 	lui	a3,0x42
  408b98:	24e7cf20 	addiu	a3,a3,-12512
  408b9c:	3c060042 	lui	a2,0x42
  408ba0:	24c6c1fc 	addiu	a2,a2,-15876
  408ba4:	2405023e 	li	a1,574
  408ba8:	3c040042 	lui	a0,0x42
  408bac:	0c10123f 	jal	4048fc <_panic>
  408bb0:	2484cc10 	addiu	a0,a0,-13296
  408bb4:	3c070042 	lui	a3,0x42
  408bb8:	24e7cf48 	addiu	a3,a3,-12472
  408bbc:	3c060042 	lui	a2,0x42
  408bc0:	24c6c1fc 	addiu	a2,a2,-15876
  408bc4:	2405023f 	li	a1,575
  408bc8:	3c040042 	lui	a0,0x42
  408bcc:	0c10123f 	jal	4048fc <_panic>
  408bd0:	2484cc10 	addiu	a0,a0,-13296
  408bd4:	3c070042 	lui	a3,0x42
  408bd8:	24e7cf5c 	addiu	a3,a3,-12452
  408bdc:	3c060042 	lui	a2,0x42
  408be0:	24c6c1fc 	addiu	a2,a2,-15876
  408be4:	24050242 	li	a1,578
  408be8:	3c040042 	lui	a0,0x42
  408bec:	0c10123f 	jal	4048fc <_panic>
  408bf0:	2484cc10 	addiu	a0,a0,-13296
  408bf4:	3c070042 	lui	a3,0x42
  408bf8:	24e7cf88 	addiu	a3,a3,-12408
  408bfc:	3c060042 	lui	a2,0x42
  408c00:	24c6c1fc 	addiu	a2,a2,-15876
  408c04:	24050243 	li	a1,579
  408c08:	3c040042 	lui	a0,0x42
  408c0c:	0c10123f 	jal	4048fc <_panic>
  408c10:	2484cc10 	addiu	a0,a0,-13296
  408c14:	24e7cfb4 	addiu	a3,a3,-12364
  408c18:	3c060042 	lui	a2,0x42
  408c1c:	24c6c1fc 	addiu	a2,a2,-15876
  408c20:	24050244 	li	a1,580
  408c24:	3c040042 	lui	a0,0x42
  408c28:	0c10123f 	jal	4048fc <_panic>
  408c2c:	2484cc10 	addiu	a0,a0,-13296
  408c30:	24e7ce4c 	addiu	a3,a3,-12724
  408c34:	3c060042 	lui	a2,0x42
  408c38:	24c6c1fc 	addiu	a2,a2,-15876
  408c3c:	24050247 	li	a1,583
  408c40:	3c040042 	lui	a0,0x42
  408c44:	0c10123f 	jal	4048fc <_panic>
  408c48:	2484cc10 	addiu	a0,a0,-13296
  408c4c:	3c070042 	lui	a3,0x42
  408c50:	24e7cf5c 	addiu	a3,a3,-12452
  408c54:	3c060042 	lui	a2,0x42
  408c58:	24c6c1fc 	addiu	a2,a2,-15876
  408c5c:	2405024b 	li	a1,587
  408c60:	3c040042 	lui	a0,0x42
  408c64:	0c10123f 	jal	4048fc <_panic>
  408c68:	2484cc10 	addiu	a0,a0,-13296
  408c6c:	3c070042 	lui	a3,0x42
  408c70:	24e7cf88 	addiu	a3,a3,-12408
  408c74:	3c060042 	lui	a2,0x42
  408c78:	24c6c1fc 	addiu	a2,a2,-15876
  408c7c:	2405024c 	li	a1,588
  408c80:	3c040042 	lui	a0,0x42
  408c84:	0c10123f 	jal	4048fc <_panic>
  408c88:	2484cc10 	addiu	a0,a0,-13296
  408c8c:	24e7cfb4 	addiu	a3,a3,-12364
  408c90:	3c060042 	lui	a2,0x42
  408c94:	24c6c1fc 	addiu	a2,a2,-15876
  408c98:	2405024d 	li	a1,589
  408c9c:	3c040042 	lui	a0,0x42
  408ca0:	0c10123f 	jal	4048fc <_panic>
  408ca4:	2484cc10 	addiu	a0,a0,-13296
  408ca8:	3c070042 	lui	a3,0x42
  408cac:	24e7ce4c 	addiu	a3,a3,-12724
  408cb0:	3c060042 	lui	a2,0x42
  408cb4:	24c6c1fc 	addiu	a2,a2,-15876
  408cb8:	24050251 	li	a1,593
  408cbc:	3c040042 	lui	a0,0x42
  408cc0:	0c10123f 	jal	4048fc <_panic>
  408cc4:	2484cc10 	addiu	a0,a0,-13296
  408cc8:	3c070042 	lui	a3,0x42
  408ccc:	24e7cfdc 	addiu	a3,a3,-12324
  408cd0:	3c060042 	lui	a2,0x42
  408cd4:	24c6c1fc 	addiu	a2,a2,-15876
  408cd8:	24050254 	li	a1,596
  408cdc:	3c040042 	lui	a0,0x42
  408ce0:	0c10123f 	jal	4048fc <_panic>
  408ce4:	2484cc10 	addiu	a0,a0,-13296
  408ce8:	3c070042 	lui	a3,0x42
  408cec:	24e7d008 	addiu	a3,a3,-12280
  408cf0:	3c060042 	lui	a2,0x42
  408cf4:	24c6c1fc 	addiu	a2,a2,-15876
  408cf8:	24050257 	li	a1,599
  408cfc:	3c040042 	lui	a0,0x42
  408d00:	0c10123f 	jal	4048fc <_panic>
  408d04:	2484cc10 	addiu	a0,a0,-13296
  408d08:	3c070042 	lui	a3,0x42
  408d0c:	24e7cf20 	addiu	a3,a3,-12512
  408d10:	3c060042 	lui	a2,0x42
  408d14:	24c6c1fc 	addiu	a2,a2,-15876
  408d18:	2405025a 	li	a1,602
  408d1c:	3c040042 	lui	a0,0x42
  408d20:	0c10123f 	jal	4048fc <_panic>
  408d24:	2484cc10 	addiu	a0,a0,-13296
  408d28:	3c070042 	lui	a3,0x42
  408d2c:	24e7d034 	addiu	a3,a3,-12236
  408d30:	3c060042 	lui	a2,0x42
  408d34:	24c6c1fc 	addiu	a2,a2,-15876
  408d38:	2405025b 	li	a1,603
  408d3c:	3c040042 	lui	a0,0x42
  408d40:	0c10123f 	jal	4048fc <_panic>
  408d44:	2484cc10 	addiu	a0,a0,-13296
  408d48:	3c070042 	lui	a3,0x42
  408d4c:	24e7d060 	addiu	a3,a3,-12192
  408d50:	3c060042 	lui	a2,0x42
  408d54:	24c6c1fc 	addiu	a2,a2,-15876
  408d58:	2405025d 	li	a1,605
  408d5c:	3c040042 	lui	a0,0x42
  408d60:	0c10123f 	jal	4048fc <_panic>
  408d64:	2484cc10 	addiu	a0,a0,-13296
  408d68:	24e7d084 	addiu	a3,a3,-12156
  408d6c:	3c060042 	lui	a2,0x42
  408d70:	24c6c1fc 	addiu	a2,a2,-15876
  408d74:	2405025f 	li	a1,607
  408d78:	3c040042 	lui	a0,0x42
  408d7c:	0c10123f 	jal	4048fc <_panic>
  408d80:	2484cc10 	addiu	a0,a0,-13296
  408d84:	3c070042 	lui	a3,0x42
  408d88:	24e7d0ac 	addiu	a3,a3,-12116
  408d8c:	3c060042 	lui	a2,0x42
  408d90:	24c6c1fc 	addiu	a2,a2,-15876
  408d94:	24050263 	li	a1,611
  408d98:	3c040042 	lui	a0,0x42
  408d9c:	0c10123f 	jal	4048fc <_panic>
  408da0:	2484cc10 	addiu	a0,a0,-13296
  408da4:	3c070042 	lui	a3,0x42
  408da8:	24e7d0d0 	addiu	a3,a3,-12080
  408dac:	3c060042 	lui	a2,0x42
  408db0:	24c6c1fc 	addiu	a2,a2,-15876
  408db4:	24050267 	li	a1,615
  408db8:	3c040042 	lui	a0,0x42
  408dbc:	0c10123f 	jal	4048fc <_panic>
  408dc0:	2484cc10 	addiu	a0,a0,-13296
  408dc4:	3c070042 	lui	a3,0x42
  408dc8:	24e7d034 	addiu	a3,a3,-12236
  408dcc:	3c060042 	lui	a2,0x42
  408dd0:	24c6c1fc 	addiu	a2,a2,-15876
  408dd4:	24050268 	li	a1,616
  408dd8:	3c040042 	lui	a0,0x42
  408ddc:	0c10123f 	jal	4048fc <_panic>
  408de0:	2484cc10 	addiu	a0,a0,-13296
  408de4:	3c070042 	lui	a3,0x42
  408de8:	24e7cf48 	addiu	a3,a3,-12472
  408dec:	3c060042 	lui	a2,0x42
  408df0:	24c6c1fc 	addiu	a2,a2,-15876
  408df4:	24050269 	li	a1,617
  408df8:	3c040042 	lui	a0,0x42
  408dfc:	0c10123f 	jal	4048fc <_panic>
  408e00:	2484cc10 	addiu	a0,a0,-13296
  408e04:	3c070042 	lui	a3,0x42
  408e08:	24e7d084 	addiu	a3,a3,-12156
  408e0c:	3c060042 	lui	a2,0x42
  408e10:	24c6c1fc 	addiu	a2,a2,-15876
  408e14:	2405026a 	li	a1,618
  408e18:	3c040042 	lui	a0,0x42
  408e1c:	0c10123f 	jal	4048fc <_panic>
  408e20:	2484cc10 	addiu	a0,a0,-13296
  408e24:	3c070042 	lui	a3,0x42
  408e28:	24e7d0d0 	addiu	a3,a3,-12080
  408e2c:	3c060042 	lui	a2,0x42
  408e30:	24c6c1fc 	addiu	a2,a2,-15876
  408e34:	2405026e 	li	a1,622
  408e38:	3c040042 	lui	a0,0x42
  408e3c:	0c10123f 	jal	4048fc <_panic>
  408e40:	2484cc10 	addiu	a0,a0,-13296
  408e44:	3c070042 	lui	a3,0x42
  408e48:	24e7d0f0 	addiu	a3,a3,-12048
  408e4c:	3c060042 	lui	a2,0x42
  408e50:	24c6c1fc 	addiu	a2,a2,-15876
  408e54:	2405026f 	li	a1,623
  408e58:	3c040042 	lui	a0,0x42
  408e5c:	0c10123f 	jal	4048fc <_panic>
  408e60:	2484cc10 	addiu	a0,a0,-13296
  408e64:	3c070042 	lui	a3,0x42
  408e68:	24e7d110 	addiu	a3,a3,-12016
  408e6c:	3c060042 	lui	a2,0x42
  408e70:	24c6c1fc 	addiu	a2,a2,-15876
  408e74:	24050270 	li	a1,624
  408e78:	3c040042 	lui	a0,0x42
  408e7c:	0c10123f 	jal	4048fc <_panic>
  408e80:	2484cc10 	addiu	a0,a0,-13296
  408e84:	24e7d084 	addiu	a3,a3,-12156
  408e88:	3c060042 	lui	a2,0x42
  408e8c:	24c6c1fc 	addiu	a2,a2,-15876
  408e90:	24050271 	li	a1,625
  408e94:	3c040042 	lui	a0,0x42
  408e98:	0c10123f 	jal	4048fc <_panic>
  408e9c:	2484cc10 	addiu	a0,a0,-13296
  408ea0:	3c070042 	lui	a3,0x42
  408ea4:	24e7d124 	addiu	a3,a3,-11996
  408ea8:	3c060042 	lui	a2,0x42
  408eac:	24c6c1fc 	addiu	a2,a2,-15876
  408eb0:	24050274 	li	a1,628
  408eb4:	3c040042 	lui	a0,0x42
  408eb8:	0c10123f 	jal	4048fc <_panic>
  408ebc:	2484cc10 	addiu	a0,a0,-13296
  408ec0:	3c070042 	lui	a3,0x42
  408ec4:	24e7ce4c 	addiu	a3,a3,-12724
  408ec8:	3c060042 	lui	a2,0x42
  408ecc:	24c6c1fc 	addiu	a2,a2,-15876
  408ed0:	24050277 	li	a1,631
  408ed4:	3c040042 	lui	a0,0x42
  408ed8:	0c10123f 	jal	4048fc <_panic>
  408edc:	2484cc10 	addiu	a0,a0,-13296
  408ee0:	24e7cec4 	addiu	a3,a3,-12604
  408ee4:	3c060042 	lui	a2,0x42
  408ee8:	24c6c1fc 	addiu	a2,a2,-15876
  408eec:	2405027a 	li	a1,634
  408ef0:	3c040042 	lui	a0,0x42
  408ef4:	0c10123f 	jal	4048fc <_panic>
  408ef8:	2484cc10 	addiu	a0,a0,-13296
  408efc:	3c070042 	lui	a3,0x42
  408f00:	24e7d164 	addiu	a3,a3,-11932
  408f04:	3c060042 	lui	a2,0x42
  408f08:	24c6c1fc 	addiu	a2,a2,-15876
  408f0c:	2405027d 	li	a1,637
  408f10:	3c040042 	lui	a0,0x42
  408f14:	0c10123f 	jal	4048fc <_panic>
  408f18:	2484cc10 	addiu	a0,a0,-13296

00408f1c <pageout>:
  408f1c:	27bdffd8 	addiu	sp,sp,-40
  408f20:	afbf0024 	sw	ra,36(sp)
  408f24:	afb10020 	sw	s1,32(sp)
  408f28:	afb0001c 	sw	s0,28(sp)
  408f2c:	04a10022 	bgez	a1,408fb8 <pageout+0x9c>
  408f30:	afa00010 	sw	zero,16(sp)
  408f34:	00808025 	move	s0,a0
  408f38:	3c0280bf 	lui	v0,0x80bf
  408f3c:	3442ffff 	ori	v0,v0,0xffff
  408f40:	00821021 	addu	v0,a0,v0
  408f44:	3c03003f 	lui	v1,0x3f
  408f48:	3463ffff 	ori	v1,v1,0xffff
  408f4c:	0043102b 	sltu	v0,v0,v1
  408f50:	1440001f 	bnez	v0,408fd0 <pageout+0xb4>
  408f54:	00a08825 	move	s1,a1
  408f58:	3c020001 	lui	v0,0x1
  408f5c:	0082102b 	sltu	v0,a0,v0
  408f60:	14400021 	bnez	v0,408fe8 <pageout+0xcc>
  408f64:	3c020042 	lui	v0,0x42
  408f68:	0c102051 	jal	408144 <page_alloc>
  408f6c:	27a40010 	addiu	a0,sp,16
  408f70:	8fa50010 	lw	a1,16(sp)
  408f74:	94a20008 	lhu	v0,8(a1)
  408f78:	24420001 	addiu	v0,v0,1
  408f7c:	a4a20008 	sh	v0,8(a1)
  408f80:	24070400 	li	a3,1024
  408f84:	02003025 	move	a2,s0
  408f88:	7c065804 	ins	a2,zero,0x0,0xc
  408f8c:	0c102131 	jal	4084c4 <page_insert>
  408f90:	02202025 	move	a0,s1
  408f94:	02002825 	move	a1,s0
  408f98:	3c040042 	lui	a0,0x42
  408f9c:	0c10122b 	jal	4048ac <printf>
  408fa0:	2484d218 	addiu	a0,a0,-11752
  408fa4:	8fbf0024 	lw	ra,36(sp)
  408fa8:	8fb10020 	lw	s1,32(sp)
  408fac:	8fb0001c 	lw	s0,28(sp)
  408fb0:	03e00008 	jr	ra
  408fb4:	27bd0028 	addiu	sp,sp,40
  408fb8:	3c060042 	lui	a2,0x42
  408fbc:	24c6d194 	addiu	a2,a2,-11884
  408fc0:	24050290 	li	a1,656
  408fc4:	3c040042 	lui	a0,0x42
  408fc8:	0c10123f 	jal	4048fc <_panic>
  408fcc:	2484cc10 	addiu	a0,a0,-13296
  408fd0:	3c060042 	lui	a2,0x42
  408fd4:	24c6d1b0 	addiu	a2,a2,-11856
  408fd8:	24050294 	li	a1,660
  408fdc:	3c040042 	lui	a0,0x42
  408fe0:	0c10123f 	jal	4048fc <_panic>
  408fe4:	2484cc10 	addiu	a0,a0,-13296
  408fe8:	8c425740 	lw	v0,22336(v0)
  408fec:	00a03825 	move	a3,a1
  408ff0:	00803025 	move	a2,a0
  408ff4:	8c4500a4 	lw	a1,164(v0)
  408ff8:	3c040042 	lui	a0,0x42
  408ffc:	0c10122b 	jal	4048ac <printf>
  409000:	2484d1d8 	addiu	a0,a0,-11816
  409004:	3c060042 	lui	a2,0x42
  409008:	24c6d200 	addiu	a2,a2,-11776
  40900c:	24050299 	li	a1,665
  409010:	3c040042 	lui	a0,0x42
  409014:	0c10123f 	jal	4048fc <_panic>
  409018:	2484cc10 	addiu	a0,a0,-13296

0040901c <print_tlb>:
  40901c:	27bdffc8 	addiu	sp,sp,-56
  409020:	afbf0034 	sw	ra,52(sp)
  409024:	afb20030 	sw	s2,48(sp)
  409028:	afb1002c 	sw	s1,44(sp)
  40902c:	0c102fc9 	jal	40bf24 <mips_tlb_size>
  409030:	afb00028 	sw	s0,40(sp)
  409034:	00408825 	move	s1,v0
  409038:	00402825 	move	a1,v0
  40903c:	3c040042 	lui	a0,0x42
  409040:	0c10122b 	jal	4048ac <printf>
  409044:	2484d240 	addiu	a0,a0,-11712
  409048:	12200015 	beqz	s1,4090a0 <print_tlb+0x84>
  40904c:	00008025 	move	s0,zero
  409050:	3c120042 	lui	s2,0x42
  409054:	2652d250 	addiu	s2,s2,-11696
  409058:	afb00010 	sw	s0,16(sp)
  40905c:	27a70024 	addiu	a3,sp,36
  409060:	27a60020 	addiu	a2,sp,32
  409064:	27a5001c 	addiu	a1,sp,28
  409068:	0c102f1d 	jal	40bc74 <mips_tlbri2>
  40906c:	27a40018 	addiu	a0,sp,24
  409070:	8fa20024 	lw	v0,36(sp)
  409074:	afa20014 	sw	v0,20(sp)
  409078:	8fa20020 	lw	v0,32(sp)
  40907c:	afa20010 	sw	v0,16(sp)
  409080:	8fa7001c 	lw	a3,28(sp)
  409084:	8fa60018 	lw	a2,24(sp)
  409088:	02002825 	move	a1,s0
  40908c:	0c10122b 	jal	4048ac <printf>
  409090:	02402025 	move	a0,s2
  409094:	26100001 	addiu	s0,s0,1
  409098:	5630fff0 	bnel	s1,s0,40905c <print_tlb+0x40>
  40909c:	afb00010 	sw	s0,16(sp)
  4090a0:	8fbf0034 	lw	ra,52(sp)
  4090a4:	8fb20030 	lw	s2,48(sp)
  4090a8:	8fb1002c 	lw	s1,44(sp)
  4090ac:	8fb00028 	lw	s0,40(sp)
  4090b0:	03e00008 	jr	ra
  4090b4:	27bd0038 	addiu	sp,sp,56

004090b8 <my_tlb_refill>:
  4090b8:	27bdffe0 	addiu	sp,sp,-32
  4090bc:	afbf001c 	sw	ra,28(sp)
  4090c0:	afb00018 	sw	s0,24(sp)
  4090c4:	40104000 	mfc0	s0,c0_badvaddr
  4090c8:	afa00010 	sw	zero,16(sp)
  4090cc:	3c020042 	lui	v0,0x42
  4090d0:	8c42b628 	lw	v0,-18904(v0)
  4090d4:	04410021 	bgez	v0,40915c <my_tlb_refill+0xa4>
  4090d8:	3c0280bf 	lui	v0,0x80bf
  4090dc:	3442ffff 	ori	v0,v0,0xffff
  4090e0:	02021021 	addu	v0,s0,v0
  4090e4:	3c03003f 	lui	v1,0x3f
  4090e8:	3463ffff 	ori	v1,v1,0xffff
  4090ec:	0043102b 	sltu	v0,v0,v1
  4090f0:	14400020 	bnez	v0,409174 <my_tlb_refill+0xbc>
  4090f4:	3c020001 	lui	v0,0x1
  4090f8:	0202102b 	sltu	v0,s0,v0
  4090fc:	14400023 	bnez	v0,40918c <my_tlb_refill+0xd4>
  409100:	3c060042 	lui	a2,0x42
  409104:	0c102051 	jal	408144 <page_alloc>
  409108:	27a40010 	addiu	a0,sp,16
  40910c:	8fa50010 	lw	a1,16(sp)
  409110:	94a20008 	lhu	v0,8(a1)
  409114:	24420001 	addiu	v0,v0,1
  409118:	a4a20008 	sh	v0,8(a1)
  40911c:	24070400 	li	a3,1024
  409120:	02003025 	move	a2,s0
  409124:	7c065804 	ins	a2,zero,0x0,0xc
  409128:	3c020042 	lui	v0,0x42
  40912c:	0c102131 	jal	4084c4 <page_insert>
  409130:	8c44b628 	lw	a0,-18904(v0)
  409134:	02002825 	move	a1,s0
  409138:	3c040042 	lui	a0,0x42
  40913c:	0c10122b 	jal	4048ac <printf>
  409140:	2484d218 	addiu	a0,a0,-11752
  409144:	0c102407 	jal	40901c <print_tlb>
  409148:	00000000 	nop
  40914c:	8fbf001c 	lw	ra,28(sp)
  409150:	8fb00018 	lw	s0,24(sp)
  409154:	03e00008 	jr	ra
  409158:	27bd0020 	addiu	sp,sp,32
  40915c:	3c060042 	lui	a2,0x42
  409160:	24c6d194 	addiu	a2,a2,-11884
  409164:	24050020 	li	a1,32
  409168:	3c040042 	lui	a0,0x42
  40916c:	0c10123f 	jal	4048fc <_panic>
  409170:	2484d270 	addiu	a0,a0,-11664
  409174:	3c060042 	lui	a2,0x42
  409178:	24c6d1b0 	addiu	a2,a2,-11856
  40917c:	24050024 	li	a1,36
  409180:	3c040042 	lui	a0,0x42
  409184:	0c10123f 	jal	4048fc <_panic>
  409188:	2484d270 	addiu	a0,a0,-11664
  40918c:	24c6d200 	addiu	a2,a2,-11776
  409190:	24050028 	li	a1,40
  409194:	3c040042 	lui	a0,0x42
  409198:	0c10123f 	jal	4048fc <_panic>
  40919c:	2484d270 	addiu	a0,a0,-11664

004091a0 <bcopy>:
  4091a0:	27bdffc8 	addiu	sp,sp,-56
  4091a4:	afbf0034 	sw	ra,52(sp)
  4091a8:	afbe0030 	sw	s8,48(sp)
  4091ac:	afb7002c 	sw	s7,44(sp)
  4091b0:	afb60028 	sw	s6,40(sp)
  4091b4:	afb50024 	sw	s5,36(sp)
  4091b8:	afb40020 	sw	s4,32(sp)
  4091bc:	afb3001c 	sw	s3,28(sp)
  4091c0:	afb20018 	sw	s2,24(sp)
  4091c4:	afb10014 	sw	s1,20(sp)
  4091c8:	afb00010 	sw	s0,16(sp)
  4091cc:	0080a025 	move	s4,a0
  4091d0:	00a6a821 	addu	s5,a1,a2
  4091d4:	24a20003 	addiu	v0,a1,3
  4091d8:	0055102b 	sltu	v0,v0,s5
  4091dc:	1040001d 	beqz	v0,409254 <bcopy+0xb4>
  4091e0:	00a08025 	move	s0,a1
  4091e4:	02a5b823 	subu	s7,s5,a1
  4091e8:	26f7fffc 	addiu	s7,s7,-4
  4091ec:	0017b082 	srl	s6,s7,0x2
  4091f0:	26d60001 	addiu	s6,s6,1
  4091f4:	00a09825 	move	s3,a1
  4091f8:	00809025 	move	s2,a0
  4091fc:	00008825 	move	s1,zero
  409200:	3c1e0042 	lui	s8,0x42
  409204:	10000006 	b	409220 <bcopy+0x80>
  409208:	27ded278 	addiu	s8,s8,-11656
  40920c:	ae620000 	sw	v0,0(s3)
  409210:	26730004 	addiu	s3,s3,4
  409214:	26310001 	addiu	s1,s1,1
  409218:	1236000a 	beq	s1,s6,409244 <bcopy+0xa4>
  40921c:	26520004 	addiu	s2,s2,4
  409220:	2a220005 	slti	v0,s1,5
  409224:	5040fff9 	beqzl	v0,40920c <bcopy+0x6c>
  409228:	8e420000 	lw	v0,0(s2)
  40922c:	8e460000 	lw	a2,0(s2)
  409230:	02602825 	move	a1,s3
  409234:	0c10122b 	jal	4048ac <printf>
  409238:	03c02025 	move	a0,s8
  40923c:	1000fff3 	b	40920c <bcopy+0x6c>
  409240:	8e420000 	lw	v0,0(s2)
  409244:	7c170804 	ins	s7,zero,0x0,0x2
  409248:	26f70004 	addiu	s7,s7,4
  40924c:	02178021 	addu	s0,s0,s7
  409250:	0297a021 	addu	s4,s4,s7
  409254:	0215102b 	sltu	v0,s0,s5
  409258:	10400007 	beqz	v0,409278 <bcopy+0xd8>
  40925c:	8fbf0034 	lw	ra,52(sp)
  409260:	92820000 	lbu	v0,0(s4)
  409264:	a2020000 	sb	v0,0(s0)
  409268:	26100001 	addiu	s0,s0,1
  40926c:	16b0fffc 	bne	s5,s0,409260 <bcopy+0xc0>
  409270:	26940001 	addiu	s4,s4,1
  409274:	8fbf0034 	lw	ra,52(sp)
  409278:	8fbe0030 	lw	s8,48(sp)
  40927c:	8fb7002c 	lw	s7,44(sp)
  409280:	8fb60028 	lw	s6,40(sp)
  409284:	8fb50024 	lw	s5,36(sp)
  409288:	8fb40020 	lw	s4,32(sp)
  40928c:	8fb3001c 	lw	s3,28(sp)
  409290:	8fb20018 	lw	s2,24(sp)
  409294:	8fb10014 	lw	s1,20(sp)
  409298:	8fb00010 	lw	s0,16(sp)
  40929c:	03e00008 	jr	ra
  4092a0:	27bd0038 	addiu	sp,sp,56

004092a4 <bzero>:
  4092a4:	00852821 	addu	a1,a0,a1
  4092a8:	24820003 	addiu	v0,a0,3
  4092ac:	0045102b 	sltu	v0,v0,a1
  4092b0:	1040000d 	beqz	v0,4092e8 <bzero+0x44>
  4092b4:	0085102b 	sltu	v0,a0,a1
  4092b8:	00801825 	move	v1,a0
  4092bc:	ac600000 	sw	zero,0(v1)
  4092c0:	24620007 	addiu	v0,v1,7
  4092c4:	0045102b 	sltu	v0,v0,a1
  4092c8:	1440fffc 	bnez	v0,4092bc <bzero+0x18>
  4092cc:	24630004 	addiu	v1,v1,4
  4092d0:	00a41023 	subu	v0,a1,a0
  4092d4:	2442fffc 	addiu	v0,v0,-4
  4092d8:	7c020804 	ins	v0,zero,0x0,0x2
  4092dc:	24420004 	addiu	v0,v0,4
  4092e0:	00822021 	addu	a0,a0,v0
  4092e4:	0085102b 	sltu	v0,a0,a1
  4092e8:	10400004 	beqz	v0,4092fc <bzero+0x58>
  4092ec:	00000000 	nop
  4092f0:	24840001 	addiu	a0,a0,1
  4092f4:	14a4fffe 	bne	a1,a0,4092f0 <bzero+0x4c>
  4092f8:	a080ffff 	sb	zero,-1(a0)
  4092fc:	03e00008 	jr	ra
  409300:	00000000 	nop

00409304 <diskaddr>:
  409304:	3c020042 	lui	v0,0x42
  409308:	8c425e0c 	lw	v0,24076(v0)
  40930c:	50400005 	beqzl	v0,409324 <diskaddr+0x20>
  409310:	3c020001 	lui	v0,0x1
  409314:	8c420004 	lw	v0,4(v0)
  409318:	0082102b 	sltu	v0,a0,v0
  40931c:	10400004 	beqz	v0,409330 <diskaddr+0x2c>
  409320:	3c020001 	lui	v0,0x1
  409324:	00821021 	addu	v0,a0,v0
  409328:	03e00008 	jr	ra
  40932c:	00021300 	sll	v0,v0,0xc
  409330:	27bdffe8 	addiu	sp,sp,-24
  409334:	afbf0014 	sw	ra,20(sp)
  409338:	3c060042 	lui	a2,0x42
  40933c:	24c6d290 	addiu	a2,a2,-11632
  409340:	24050013 	li	a1,19
  409344:	3c040042 	lui	a0,0x42
  409348:	0c100051 	jal	400144 <_user_panic>
  40934c:	2484d2a0 	addiu	a0,a0,-11616

00409350 <va_is_mapped>:
  409350:	00041582 	srl	v0,a0,0x16
  409354:	00021880 	sll	v1,v0,0x2
  409358:	3c020041 	lui	v0,0x41
  40935c:	8c42f00c 	lw	v0,-4084(v0)
  409360:	00431021 	addu	v0,v0,v1
  409364:	8c430000 	lw	v1,0(v0)
  409368:	30630200 	andi	v1,v1,0x200
  40936c:	10600008 	beqz	v1,409390 <va_is_mapped+0x40>
  409370:	00001025 	move	v0,zero
  409374:	00042302 	srl	a0,a0,0xc
  409378:	00042080 	sll	a0,a0,0x2
  40937c:	3c020041 	lui	v0,0x41
  409380:	8c42f008 	lw	v0,-4088(v0)
  409384:	00442021 	addu	a0,v0,a0
  409388:	8c820000 	lw	v0,0(a0)
  40938c:	7c420240 	ext	v0,v0,0x9,0x1
  409390:	03e00008 	jr	ra
  409394:	00000000 	nop

00409398 <block_is_mapped>:
  409398:	27bdffe8 	addiu	sp,sp,-24
  40939c:	afbf0014 	sw	ra,20(sp)
  4093a0:	0c1024c1 	jal	409304 <diskaddr>
  4093a4:	afb00010 	sw	s0,16(sp)
  4093a8:	00408025 	move	s0,v0
  4093ac:	0c1024d4 	jal	409350 <va_is_mapped>
  4093b0:	00402025 	move	a0,v0
  4093b4:	0002800a 	movz	s0,zero,v0
  4093b8:	02001025 	move	v0,s0
  4093bc:	8fbf0014 	lw	ra,20(sp)
  4093c0:	8fb00010 	lw	s0,16(sp)
  4093c4:	03e00008 	jr	ra
  4093c8:	27bd0018 	addiu	sp,sp,24

004093cc <va_is_dirty>:
  4093cc:	00042302 	srl	a0,a0,0xc
  4093d0:	00041080 	sll	v0,a0,0x2
  4093d4:	3c030041 	lui	v1,0x41
  4093d8:	8c64f008 	lw	a0,-4088(v1)
  4093dc:	00822021 	addu	a0,a0,v0
  4093e0:	8c820000 	lw	v0,0(a0)
  4093e4:	03e00008 	jr	ra
  4093e8:	30420002 	andi	v0,v0,0x2

004093ec <block_is_dirty>:
  4093ec:	27bdffe8 	addiu	sp,sp,-24
  4093f0:	afbf0014 	sw	ra,20(sp)
  4093f4:	0c1024c1 	jal	409304 <diskaddr>
  4093f8:	afb00010 	sw	s0,16(sp)
  4093fc:	00408025 	move	s0,v0
  409400:	0c1024d4 	jal	409350 <va_is_mapped>
  409404:	00402025 	move	a0,v0
  409408:	14400006 	bnez	v0,409424 <block_is_dirty+0x38>
  40940c:	00001825 	move	v1,zero
  409410:	00601025 	move	v0,v1
  409414:	8fbf0014 	lw	ra,20(sp)
  409418:	8fb00010 	lw	s0,16(sp)
  40941c:	03e00008 	jr	ra
  409420:	27bd0018 	addiu	sp,sp,24
  409424:	0c1024f3 	jal	4093cc <va_is_dirty>
  409428:	02002025 	move	a0,s0
  40942c:	1000fff8 	b	409410 <block_is_dirty+0x24>
  409430:	0002182b 	sltu	v1,zero,v0

00409434 <map_block>:
  409434:	27bdffe8 	addiu	sp,sp,-24
  409438:	afbf0014 	sw	ra,20(sp)
  40943c:	afb00010 	sw	s0,16(sp)
  409440:	0c1024e6 	jal	409398 <block_is_mapped>
  409444:	00808025 	move	s0,a0
  409448:	10400006 	beqz	v0,409464 <map_block+0x30>
  40944c:	00001825 	move	v1,zero
  409450:	00601025 	move	v0,v1
  409454:	8fbf0014 	lw	ra,20(sp)
  409458:	8fb00010 	lw	s0,16(sp)
  40945c:	03e00008 	jr	ra
  409460:	27bd0018 	addiu	sp,sp,24
  409464:	0c1024c1 	jal	409304 <diskaddr>
  409468:	02002025 	move	a0,s0
  40946c:	24060604 	li	a2,1540
  409470:	00402825 	move	a1,v0
  409474:	0c100418 	jal	401060 <syscall_mem_alloc>
  409478:	00002025 	move	a0,zero
  40947c:	1000fff4 	b	409450 <map_block+0x1c>
  409480:	00401825 	move	v1,v0

00409484 <write_block>:
  409484:	27bdffd8 	addiu	sp,sp,-40
  409488:	afbf0024 	sw	ra,36(sp)
  40948c:	afb10020 	sw	s1,32(sp)
  409490:	afb0001c 	sw	s0,28(sp)
  409494:	0c1024e6 	jal	409398 <block_is_mapped>
  409498:	00808825 	move	s1,a0
  40949c:	10400015 	beqz	v0,4094f4 <write_block+0x70>
  4094a0:	02203825 	move	a3,s1
  4094a4:	0c1024c1 	jal	409304 <diskaddr>
  4094a8:	02202025 	move	a0,s1
  4094ac:	00408025 	move	s0,v0
  4094b0:	24070008 	li	a3,8
  4094b4:	00403025 	move	a2,v0
  4094b8:	001128c0 	sll	a1,s1,0x3
  4094bc:	0c102988 	jal	40a620 <ide_write>
  4094c0:	00002025 	move	a0,zero
  4094c4:	24020604 	li	v0,1540
  4094c8:	afa20010 	sw	v0,16(sp)
  4094cc:	02003825 	move	a3,s0
  4094d0:	00003025 	move	a2,zero
  4094d4:	02002825 	move	a1,s0
  4094d8:	0c100424 	jal	401090 <syscall_mem_map>
  4094dc:	00002025 	move	a0,zero
  4094e0:	8fbf0024 	lw	ra,36(sp)
  4094e4:	8fb10020 	lw	s1,32(sp)
  4094e8:	8fb0001c 	lw	s0,28(sp)
  4094ec:	03e00008 	jr	ra
  4094f0:	27bd0028 	addiu	sp,sp,40
  4094f4:	3c060042 	lui	a2,0x42
  4094f8:	24c6d2ac 	addiu	a2,a2,-11604
  4094fc:	240500af 	li	a1,175
  409500:	3c040042 	lui	a0,0x42
  409504:	0c100051 	jal	400144 <_user_panic>
  409508:	2484d2a0 	addiu	a0,a0,-11616

0040950c <unmap_block>:
  40950c:	27bdffe8 	addiu	sp,sp,-24
  409510:	afbf0014 	sw	ra,20(sp)
  409514:	afb00010 	sw	s0,16(sp)
  409518:	0c1024e6 	jal	409398 <block_is_mapped>
  40951c:	00808025 	move	s0,a0
  409520:	14400004 	bnez	v0,409534 <unmap_block+0x28>
  409524:	8fbf0014 	lw	ra,20(sp)
  409528:	8fb00010 	lw	s0,16(sp)
  40952c:	03e00008 	jr	ra
  409530:	27bd0018 	addiu	sp,sp,24
  409534:	0c1024fb 	jal	4093ec <block_is_dirty>
  409538:	02002025 	move	a0,s0
  40953c:	14400014 	bnez	v0,409590 <unmap_block+0x84>
  409540:	00000000 	nop
  409544:	0c1024c1 	jal	409304 <diskaddr>
  409548:	02002025 	move	a0,s0
  40954c:	00402825 	move	a1,v0
  409550:	0c100431 	jal	4010c4 <syscall_mem_unmap>
  409554:	00002025 	move	a0,zero
  409558:	04400011 	bltz	v0,4095a0 <unmap_block+0x94>
  40955c:	3c040042 	lui	a0,0x42
  409560:	0c1024e6 	jal	409398 <block_is_mapped>
  409564:	02002025 	move	a0,s0
  409568:	1040ffef 	beqz	v0,409528 <unmap_block+0x1c>
  40956c:	8fbf0014 	lw	ra,20(sp)
  409570:	3c070042 	lui	a3,0x42
  409574:	24e7d2ec 	addiu	a3,a3,-11540
  409578:	3c060042 	lui	a2,0x42
  40957c:	24c6c1fc 	addiu	a2,a2,-15876
  409580:	24050067 	li	a1,103
  409584:	3c040042 	lui	a0,0x42
  409588:	0c100051 	jal	400144 <_user_panic>
  40958c:	2484d2a0 	addiu	a0,a0,-11616
  409590:	0c102521 	jal	409484 <write_block>
  409594:	02002025 	move	a0,s0
  409598:	1000ffea 	b	409544 <unmap_block+0x38>
  40959c:	00000000 	nop
  4095a0:	0c100042 	jal	400108 <writef>
  4095a4:	2484d2c8 	addiu	a0,a0,-11576
  4095a8:	1000ffed 	b	409560 <unmap_block+0x54>
  4095ac:	00000000 	nop

004095b0 <block_is_free>:
  4095b0:	3c020042 	lui	v0,0x42
  4095b4:	8c425e0c 	lw	v0,24076(v0)
  4095b8:	50400010 	beqzl	v0,4095fc <block_is_free+0x4c>
  4095bc:	00001025 	move	v0,zero
  4095c0:	8c430004 	lw	v1,4(v0)
  4095c4:	0083182b 	sltu	v1,a0,v1
  4095c8:	1060000c 	beqz	v1,4095fc <block_is_free+0x4c>
  4095cc:	00001025 	move	v0,zero
  4095d0:	00041142 	srl	v0,a0,0x5
  4095d4:	3c030042 	lui	v1,0x42
  4095d8:	8c635e08 	lw	v1,24072(v1)
  4095dc:	00021080 	sll	v0,v0,0x2
  4095e0:	00621821 	addu	v1,v1,v0
  4095e4:	24020001 	li	v0,1
  4095e8:	00821004 	sllv	v0,v0,a0
  4095ec:	8c640000 	lw	a0,0(v1)
  4095f0:	00441024 	and	v0,v0,a0
  4095f4:	03e00008 	jr	ra
  4095f8:	0002102b 	sltu	v0,zero,v0
  4095fc:	03e00008 	jr	ra
  409600:	00000000 	nop

00409604 <read_block>:
  409604:	27bdffd8 	addiu	sp,sp,-40
  409608:	afbf0024 	sw	ra,36(sp)
  40960c:	afb30020 	sw	s3,32(sp)
  409610:	afb2001c 	sw	s2,28(sp)
  409614:	afb10018 	sw	s1,24(sp)
  409618:	afb00014 	sw	s0,20(sp)
  40961c:	00808025 	move	s0,a0
  409620:	00a08825 	move	s1,a1
  409624:	3c020042 	lui	v0,0x42
  409628:	8c425e0c 	lw	v0,24076(v0)
  40962c:	10400005 	beqz	v0,409644 <read_block+0x40>
  409630:	00c09825 	move	s3,a2
  409634:	8c420004 	lw	v0,4(v0)
  409638:	0082102b 	sltu	v0,a0,v0
  40963c:	10400014 	beqz	v0,409690 <read_block+0x8c>
  409640:	00803825 	move	a3,a0
  409644:	3c020042 	lui	v0,0x42
  409648:	8c425e08 	lw	v0,24072(v0)
  40964c:	10400005 	beqz	v0,409664 <read_block+0x60>
  409650:	00000000 	nop
  409654:	0c10256c 	jal	4095b0 <block_is_free>
  409658:	02002025 	move	a0,s0
  40965c:	14400012 	bnez	v0,4096a8 <read_block+0xa4>
  409660:	02003825 	move	a3,s0
  409664:	0c1024c1 	jal	409304 <diskaddr>
  409668:	02002025 	move	a0,s0
  40966c:	00409025 	move	s2,v0
  409670:	0c1024e6 	jal	409398 <block_is_mapped>
  409674:	02002025 	move	a0,s0
  409678:	10400011 	beqz	v0,4096c0 <read_block+0xbc>
  40967c:	00000000 	nop
  409680:	5660001b 	bnezl	s3,4096f0 <read_block+0xec>
  409684:	ae600000 	sw	zero,0(s3)
  409688:	10000019 	b	4096f0 <read_block+0xec>
  40968c:	00000000 	nop
  409690:	3c060042 	lui	a2,0x42
  409694:	24c6d308 	addiu	a2,a2,-11512
  409698:	24050080 	li	a1,128
  40969c:	3c040042 	lui	a0,0x42
  4096a0:	0c100051 	jal	400144 <_user_panic>
  4096a4:	2484d2a0 	addiu	a0,a0,-11616
  4096a8:	3c060042 	lui	a2,0x42
  4096ac:	24c6d32c 	addiu	a2,a2,-11476
  4096b0:	24050089 	li	a1,137
  4096b4:	3c040042 	lui	a0,0x42
  4096b8:	0c100051 	jal	400144 <_user_panic>
  4096bc:	2484d2a0 	addiu	a0,a0,-11616
  4096c0:	12600002 	beqz	s3,4096cc <read_block+0xc8>
  4096c4:	24020001 	li	v0,1
  4096c8:	ae620000 	sw	v0,0(s3)
  4096cc:	24060600 	li	a2,1536
  4096d0:	02402825 	move	a1,s2
  4096d4:	0c100418 	jal	401060 <syscall_mem_alloc>
  4096d8:	00002025 	move	a0,zero
  4096dc:	24070008 	li	a3,8
  4096e0:	02403025 	move	a2,s2
  4096e4:	001028c0 	sll	a1,s0,0x3
  4096e8:	0c102948 	jal	40a520 <ide_read>
  4096ec:	00002025 	move	a0,zero
  4096f0:	56200001 	bnezl	s1,4096f8 <read_block+0xf4>
  4096f4:	ae320000 	sw	s2,0(s1)
  4096f8:	00001025 	move	v0,zero
  4096fc:	8fbf0024 	lw	ra,36(sp)
  409700:	8fb30020 	lw	s3,32(sp)
  409704:	8fb2001c 	lw	s2,28(sp)
  409708:	8fb10018 	lw	s1,24(sp)
  40970c:	8fb00014 	lw	s0,20(sp)
  409710:	03e00008 	jr	ra
  409714:	27bd0028 	addiu	sp,sp,40

00409718 <free_block>:
  409718:	27bdffe8 	addiu	sp,sp,-24
  40971c:	10800015 	beqz	a0,409774 <free_block+0x5c>
  409720:	afbf0014 	sw	ra,20(sp)
  409724:	3c020042 	lui	v0,0x42
  409728:	8c425e0c 	lw	v0,24076(v0)
  40972c:	50400017 	beqzl	v0,40978c <free_block+0x74>
  409730:	3c040042 	lui	a0,0x42
  409734:	8c420004 	lw	v0,4(v0)
  409738:	0082102b 	sltu	v0,a0,v0
  40973c:	10400012 	beqz	v0,409788 <free_block+0x70>
  409740:	00041142 	srl	v0,a0,0x5
  409744:	00021880 	sll	v1,v0,0x2
  409748:	3c020042 	lui	v0,0x42
  40974c:	8c425e08 	lw	v0,24072(v0)
  409750:	00431021 	addu	v0,v0,v1
  409754:	24030001 	li	v1,1
  409758:	00831804 	sllv	v1,v1,a0
  40975c:	8c440000 	lw	a0,0(v0)
  409760:	00832025 	or	a0,a0,v1
  409764:	ac440000 	sw	a0,0(v0)
  409768:	8fbf0014 	lw	ra,20(sp)
  40976c:	03e00008 	jr	ra
  409770:	27bd0018 	addiu	sp,sp,24
  409774:	3c040042 	lui	a0,0x42
  409778:	0c100042 	jal	400108 <writef>
  40977c:	2484d348 	addiu	a0,a0,-11448
  409780:	1000fffa 	b	40976c <free_block+0x54>
  409784:	8fbf0014 	lw	ra,20(sp)
  409788:	3c040042 	lui	a0,0x42
  40978c:	0c100042 	jal	400108 <writef>
  409790:	2484d360 	addiu	a0,a0,-11424
  409794:	1000fff5 	b	40976c <free_block+0x54>
  409798:	8fbf0014 	lw	ra,20(sp)

0040979c <alloc_block_num>:
  40979c:	27bdffe8 	addiu	sp,sp,-24
  4097a0:	afbf0014 	sw	ra,20(sp)
  4097a4:	afb00010 	sw	s0,16(sp)
  4097a8:	3c020042 	lui	v0,0x42
  4097ac:	8c425e0c 	lw	v0,24076(v0)
  4097b0:	8c460004 	lw	a2,4(v0)
  4097b4:	2cc20004 	sltiu	v0,a2,4
  4097b8:	14400027 	bnez	v0,409858 <alloc_block_num+0xbc>
  4097bc:	3c020042 	lui	v0,0x42
  4097c0:	8c475e08 	lw	a3,24072(v0)
  4097c4:	8ce40000 	lw	a0,0(a3)
  4097c8:	30820008 	andi	v0,a0,0x8
  4097cc:	24100003 	li	s0,3
  4097d0:	1440001b 	bnez	v0,409840 <alloc_block_num+0xa4>
  4097d4:	24080001 	li	t0,1
  4097d8:	26100001 	addiu	s0,s0,1
  4097dc:	1206001c 	beq	s0,a2,409850 <alloc_block_num+0xb4>
  4097e0:	2602001f 	addiu	v0,s0,31
  4097e4:	2a030000 	slti	v1,s0,0
  4097e8:	0203100a 	movz	v0,s0,v1
  4097ec:	00021143 	sra	v0,v0,0x5
  4097f0:	00021080 	sll	v0,v0,0x2
  4097f4:	00e21021 	addu	v0,a3,v0
  4097f8:	8c440000 	lw	a0,0(v0)
  4097fc:	02081804 	sllv	v1,t0,s0
  409800:	00642824 	and	a1,v1,a0
  409804:	50a0fff5 	beqzl	a1,4097dc <alloc_block_num+0x40>
  409808:	26100001 	addiu	s0,s0,1
  40980c:	00031827 	nor	v1,zero,v1
  409810:	00641824 	and	v1,v1,a0
  409814:	ac430000 	sw	v1,0(v0)
  409818:	26047fff 	addiu	a0,s0,32767
  40981c:	2a020000 	slti	v0,s0,0
  409820:	0202200a 	movz	a0,s0,v0
  409824:	0c102521 	jal	409484 <write_block>
  409828:	000423c3 	sra	a0,a0,0xf
  40982c:	02001025 	move	v0,s0
  409830:	8fbf0014 	lw	ra,20(sp)
  409834:	8fb00010 	lw	s0,16(sp)
  409838:	03e00008 	jr	ra
  40983c:	27bd0018 	addiu	sp,sp,24
  409840:	00e01025 	move	v0,a3
  409844:	24030008 	li	v1,8
  409848:	1000fff0 	b	40980c <alloc_block_num+0x70>
  40984c:	24100003 	li	s0,3
  409850:	1000fff6 	b	40982c <alloc_block_num+0x90>
  409854:	2410fff9 	li	s0,-7
  409858:	1000fff4 	b	40982c <alloc_block_num+0x90>
  40985c:	2410fff9 	li	s0,-7

00409860 <alloc_block>:
  409860:	27bdffe0 	addiu	sp,sp,-32
  409864:	afbf001c 	sw	ra,28(sp)
  409868:	afb10018 	sw	s1,24(sp)
  40986c:	0c1025e7 	jal	40979c <alloc_block_num>
  409870:	afb00014 	sw	s0,20(sp)
  409874:	04400005 	bltz	v0,40988c <alloc_block+0x2c>
  409878:	00408025 	move	s0,v0
  40987c:	0c10250d 	jal	409434 <map_block>
  409880:	00402025 	move	a0,v0
  409884:	04400007 	bltz	v0,4098a4 <alloc_block+0x44>
  409888:	00408825 	move	s1,v0
  40988c:	02001025 	move	v0,s0
  409890:	8fbf001c 	lw	ra,28(sp)
  409894:	8fb10018 	lw	s1,24(sp)
  409898:	8fb00014 	lw	s0,20(sp)
  40989c:	03e00008 	jr	ra
  4098a0:	27bd0020 	addiu	sp,sp,32
  4098a4:	0c1025c6 	jal	409718 <free_block>
  4098a8:	02002025 	move	a0,s0
  4098ac:	1000fff7 	b	40988c <alloc_block+0x2c>
  4098b0:	02208025 	move	s0,s1

004098b4 <read_super>:
  4098b4:	27bdffd8 	addiu	sp,sp,-40
  4098b8:	afbf0024 	sw	ra,36(sp)
  4098bc:	00003025 	move	a2,zero
  4098c0:	27a50018 	addiu	a1,sp,24
  4098c4:	0c102581 	jal	409604 <read_block>
  4098c8:	24040001 	li	a0,1
  4098cc:	04400014 	bltz	v0,409920 <read_super+0x6c>
  4098d0:	3c030042 	lui	v1,0x42
  4098d4:	8fa20018 	lw	v0,24(sp)
  4098d8:	ac625e0c 	sw	v0,24076(v1)
  4098dc:	8c470000 	lw	a3,0(v0)
  4098e0:	3c036828 	lui	v1,0x6828
  4098e4:	24636097 	addiu	v1,v1,24727
  4098e8:	54e30014 	bnel	a3,v1,40993c <read_super+0x88>
  4098ec:	afa30010 	sw	v1,16(sp)
  4098f0:	8c420004 	lw	v0,4(v0)
  4098f4:	3c03000c 	lui	v1,0xc
  4098f8:	24630001 	addiu	v1,v1,1
  4098fc:	0043102b 	sltu	v0,v0,v1
  409900:	10400014 	beqz	v0,409954 <read_super+0xa0>
  409904:	3c060042 	lui	a2,0x42
  409908:	3c040042 	lui	a0,0x42
  40990c:	0c100042 	jal	400108 <writef>
  409910:	2484d3d4 	addiu	a0,a0,-11308
  409914:	8fbf0024 	lw	ra,36(sp)
  409918:	03e00008 	jr	ra
  40991c:	27bd0028 	addiu	sp,sp,40
  409920:	00403825 	move	a3,v0
  409924:	3c060042 	lui	a2,0x42
  409928:	24c6d378 	addiu	a2,a2,-11400
  40992c:	24050118 	li	a1,280
  409930:	3c040042 	lui	a0,0x42
  409934:	0c100051 	jal	400144 <_user_panic>
  409938:	2484d2a0 	addiu	a0,a0,-11616
  40993c:	3c060042 	lui	a2,0x42
  409940:	24c6d394 	addiu	a2,a2,-11372
  409944:	2405011f 	li	a1,287
  409948:	3c040042 	lui	a0,0x42
  40994c:	0c100051 	jal	400144 <_user_panic>
  409950:	2484d2a0 	addiu	a0,a0,-11616
  409954:	24c6d3b8 	addiu	a2,a2,-11336
  409958:	24050124 	li	a1,292
  40995c:	3c040042 	lui	a0,0x42
  409960:	0c100051 	jal	400144 <_user_panic>
  409964:	2484d2a0 	addiu	a0,a0,-11616

00409968 <read_bitmap>:
  409968:	27bdffe0 	addiu	sp,sp,-32
  40996c:	afbf001c 	sw	ra,28(sp)
  409970:	afb20018 	sw	s2,24(sp)
  409974:	afb10014 	sw	s1,20(sp)
  409978:	afb00010 	sw	s0,16(sp)
  40997c:	3c020042 	lui	v0,0x42
  409980:	8c425e0c 	lw	v0,24076(v0)
  409984:	8c510004 	lw	s1,4(v0)
  409988:	00118bc2 	srl	s1,s1,0xf
  40998c:	26310001 	addiu	s1,s1,1
  409990:	3c020042 	lui	v0,0x42
  409994:	1220000c 	beqz	s1,4099c8 <read_bitmap+0x60>
  409998:	ac515e10 	sw	s1,24080(v0)
  40999c:	00008025 	move	s0,zero
  4099a0:	00409025 	move	s2,v0
  4099a4:	00003025 	move	a2,zero
  4099a8:	00002825 	move	a1,zero
  4099ac:	0c102581 	jal	409604 <read_block>
  4099b0:	26040002 	addiu	a0,s0,2
  4099b4:	26100001 	addiu	s0,s0,1
  4099b8:	8e515e10 	lw	s1,24080(s2)
  4099bc:	0211102b 	sltu	v0,s0,s1
  4099c0:	1440fff9 	bnez	v0,4099a8 <read_bitmap+0x40>
  4099c4:	00003025 	move	a2,zero
  4099c8:	0c1024c1 	jal	409304 <diskaddr>
  4099cc:	24040002 	li	a0,2
  4099d0:	3c030042 	lui	v1,0x42
  4099d4:	ac625e08 	sw	v0,24072(v1)
  4099d8:	0c10256c 	jal	4095b0 <block_is_free>
  4099dc:	00002025 	move	a0,zero
  4099e0:	14400016 	bnez	v0,409a3c <read_bitmap+0xd4>
  4099e4:	3c070042 	lui	a3,0x42
  4099e8:	0c10256c 	jal	4095b0 <block_is_free>
  4099ec:	24040001 	li	a0,1
  4099f0:	14400019 	bnez	v0,409a58 <read_bitmap+0xf0>
  4099f4:	26320002 	addiu	s2,s1,2
  4099f8:	12200007 	beqz	s1,409a18 <read_bitmap+0xb0>
  4099fc:	24100002 	li	s0,2
  409a00:	0c10256c 	jal	4095b0 <block_is_free>
  409a04:	02002025 	move	a0,s0
  409a08:	1440001b 	bnez	v0,409a78 <read_bitmap+0x110>
  409a0c:	26100001 	addiu	s0,s0,1
  409a10:	1650fffb 	bne	s2,s0,409a00 <read_bitmap+0x98>
  409a14:	00000000 	nop
  409a18:	3c040042 	lui	a0,0x42
  409a1c:	0c100042 	jal	400108 <writef>
  409a20:	2484d428 	addiu	a0,a0,-11224
  409a24:	8fbf001c 	lw	ra,28(sp)
  409a28:	8fb20018 	lw	s2,24(sp)
  409a2c:	8fb10014 	lw	s1,20(sp)
  409a30:	8fb00010 	lw	s0,16(sp)
  409a34:	03e00008 	jr	ra
  409a38:	27bd0020 	addiu	sp,sp,32
  409a3c:	24e7d3e8 	addiu	a3,a3,-11288
  409a40:	3c060042 	lui	a2,0x42
  409a44:	24c6c1fc 	addiu	a2,a2,-15876
  409a48:	24050142 	li	a1,322
  409a4c:	3c040042 	lui	a0,0x42
  409a50:	0c100051 	jal	400144 <_user_panic>
  409a54:	2484d2a0 	addiu	a0,a0,-11616
  409a58:	3c070042 	lui	a3,0x42
  409a5c:	24e7d3fc 	addiu	a3,a3,-11268
  409a60:	3c060042 	lui	a2,0x42
  409a64:	24c6c1fc 	addiu	a2,a2,-15876
  409a68:	24050143 	li	a1,323
  409a6c:	3c040042 	lui	a0,0x42
  409a70:	0c100051 	jal	400144 <_user_panic>
  409a74:	2484d2a0 	addiu	a0,a0,-11616
  409a78:	3c070042 	lui	a3,0x42
  409a7c:	24e7d410 	addiu	a3,a3,-11248
  409a80:	3c060042 	lui	a2,0x42
  409a84:	24c6c1fc 	addiu	a2,a2,-15876
  409a88:	24050147 	li	a1,327
  409a8c:	3c040042 	lui	a0,0x42
  409a90:	0c100051 	jal	400144 <_user_panic>
  409a94:	2484d2a0 	addiu	a0,a0,-11616

00409a98 <check_write_block>:
  409a98:	27bdffe8 	addiu	sp,sp,-24
  409a9c:	afbf0014 	sw	ra,20(sp)
  409aa0:	afb00010 	sw	s0,16(sp)
  409aa4:	3c020042 	lui	v0,0x42
  409aa8:	ac405e0c 	sw	zero,24076(v0)
  409aac:	00003025 	move	a2,zero
  409ab0:	00002825 	move	a1,zero
  409ab4:	0c102581 	jal	409604 <read_block>
  409ab8:	00002025 	move	a0,zero
  409abc:	0c1024c1 	jal	409304 <diskaddr>
  409ac0:	24040001 	li	a0,1
  409ac4:	00408025 	move	s0,v0
  409ac8:	0c1024c1 	jal	409304 <diskaddr>
  409acc:	00002025 	move	a0,zero
  409ad0:	24061000 	li	a2,4096
  409ad4:	00402825 	move	a1,v0
  409ad8:	0c1002af 	jal	400abc <user_bcopy>
  409adc:	02002025 	move	a0,s0
  409ae0:	0c1024c1 	jal	409304 <diskaddr>
  409ae4:	24040001 	li	a0,1
  409ae8:	3c030042 	lui	v1,0x42
  409aec:	8c64d440 	lw	a0,-11200(v1)
  409af0:	a8440003 	swl	a0,3(v0)
  409af4:	b8440000 	swr	a0,0(v0)
  409af8:	2463d440 	addiu	v1,v1,-11200
  409afc:	90640004 	lbu	a0,4(v1)
  409b00:	a0440004 	sb	a0,4(v0)
  409b04:	90640005 	lbu	a0,5(v1)
  409b08:	a0440005 	sb	a0,5(v0)
  409b0c:	90630006 	lbu	v1,6(v1)
  409b10:	a0430006 	sb	v1,6(v0)
  409b14:	0c102521 	jal	409484 <write_block>
  409b18:	24040001 	li	a0,1
  409b1c:	0c1024e6 	jal	409398 <block_is_mapped>
  409b20:	24040001 	li	a0,1
  409b24:	10400026 	beqz	v0,409bc0 <check_write_block+0x128>
  409b28:	3c070042 	lui	a3,0x42
  409b2c:	0c1024c1 	jal	409304 <diskaddr>
  409b30:	24040001 	li	a0,1
  409b34:	00402825 	move	a1,v0
  409b38:	0c100431 	jal	4010c4 <syscall_mem_unmap>
  409b3c:	00002025 	move	a0,zero
  409b40:	0c1024e6 	jal	409398 <block_is_mapped>
  409b44:	24040001 	li	a0,1
  409b48:	14400024 	bnez	v0,409bdc <check_write_block+0x144>
  409b4c:	00003025 	move	a2,zero
  409b50:	00002825 	move	a1,zero
  409b54:	0c102581 	jal	409604 <read_block>
  409b58:	24040001 	li	a0,1
  409b5c:	0c1024c1 	jal	409304 <diskaddr>
  409b60:	24040001 	li	a0,1
  409b64:	00408025 	move	s0,v0
  409b68:	3c050042 	lui	a1,0x42
  409b6c:	24a5d440 	addiu	a1,a1,-11200
  409b70:	0c101347 	jal	404d1c <strcmp>
  409b74:	00402025 	move	a0,v0
  409b78:	14400020 	bnez	v0,409bfc <check_write_block+0x164>
  409b7c:	3c070042 	lui	a3,0x42
  409b80:	0c1024c1 	jal	409304 <diskaddr>
  409b84:	00002025 	move	a0,zero
  409b88:	24061000 	li	a2,4096
  409b8c:	02002825 	move	a1,s0
  409b90:	0c1002af 	jal	400abc <user_bcopy>
  409b94:	00402025 	move	a0,v0
  409b98:	0c102521 	jal	409484 <write_block>
  409b9c:	24040001 	li	a0,1
  409ba0:	0c1024c1 	jal	409304 <diskaddr>
  409ba4:	24040001 	li	a0,1
  409ba8:	3c030042 	lui	v1,0x42
  409bac:	ac625e0c 	sw	v0,24076(v1)
  409bb0:	8fbf0014 	lw	ra,20(sp)
  409bb4:	8fb00010 	lw	s0,16(sp)
  409bb8:	03e00008 	jr	ra
  409bbc:	27bd0018 	addiu	sp,sp,24
  409bc0:	24e7d448 	addiu	a3,a3,-11192
  409bc4:	3c060042 	lui	a2,0x42
  409bc8:	24c6c1fc 	addiu	a2,a2,-15876
  409bcc:	2405015c 	li	a1,348
  409bd0:	3c040042 	lui	a0,0x42
  409bd4:	0c100051 	jal	400144 <_user_panic>
  409bd8:	2484d2a0 	addiu	a0,a0,-11616
  409bdc:	3c070042 	lui	a3,0x42
  409be0:	24e7d45c 	addiu	a3,a3,-11172
  409be4:	3c060042 	lui	a2,0x42
  409be8:	24c6c1fc 	addiu	a2,a2,-15876
  409bec:	24050160 	li	a1,352
  409bf0:	3c040042 	lui	a0,0x42
  409bf4:	0c100051 	jal	400144 <_user_panic>
  409bf8:	2484d2a0 	addiu	a0,a0,-11616
  409bfc:	24e7d470 	addiu	a3,a3,-11152
  409c00:	3c060042 	lui	a2,0x42
  409c04:	24c6c1fc 	addiu	a2,a2,-15876
  409c08:	24050164 	li	a1,356
  409c0c:	3c040042 	lui	a0,0x42
  409c10:	0c100051 	jal	400144 <_user_panic>
  409c14:	2484d2a0 	addiu	a0,a0,-11616

00409c18 <fs_init>:
  409c18:	27bdffe8 	addiu	sp,sp,-24
  409c1c:	afbf0014 	sw	ra,20(sp)
  409c20:	0c10262d 	jal	4098b4 <read_super>
  409c24:	00000000 	nop
  409c28:	0c1026a6 	jal	409a98 <check_write_block>
  409c2c:	00000000 	nop
  409c30:	0c10265a 	jal	409968 <read_bitmap>
  409c34:	00000000 	nop
  409c38:	8fbf0014 	lw	ra,20(sp)
  409c3c:	03e00008 	jr	ra
  409c40:	27bd0018 	addiu	sp,sp,24

00409c44 <file_block_walk>:
  409c44:	27bdffd8 	addiu	sp,sp,-40
  409c48:	afbf0024 	sw	ra,36(sp)
  409c4c:	afb20020 	sw	s2,32(sp)
  409c50:	afb1001c 	sw	s1,28(sp)
  409c54:	afb00018 	sw	s0,24(sp)
  409c58:	00808825 	move	s1,a0
  409c5c:	00a08025 	move	s0,a1
  409c60:	2ca2000a 	sltiu	v0,a1,10
  409c64:	1040000c 	beqz	v0,409c98 <file_block_walk+0x54>
  409c68:	00c09025 	move	s2,a2
  409c6c:	24b00022 	addiu	s0,a1,34
  409c70:	00108080 	sll	s0,s0,0x2
  409c74:	00908021 	addu	s0,a0,s0
  409c78:	ae500000 	sw	s0,0(s2)
  409c7c:	00001025 	move	v0,zero
  409c80:	8fbf0024 	lw	ra,36(sp)
  409c84:	8fb20020 	lw	s2,32(sp)
  409c88:	8fb1001c 	lw	s1,28(sp)
  409c8c:	8fb00018 	lw	s0,24(sp)
  409c90:	03e00008 	jr	ra
  409c94:	27bd0028 	addiu	sp,sp,40
  409c98:	2ca20400 	sltiu	v0,a1,1024
  409c9c:	1040fff8 	beqz	v0,409c80 <file_block_walk+0x3c>
  409ca0:	2402fffd 	li	v0,-3
  409ca4:	8c8200b0 	lw	v0,176(a0)
  409ca8:	14400009 	bnez	v0,409cd0 <file_block_walk+0x8c>
  409cac:	00003025 	move	a2,zero
  409cb0:	10e0fff3 	beqz	a3,409c80 <file_block_walk+0x3c>
  409cb4:	2402fff7 	li	v0,-9
  409cb8:	0c102618 	jal	409860 <alloc_block>
  409cbc:	00000000 	nop
  409cc0:	0440fff0 	bltz	v0,409c84 <file_block_walk+0x40>
  409cc4:	8fbf0024 	lw	ra,36(sp)
  409cc8:	ae2200b0 	sw	v0,176(s1)
  409ccc:	00003025 	move	a2,zero
  409cd0:	27a50010 	addiu	a1,sp,16
  409cd4:	0c102581 	jal	409604 <read_block>
  409cd8:	8e2400b0 	lw	a0,176(s1)
  409cdc:	0440ffe8 	bltz	v0,409c80 <file_block_walk+0x3c>
  409ce0:	00108080 	sll	s0,s0,0x2
  409ce4:	8fb10010 	lw	s1,16(sp)
  409ce8:	1000ffe3 	b	409c78 <file_block_walk+0x34>
  409cec:	02308021 	addu	s0,s1,s0
  409cf0:	1000ffe3 	b	409c80 <file_block_walk+0x3c>
  409cf4:	2402fff7 	li	v0,-9

00409cf8 <file_map_block>:
  409cf8:	27bdffd8 	addiu	sp,sp,-40
  409cfc:	afbf0024 	sw	ra,36(sp)
  409d00:	afb10020 	sw	s1,32(sp)
  409d04:	afb0001c 	sw	s0,28(sp)
  409d08:	00c08025 	move	s0,a2
  409d0c:	00e08825 	move	s1,a3
  409d10:	0c102711 	jal	409c44 <file_block_walk>
  409d14:	27a60010 	addiu	a2,sp,16
  409d18:	04400011 	bltz	v0,409d60 <file_map_block+0x68>
  409d1c:	8fbf0024 	lw	ra,36(sp)
  409d20:	8fa20010 	lw	v0,16(sp)
  409d24:	8c420000 	lw	v0,0(v0)
  409d28:	54400009 	bnezl	v0,409d50 <file_map_block+0x58>
  409d2c:	8fa20010 	lw	v0,16(sp)
  409d30:	1220000b 	beqz	s1,409d60 <file_map_block+0x68>
  409d34:	2402fff7 	li	v0,-9
  409d38:	0c102618 	jal	409860 <alloc_block>
  409d3c:	00000000 	nop
  409d40:	04400006 	bltz	v0,409d5c <file_map_block+0x64>
  409d44:	8fa30010 	lw	v1,16(sp)
  409d48:	ac620000 	sw	v0,0(v1)
  409d4c:	8fa20010 	lw	v0,16(sp)
  409d50:	8c420000 	lw	v0,0(v0)
  409d54:	ae020000 	sw	v0,0(s0)
  409d58:	00001025 	move	v0,zero
  409d5c:	8fbf0024 	lw	ra,36(sp)
  409d60:	8fb10020 	lw	s1,32(sp)
  409d64:	8fb0001c 	lw	s0,28(sp)
  409d68:	03e00008 	jr	ra
  409d6c:	27bd0028 	addiu	sp,sp,40

00409d70 <file_clear_block>:
  409d70:	27bdffe0 	addiu	sp,sp,-32
  409d74:	afbf001c 	sw	ra,28(sp)
  409d78:	00003825 	move	a3,zero
  409d7c:	0c102711 	jal	409c44 <file_block_walk>
  409d80:	27a60010 	addiu	a2,sp,16
  409d84:	04400006 	bltz	v0,409da0 <file_clear_block+0x30>
  409d88:	8fbf001c 	lw	ra,28(sp)
  409d8c:	8fa20010 	lw	v0,16(sp)
  409d90:	8c440000 	lw	a0,0(v0)
  409d94:	14800004 	bnez	a0,409da8 <file_clear_block+0x38>
  409d98:	00001025 	move	v0,zero
  409d9c:	8fbf001c 	lw	ra,28(sp)
  409da0:	03e00008 	jr	ra
  409da4:	27bd0020 	addiu	sp,sp,32
  409da8:	0c1025c6 	jal	409718 <free_block>
  409dac:	00000000 	nop
  409db0:	8fa20010 	lw	v0,16(sp)
  409db4:	ac400000 	sw	zero,0(v0)
  409db8:	1000fff8 	b	409d9c <file_clear_block+0x2c>
  409dbc:	00001025 	move	v0,zero

00409dc0 <file_get_block>:
  409dc0:	27bdffe0 	addiu	sp,sp,-32
  409dc4:	afbf001c 	sw	ra,28(sp)
  409dc8:	afb00018 	sw	s0,24(sp)
  409dcc:	00c08025 	move	s0,a2
  409dd0:	24070001 	li	a3,1
  409dd4:	0c10273e 	jal	409cf8 <file_map_block>
  409dd8:	27a60010 	addiu	a2,sp,16
  409ddc:	04400006 	bltz	v0,409df8 <file_get_block+0x38>
  409de0:	27a60014 	addiu	a2,sp,20
  409de4:	02002825 	move	a1,s0
  409de8:	0c102581 	jal	409604 <read_block>
  409dec:	8fa40010 	lw	a0,16(sp)
  409df0:	28430001 	slti	v1,v0,1
  409df4:	0003100a 	movz	v0,zero,v1
  409df8:	8fbf001c 	lw	ra,28(sp)
  409dfc:	8fb00018 	lw	s0,24(sp)
  409e00:	03e00008 	jr	ra
  409e04:	27bd0020 	addiu	sp,sp,32

00409e08 <file_dirty>:
  409e08:	27bdffe0 	addiu	sp,sp,-32
  409e0c:	afbf001c 	sw	ra,28(sp)
  409e10:	27a60010 	addiu	a2,sp,16
  409e14:	0c102770 	jal	409dc0 <file_get_block>
  409e18:	00052b02 	srl	a1,a1,0xc
  409e1c:	04400005 	bltz	v0,409e34 <file_dirty+0x2c>
  409e20:	8fa30010 	lw	v1,16(sp)
  409e24:	90620000 	lbu	v0,0(v1)
  409e28:	304200ff 	andi	v0,v0,0xff
  409e2c:	a0620000 	sb	v0,0(v1)
  409e30:	00001025 	move	v0,zero
  409e34:	8fbf001c 	lw	ra,28(sp)
  409e38:	03e00008 	jr	ra
  409e3c:	27bd0020 	addiu	sp,sp,32

00409e40 <dir_lookup>:
  409e40:	27bdffc0 	addiu	sp,sp,-64
  409e44:	afbf003c 	sw	ra,60(sp)
  409e48:	afb70038 	sw	s7,56(sp)
  409e4c:	afb60034 	sw	s6,52(sp)
  409e50:	afb50030 	sw	s5,48(sp)
  409e54:	afb4002c 	sw	s4,44(sp)
  409e58:	afb30028 	sw	s3,40(sp)
  409e5c:	afb20024 	sw	s2,36(sp)
  409e60:	afb10020 	sw	s1,32(sp)
  409e64:	afb0001c 	sw	s0,28(sp)
  409e68:	8c950080 	lw	s5,128(a0)
  409e6c:	0015ab02 	srl	s5,s5,0xc
  409e70:	12a00029 	beqz	s5,409f18 <dir_lookup+0xd8>
  409e74:	00c0b025 	move	s6,a2
  409e78:	00a08825 	move	s1,a1
  409e7c:	0080a025 	move	s4,a0
  409e80:	10000014 	b	409ed4 <dir_lookup+0x94>
  409e84:	0000b825 	move	s7,zero
  409e88:	3c040042 	lui	a0,0x42
  409e8c:	0c100042 	jal	400108 <writef>
  409e90:	2484d49c 	addiu	a0,a0,-11108
  409e94:	10000002 	b	409ea0 <dir_lookup+0x60>
  409e98:	2402fffd 	li	v0,-3
  409e9c:	ae1400b4 	sw	s4,180(s0)
  409ea0:	8fbf003c 	lw	ra,60(sp)
  409ea4:	8fb70038 	lw	s7,56(sp)
  409ea8:	8fb60034 	lw	s6,52(sp)
  409eac:	8fb50030 	lw	s5,48(sp)
  409eb0:	8fb4002c 	lw	s4,44(sp)
  409eb4:	8fb30028 	lw	s3,40(sp)
  409eb8:	8fb20024 	lw	s2,36(sp)
  409ebc:	8fb10020 	lw	s1,32(sp)
  409ec0:	8fb0001c 	lw	s0,28(sp)
  409ec4:	03e00008 	jr	ra
  409ec8:	27bd0040 	addiu	sp,sp,64
  409ecc:	12b7fff4 	beq	s5,s7,409ea0 <dir_lookup+0x60>
  409ed0:	2402fff7 	li	v0,-9
  409ed4:	27a60010 	addiu	a2,sp,16
  409ed8:	02e02825 	move	a1,s7
  409edc:	0c102770 	jal	409dc0 <file_get_block>
  409ee0:	02802025 	move	a0,s4
  409ee4:	0440ffe8 	bltz	v0,409e88 <dir_lookup+0x48>
  409ee8:	8fb00010 	lw	s0,16(sp)
  409eec:	26131000 	addiu	s3,s0,4096
  409ef0:	02202825 	move	a1,s1
  409ef4:	0c101347 	jal	404d1c <strcmp>
  409ef8:	02002025 	move	a0,s0
  409efc:	5040ffe7 	beqzl	v0,409e9c <dir_lookup+0x5c>
  409f00:	aed00000 	sw	s0,0(s6)
  409f04:	26100100 	addiu	s0,s0,256
  409f08:	1613fffa 	bne	s0,s3,409ef4 <dir_lookup+0xb4>
  409f0c:	02202825 	move	a1,s1
  409f10:	1000ffee 	b	409ecc <dir_lookup+0x8c>
  409f14:	26f70001 	addiu	s7,s7,1
  409f18:	1000ffe1 	b	409ea0 <dir_lookup+0x60>
  409f1c:	2402fff7 	li	v0,-9

00409f20 <dir_alloc_file>:
  409f20:	27bdffd0 	addiu	sp,sp,-48
  409f24:	afbf002c 	sw	ra,44(sp)
  409f28:	afb30028 	sw	s3,40(sp)
  409f2c:	afb20024 	sw	s2,36(sp)
  409f30:	afb10020 	sw	s1,32(sp)
  409f34:	afb0001c 	sw	s0,28(sp)
  409f38:	00809025 	move	s2,a0
  409f3c:	8c910080 	lw	s1,128(a0)
  409f40:	00118b02 	srl	s1,s1,0xc
  409f44:	12200020 	beqz	s1,409fc8 <dir_alloc_file+0xa8>
  409f48:	00a09825 	move	s3,a1
  409f4c:	1000000c 	b	409f80 <dir_alloc_file+0x60>
  409f50:	00008025 	move	s0,zero
  409f54:	ae640000 	sw	a0,0(s3)
  409f58:	00001025 	move	v0,zero
  409f5c:	8fbf002c 	lw	ra,44(sp)
  409f60:	8fb30028 	lw	s3,40(sp)
  409f64:	8fb20024 	lw	s2,36(sp)
  409f68:	8fb10020 	lw	s1,32(sp)
  409f6c:	8fb0001c 	lw	s0,28(sp)
  409f70:	03e00008 	jr	ra
  409f74:	27bd0030 	addiu	sp,sp,48
  409f78:	52300015 	beql	s1,s0,409fd0 <dir_alloc_file+0xb0>
  409f7c:	8e420080 	lw	v0,128(s2)
  409f80:	27a60010 	addiu	a2,sp,16
  409f84:	02002825 	move	a1,s0
  409f88:	0c102770 	jal	409dc0 <file_get_block>
  409f8c:	02402025 	move	a0,s2
  409f90:	0440fff2 	bltz	v0,409f5c <dir_alloc_file+0x3c>
  409f94:	8fa40010 	lw	a0,16(sp)
  409f98:	90820000 	lbu	v0,0(a0)
  409f9c:	1040ffed 	beqz	v0,409f54 <dir_alloc_file+0x34>
  409fa0:	24820100 	addiu	v0,a0,256
  409fa4:	24851000 	addiu	a1,a0,4096
  409fa8:	90430000 	lbu	v1,0(v0)
  409fac:	1060ffe9 	beqz	v1,409f54 <dir_alloc_file+0x34>
  409fb0:	00402025 	move	a0,v0
  409fb4:	24420100 	addiu	v0,v0,256
  409fb8:	5445fffc 	bnel	v0,a1,409fac <dir_alloc_file+0x8c>
  409fbc:	90430000 	lbu	v1,0(v0)
  409fc0:	1000ffed 	b	409f78 <dir_alloc_file+0x58>
  409fc4:	26100001 	addiu	s0,s0,1
  409fc8:	02208025 	move	s0,s1
  409fcc:	8e420080 	lw	v0,128(s2)
  409fd0:	24421000 	addiu	v0,v0,4096
  409fd4:	ae420080 	sw	v0,128(s2)
  409fd8:	27a60010 	addiu	a2,sp,16
  409fdc:	02002825 	move	a1,s0
  409fe0:	0c102770 	jal	409dc0 <file_get_block>
  409fe4:	02402025 	move	a0,s2
  409fe8:	0440ffdd 	bltz	v0,409f60 <dir_alloc_file+0x40>
  409fec:	8fbf002c 	lw	ra,44(sp)
  409ff0:	8fa20010 	lw	v0,16(sp)
  409ff4:	ae620000 	sw	v0,0(s3)
  409ff8:	1000ffd8 	b	409f5c <dir_alloc_file+0x3c>
  409ffc:	00001025 	move	v0,zero

0040a000 <skip_slash>:
  40a000:	00801025 	move	v0,a0
  40a004:	90840000 	lbu	a0,0(a0)
  40a008:	2403002f 	li	v1,47
  40a00c:	14830006 	bne	a0,v1,40a028 <skip_slash+0x28>
  40a010:	00000000 	nop
  40a014:	2404002f 	li	a0,47
  40a018:	24420001 	addiu	v0,v0,1
  40a01c:	90430000 	lbu	v1,0(v0)
  40a020:	5064fffe 	beql	v1,a0,40a01c <skip_slash+0x1c>
  40a024:	24420001 	addiu	v0,v0,1
  40a028:	03e00008 	jr	ra
  40a02c:	00000000 	nop

0040a030 <walk_path>:
  40a030:	27bdff40 	addiu	sp,sp,-192
  40a034:	afbf00bc 	sw	ra,188(sp)
  40a038:	afbe00b8 	sw	s8,184(sp)
  40a03c:	afb700b4 	sw	s7,180(sp)
  40a040:	afb600b0 	sw	s6,176(sp)
  40a044:	afb500ac 	sw	s5,172(sp)
  40a048:	afb400a8 	sw	s4,168(sp)
  40a04c:	afb300a4 	sw	s3,164(sp)
  40a050:	afb200a0 	sw	s2,160(sp)
  40a054:	afb1009c 	sw	s1,156(sp)
  40a058:	afb00098 	sw	s0,152(sp)
  40a05c:	00a0a825 	move	s5,a1
  40a060:	00c0b025 	move	s6,a2
  40a064:	0c102800 	jal	40a000 <skip_slash>
  40a068:	00e0b825 	move	s7,a3
  40a06c:	00409025 	move	s2,v0
  40a070:	3c020042 	lui	v0,0x42
  40a074:	8c425e0c 	lw	v0,24076(v0)
  40a078:	24420008 	addiu	v0,v0,8
  40a07c:	afa20090 	sw	v0,144(sp)
  40a080:	12a00002 	beqz	s5,40a08c <walk_path+0x5c>
  40a084:	a3a00010 	sb	zero,16(sp)
  40a088:	aea00000 	sw	zero,0(s5)
  40a08c:	aec00000 	sw	zero,0(s6)
  40a090:	00009825 	move	s3,zero
  40a094:	2411002f 	li	s1,47
  40a098:	10000017 	b	40a0f8 <walk_path+0xc8>
  40a09c:	24140001 	li	s4,1
  40a0a0:	02408025 	move	s0,s2
  40a0a4:	0212f023 	subu	s8,s0,s2
  40a0a8:	2bc20080 	slti	v0,s8,128
  40a0ac:	10400040 	beqz	v0,40a1b0 <walk_path+0x180>
  40a0b0:	03c03025 	move	a2,s8
  40a0b4:	27a50010 	addiu	a1,sp,16
  40a0b8:	0c1002af 	jal	400abc <user_bcopy>
  40a0bc:	02402025 	move	a0,s2
  40a0c0:	27a20010 	addiu	v0,sp,16
  40a0c4:	005ef021 	addu	s8,v0,s8
  40a0c8:	a3c00000 	sb	zero,0(s8)
  40a0cc:	0c102800 	jal	40a000 <skip_slash>
  40a0d0:	02002025 	move	a0,s0
  40a0d4:	00409025 	move	s2,v0
  40a0d8:	8e620084 	lw	v0,132(s3)
  40a0dc:	14540036 	bne	v0,s4,40a1b8 <walk_path+0x188>
  40a0e0:	27a60090 	addiu	a2,sp,144
  40a0e4:	27a50010 	addiu	a1,sp,16
  40a0e8:	0c102790 	jal	409e40 <dir_lookup>
  40a0ec:	02602025 	move	a0,s3
  40a0f0:	0440000f 	bltz	v0,40a130 <walk_path+0x100>
  40a0f4:	00408025 	move	s0,v0
  40a0f8:	92420000 	lbu	v0,0(s2)
  40a0fc:	1040001a 	beqz	v0,40a168 <walk_path+0x138>
  40a100:	00000000 	nop
  40a104:	1051ffe6 	beq	v0,s1,40a0a0 <walk_path+0x70>
  40a108:	8fb30090 	lw	s3,144(sp)
  40a10c:	02408025 	move	s0,s2
  40a110:	26100001 	addiu	s0,s0,1
  40a114:	92020000 	lbu	v0,0(s0)
  40a118:	1051ffe3 	beq	v0,s1,40a0a8 <walk_path+0x78>
  40a11c:	0212f023 	subu	s8,s0,s2
  40a120:	5440fffc 	bnezl	v0,40a114 <walk_path+0xe4>
  40a124:	26100001 	addiu	s0,s0,1
  40a128:	1000ffe0 	b	40a0ac <walk_path+0x7c>
  40a12c:	2bc20080 	slti	v0,s8,128
  40a130:	2402fff7 	li	v0,-9
  40a134:	16020012 	bne	s0,v0,40a180 <walk_path+0x150>
  40a138:	02001025 	move	v0,s0
  40a13c:	92420000 	lbu	v0,0(s2)
  40a140:	5440000f 	bnezl	v0,40a180 <walk_path+0x150>
  40a144:	02001025 	move	v0,s0
  40a148:	56a00001 	bnezl	s5,40a150 <walk_path+0x120>
  40a14c:	aeb30000 	sw	s3,0(s5)
  40a150:	12e00003 	beqz	s7,40a160 <walk_path+0x130>
  40a154:	27a50010 	addiu	a1,sp,16
  40a158:	0c10130c 	jal	404c30 <strcpy>
  40a15c:	02e02025 	move	a0,s7
  40a160:	10000006 	b	40a17c <walk_path+0x14c>
  40a164:	aec00000 	sw	zero,0(s6)
  40a168:	56a00001 	bnezl	s5,40a170 <walk_path+0x140>
  40a16c:	aeb30000 	sw	s3,0(s5)
  40a170:	8fa20090 	lw	v0,144(sp)
  40a174:	aec20000 	sw	v0,0(s6)
  40a178:	00008025 	move	s0,zero
  40a17c:	02001025 	move	v0,s0
  40a180:	8fbf00bc 	lw	ra,188(sp)
  40a184:	8fbe00b8 	lw	s8,184(sp)
  40a188:	8fb700b4 	lw	s7,180(sp)
  40a18c:	8fb600b0 	lw	s6,176(sp)
  40a190:	8fb500ac 	lw	s5,172(sp)
  40a194:	8fb400a8 	lw	s4,168(sp)
  40a198:	8fb300a4 	lw	s3,164(sp)
  40a19c:	8fb200a0 	lw	s2,160(sp)
  40a1a0:	8fb1009c 	lw	s1,156(sp)
  40a1a4:	8fb00098 	lw	s0,152(sp)
  40a1a8:	03e00008 	jr	ra
  40a1ac:	27bd00c0 	addiu	sp,sp,192
  40a1b0:	1000fff2 	b	40a17c <walk_path+0x14c>
  40a1b4:	2410fff6 	li	s0,-10
  40a1b8:	1000fff0 	b	40a17c <walk_path+0x14c>
  40a1bc:	2410fff7 	li	s0,-9

0040a1c0 <file_open>:
  40a1c0:	27bdffe8 	addiu	sp,sp,-24
  40a1c4:	afbf0014 	sw	ra,20(sp)
  40a1c8:	00003825 	move	a3,zero
  40a1cc:	00a03025 	move	a2,a1
  40a1d0:	0c10280c 	jal	40a030 <walk_path>
  40a1d4:	00002825 	move	a1,zero
  40a1d8:	8fbf0014 	lw	ra,20(sp)
  40a1dc:	03e00008 	jr	ra
  40a1e0:	27bd0018 	addiu	sp,sp,24

0040a1e4 <file_create>:
  40a1e4:	27bdff58 	addiu	sp,sp,-168
  40a1e8:	afbf00a4 	sw	ra,164(sp)
  40a1ec:	afb100a0 	sw	s1,160(sp)
  40a1f0:	afb0009c 	sw	s0,156(sp)
  40a1f4:	00a08825 	move	s1,a1
  40a1f8:	27a70010 	addiu	a3,sp,16
  40a1fc:	27a60094 	addiu	a2,sp,148
  40a200:	0c10280c 	jal	40a030 <walk_path>
  40a204:	27a50090 	addiu	a1,sp,144
  40a208:	10400005 	beqz	v0,40a220 <file_create+0x3c>
  40a20c:	2410fff5 	li	s0,-11
  40a210:	00408025 	move	s0,v0
  40a214:	2402fff7 	li	v0,-9
  40a218:	12020007 	beq	s0,v0,40a238 <file_create+0x54>
  40a21c:	8fa40090 	lw	a0,144(sp)
  40a220:	02001025 	move	v0,s0
  40a224:	8fbf00a4 	lw	ra,164(sp)
  40a228:	8fb100a0 	lw	s1,160(sp)
  40a22c:	8fb0009c 	lw	s0,156(sp)
  40a230:	03e00008 	jr	ra
  40a234:	27bd00a8 	addiu	sp,sp,168
  40a238:	1080fffa 	beqz	a0,40a224 <file_create+0x40>
  40a23c:	02001025 	move	v0,s0
  40a240:	0c1027c8 	jal	409f20 <dir_alloc_file>
  40a244:	27a50094 	addiu	a1,sp,148
  40a248:	0440fff6 	bltz	v0,40a224 <file_create+0x40>
  40a24c:	02001025 	move	v0,s0
  40a250:	27a50010 	addiu	a1,sp,16
  40a254:	0c10130c 	jal	404c30 <strcpy>
  40a258:	8fa40094 	lw	a0,148(sp)
  40a25c:	8fa20094 	lw	v0,148(sp)
  40a260:	ae220000 	sw	v0,0(s1)
  40a264:	1000ffee 	b	40a220 <file_create+0x3c>
  40a268:	00008025 	move	s0,zero

0040a26c <file_truncate>:
  40a26c:	27bdffd8 	addiu	sp,sp,-40
  40a270:	afbf0024 	sw	ra,36(sp)
  40a274:	afb30020 	sw	s3,32(sp)
  40a278:	afb2001c 	sw	s2,28(sp)
  40a27c:	afb10018 	sw	s1,24(sp)
  40a280:	afb00014 	sw	s0,20(sp)
  40a284:	00809025 	move	s2,a0
  40a288:	00a09825 	move	s3,a1
  40a28c:	8c910080 	lw	s1,128(a0)
  40a290:	00118b02 	srl	s1,s1,0xc
  40a294:	10a00011 	beqz	a1,40a2dc <file_truncate+0x70>
  40a298:	26310001 	addiu	s1,s1,1
  40a29c:	00058302 	srl	s0,a1,0xc
  40a2a0:	26100001 	addiu	s0,s0,1
  40a2a4:	2e02000b 	sltiu	v0,s0,11
  40a2a8:	1440000d 	bnez	v0,40a2e0 <file_truncate+0x74>
  40a2ac:	0211102b 	sltu	v0,s0,s1
  40a2b0:	50400016 	beqzl	v0,40a30c <file_truncate+0xa0>
  40a2b4:	ae530080 	sw	s3,128(s2)
  40a2b8:	02002825 	move	a1,s0
  40a2bc:	0c10275c 	jal	409d70 <file_clear_block>
  40a2c0:	02402025 	move	a0,s2
  40a2c4:	26100001 	addiu	s0,s0,1
  40a2c8:	0211102b 	sltu	v0,s0,s1
  40a2cc:	1440fffb 	bnez	v0,40a2bc <file_truncate+0x50>
  40a2d0:	02002825 	move	a1,s0
  40a2d4:	1000000d 	b	40a30c <file_truncate+0xa0>
  40a2d8:	ae530080 	sw	s3,128(s2)
  40a2dc:	00a08025 	move	s0,a1
  40a2e0:	0211102b 	sltu	v0,s0,s1
  40a2e4:	10400008 	beqz	v0,40a308 <file_truncate+0x9c>
  40a2e8:	ae4000b0 	sw	zero,176(s2)
  40a2ec:	02002825 	move	a1,s0
  40a2f0:	0c10275c 	jal	409d70 <file_clear_block>
  40a2f4:	02402025 	move	a0,s2
  40a2f8:	26100001 	addiu	s0,s0,1
  40a2fc:	0211102b 	sltu	v0,s0,s1
  40a300:	1440fffb 	bnez	v0,40a2f0 <file_truncate+0x84>
  40a304:	02002825 	move	a1,s0
  40a308:	ae530080 	sw	s3,128(s2)
  40a30c:	8fbf0024 	lw	ra,36(sp)
  40a310:	8fb30020 	lw	s3,32(sp)
  40a314:	8fb2001c 	lw	s2,28(sp)
  40a318:	8fb10018 	lw	s1,24(sp)
  40a31c:	8fb00014 	lw	s0,20(sp)
  40a320:	03e00008 	jr	ra
  40a324:	27bd0028 	addiu	sp,sp,40

0040a328 <file_flush>:
  40a328:	27bdffd8 	addiu	sp,sp,-40
  40a32c:	afbf0024 	sw	ra,36(sp)
  40a330:	afb20020 	sw	s2,32(sp)
  40a334:	afb1001c 	sw	s1,28(sp)
  40a338:	afb00018 	sw	s0,24(sp)
  40a33c:	00809025 	move	s2,a0
  40a340:	8c910080 	lw	s1,128(a0)
  40a344:	00118b02 	srl	s1,s1,0xc
  40a348:	26310001 	addiu	s1,s1,1
  40a34c:	10000003 	b	40a35c <file_flush+0x34>
  40a350:	00008025 	move	s0,zero
  40a354:	12300010 	beq	s1,s0,40a398 <file_flush+0x70>
  40a358:	8fbf0024 	lw	ra,36(sp)
  40a35c:	00003825 	move	a3,zero
  40a360:	27a60010 	addiu	a2,sp,16
  40a364:	02002825 	move	a1,s0
  40a368:	0c10273e 	jal	409cf8 <file_map_block>
  40a36c:	02402025 	move	a0,s2
  40a370:	0442fff8 	bltzl	v0,40a354 <file_flush+0x2c>
  40a374:	26100001 	addiu	s0,s0,1
  40a378:	0c1024fb 	jal	4093ec <block_is_dirty>
  40a37c:	8fa40010 	lw	a0,16(sp)
  40a380:	5040fff4 	beqzl	v0,40a354 <file_flush+0x2c>
  40a384:	26100001 	addiu	s0,s0,1
  40a388:	0c102521 	jal	409484 <write_block>
  40a38c:	8fa40010 	lw	a0,16(sp)
  40a390:	1000fff0 	b	40a354 <file_flush+0x2c>
  40a394:	26100001 	addiu	s0,s0,1
  40a398:	8fb20020 	lw	s2,32(sp)
  40a39c:	8fb1001c 	lw	s1,28(sp)
  40a3a0:	8fb00018 	lw	s0,24(sp)
  40a3a4:	03e00008 	jr	ra
  40a3a8:	27bd0028 	addiu	sp,sp,40

0040a3ac <file_set_size>:
  40a3ac:	27bdffe0 	addiu	sp,sp,-32
  40a3b0:	afbf001c 	sw	ra,28(sp)
  40a3b4:	afb10018 	sw	s1,24(sp)
  40a3b8:	afb00014 	sw	s0,20(sp)
  40a3bc:	00808025 	move	s0,a0
  40a3c0:	8c820080 	lw	v0,128(a0)
  40a3c4:	00a2102b 	sltu	v0,a1,v0
  40a3c8:	1440000d 	bnez	v0,40a400 <file_set_size+0x54>
  40a3cc:	00a08825 	move	s1,a1
  40a3d0:	ae110080 	sw	s1,128(s0)
  40a3d4:	8e0400b4 	lw	a0,180(s0)
  40a3d8:	10800004 	beqz	a0,40a3ec <file_set_size+0x40>
  40a3dc:	00001025 	move	v0,zero
  40a3e0:	0c1028ca 	jal	40a328 <file_flush>
  40a3e4:	00000000 	nop
  40a3e8:	00001025 	move	v0,zero
  40a3ec:	8fbf001c 	lw	ra,28(sp)
  40a3f0:	8fb10018 	lw	s1,24(sp)
  40a3f4:	8fb00014 	lw	s0,20(sp)
  40a3f8:	03e00008 	jr	ra
  40a3fc:	27bd0020 	addiu	sp,sp,32
  40a400:	0c10289b 	jal	40a26c <file_truncate>
  40a404:	00000000 	nop
  40a408:	1000fff2 	b	40a3d4 <file_set_size+0x28>
  40a40c:	ae110080 	sw	s1,128(s0)

0040a410 <fs_sync>:
  40a410:	3c020042 	lui	v0,0x42
  40a414:	8c425e0c 	lw	v0,24076(v0)
  40a418:	8c420004 	lw	v0,4(v0)
  40a41c:	10400018 	beqz	v0,40a480 <fs_sync+0x70>
  40a420:	00000000 	nop
  40a424:	27bdffe0 	addiu	sp,sp,-32
  40a428:	afbf001c 	sw	ra,28(sp)
  40a42c:	afb10018 	sw	s1,24(sp)
  40a430:	afb00014 	sw	s0,20(sp)
  40a434:	00008025 	move	s0,zero
  40a438:	10000006 	b	40a454 <fs_sync+0x44>
  40a43c:	3c110042 	lui	s1,0x42
  40a440:	8e225e0c 	lw	v0,24076(s1)
  40a444:	8c420004 	lw	v0,4(v0)
  40a448:	0202102b 	sltu	v0,s0,v0
  40a44c:	10400009 	beqz	v0,40a474 <fs_sync+0x64>
  40a450:	8fbf001c 	lw	ra,28(sp)
  40a454:	0c1024fb 	jal	4093ec <block_is_dirty>
  40a458:	02002025 	move	a0,s0
  40a45c:	5040fff8 	beqzl	v0,40a440 <fs_sync+0x30>
  40a460:	26100001 	addiu	s0,s0,1
  40a464:	0c102521 	jal	409484 <write_block>
  40a468:	02002025 	move	a0,s0
  40a46c:	1000fff4 	b	40a440 <fs_sync+0x30>
  40a470:	26100001 	addiu	s0,s0,1
  40a474:	8fb10018 	lw	s1,24(sp)
  40a478:	8fb00014 	lw	s0,20(sp)
  40a47c:	27bd0020 	addiu	sp,sp,32
  40a480:	03e00008 	jr	ra
  40a484:	00000000 	nop

0040a488 <file_close>:
  40a488:	27bdffe8 	addiu	sp,sp,-24
  40a48c:	afbf0014 	sw	ra,20(sp)
  40a490:	afb00010 	sw	s0,16(sp)
  40a494:	0c1028ca 	jal	40a328 <file_flush>
  40a498:	00808025 	move	s0,a0
  40a49c:	8e0400b4 	lw	a0,180(s0)
  40a4a0:	10800004 	beqz	a0,40a4b4 <file_close+0x2c>
  40a4a4:	8fbf0014 	lw	ra,20(sp)
  40a4a8:	0c1028ca 	jal	40a328 <file_flush>
  40a4ac:	00000000 	nop
  40a4b0:	8fbf0014 	lw	ra,20(sp)
  40a4b4:	8fb00010 	lw	s0,16(sp)
  40a4b8:	03e00008 	jr	ra
  40a4bc:	27bd0018 	addiu	sp,sp,24

0040a4c0 <file_remove>:
  40a4c0:	27bdffe0 	addiu	sp,sp,-32
  40a4c4:	afbf001c 	sw	ra,28(sp)
  40a4c8:	00003825 	move	a3,zero
  40a4cc:	27a60010 	addiu	a2,sp,16
  40a4d0:	0c10280c 	jal	40a030 <walk_path>
  40a4d4:	00002825 	move	a1,zero
  40a4d8:	0440000e 	bltz	v0,40a514 <file_remove+0x54>
  40a4dc:	00002825 	move	a1,zero
  40a4e0:	0c10289b 	jal	40a26c <file_truncate>
  40a4e4:	8fa40010 	lw	a0,16(sp)
  40a4e8:	8fa20010 	lw	v0,16(sp)
  40a4ec:	a0400000 	sb	zero,0(v0)
  40a4f0:	0c1028ca 	jal	40a328 <file_flush>
  40a4f4:	8fa40010 	lw	a0,16(sp)
  40a4f8:	8fa20010 	lw	v0,16(sp)
  40a4fc:	8c4400b4 	lw	a0,180(v0)
  40a500:	10800004 	beqz	a0,40a514 <file_remove+0x54>
  40a504:	00001025 	move	v0,zero
  40a508:	0c1028ca 	jal	40a328 <file_flush>
  40a50c:	00000000 	nop
  40a510:	00001025 	move	v0,zero
  40a514:	8fbf001c 	lw	ra,28(sp)
  40a518:	03e00008 	jr	ra
  40a51c:	27bd0020 	addiu	sp,sp,32

0040a520 <ide_read>:
  40a520:	27bdffc0 	addiu	sp,sp,-64
  40a524:	afbf003c 	sw	ra,60(sp)
  40a528:	afb50038 	sw	s5,56(sp)
  40a52c:	afb40034 	sw	s4,52(sp)
  40a530:	afb30030 	sw	s3,48(sp)
  40a534:	afb2002c 	sw	s2,44(sp)
  40a538:	afb10028 	sw	s1,40(sp)
  40a53c:	afb00024 	sw	s0,36(sp)
  40a540:	afa40040 	sw	a0,64(sp)
  40a544:	00059a40 	sll	s3,a1,0x9
  40a548:	00073a40 	sll	a3,a3,0x9
  40a54c:	00f39021 	addu	s2,a3,s3
  40a550:	afa00010 	sw	zero,16(sp)
  40a554:	a3a00014 	sb	zero,20(sp)
  40a558:	0272102a 	slt	v0,s3,s2
  40a55c:	10400021 	beqz	v0,40a5e4 <ide_read+0xc4>
  40a560:	afa00018 	sw	zero,24(sp)
  40a564:	00c0a025 	move	s4,a2
  40a568:	02608025 	move	s0,s3
  40a56c:	3c111300 	lui	s1,0x1300
  40a570:	26350010 	addiu	s5,s1,16
  40a574:	24060004 	li	a2,4
  40a578:	02a02825 	move	a1,s5
  40a57c:	0c100485 	jal	401214 <syscall_write_dev>
  40a580:	27a40040 	addiu	a0,sp,64
  40a584:	afb00018 	sw	s0,24(sp)
  40a588:	24060004 	li	a2,4
  40a58c:	02202825 	move	a1,s1
  40a590:	0c100485 	jal	401214 <syscall_write_dev>
  40a594:	27a40018 	addiu	a0,sp,24
  40a598:	24060004 	li	a2,4
  40a59c:	26250020 	addiu	a1,s1,32
  40a5a0:	0c100485 	jal	401214 <syscall_write_dev>
  40a5a4:	27a40010 	addiu	a0,sp,16
  40a5a8:	24060001 	li	a2,1
  40a5ac:	26250030 	addiu	a1,s1,48
  40a5b0:	0c100491 	jal	401244 <syscall_read_dev>
  40a5b4:	27a40014 	addiu	a0,sp,20
  40a5b8:	93a20014 	lbu	v0,20(sp)
  40a5bc:	10400012 	beqz	v0,40a608 <ide_read+0xe8>
  40a5c0:	24060200 	li	a2,512
  40a5c4:	02132023 	subu	a0,s0,s3
  40a5c8:	26254000 	addiu	a1,s1,16384
  40a5cc:	0c100491 	jal	401244 <syscall_read_dev>
  40a5d0:	02842021 	addu	a0,s4,a0
  40a5d4:	26100200 	addiu	s0,s0,512
  40a5d8:	0212102a 	slt	v0,s0,s2
  40a5dc:	1440ffe6 	bnez	v0,40a578 <ide_read+0x58>
  40a5e0:	24060004 	li	a2,4
  40a5e4:	8fbf003c 	lw	ra,60(sp)
  40a5e8:	8fb50038 	lw	s5,56(sp)
  40a5ec:	8fb40034 	lw	s4,52(sp)
  40a5f0:	8fb30030 	lw	s3,48(sp)
  40a5f4:	8fb2002c 	lw	s2,44(sp)
  40a5f8:	8fb10028 	lw	s1,40(sp)
  40a5fc:	8fb00024 	lw	s0,36(sp)
  40a600:	03e00008 	jr	ra
  40a604:	27bd0040 	addiu	sp,sp,64
  40a608:	3c060042 	lui	a2,0x42
  40a60c:	24c6d4c4 	addiu	a2,a2,-11068
  40a610:	24050030 	li	a1,48
  40a614:	3c040042 	lui	a0,0x42
  40a618:	0c100051 	jal	400144 <_user_panic>
  40a61c:	2484d4d8 	addiu	a0,a0,-11048

0040a620 <ide_write>:
  40a620:	27bdffc0 	addiu	sp,sp,-64
  40a624:	afbf003c 	sw	ra,60(sp)
  40a628:	afb50038 	sw	s5,56(sp)
  40a62c:	afb40034 	sw	s4,52(sp)
  40a630:	afb30030 	sw	s3,48(sp)
  40a634:	afb2002c 	sw	s2,44(sp)
  40a638:	afb10028 	sw	s1,40(sp)
  40a63c:	afb00024 	sw	s0,36(sp)
  40a640:	afa40040 	sw	a0,64(sp)
  40a644:	00059240 	sll	s2,a1,0x9
  40a648:	00073a40 	sll	a3,a3,0x9
  40a64c:	00f29821 	addu	s3,a3,s2
  40a650:	24020001 	li	v0,1
  40a654:	afa20010 	sw	v0,16(sp)
  40a658:	a3a00014 	sb	zero,20(sp)
  40a65c:	0253102a 	slt	v0,s2,s3
  40a660:	1040001f 	beqz	v0,40a6e0 <ide_write+0xc0>
  40a664:	afa00018 	sw	zero,24(sp)
  40a668:	02408025 	move	s0,s2
  40a66c:	00c0a025 	move	s4,a2
  40a670:	3c111300 	lui	s1,0x1300
  40a674:	26354000 	addiu	s5,s1,16384
  40a678:	02122023 	subu	a0,s0,s2
  40a67c:	24060200 	li	a2,512
  40a680:	02a02825 	move	a1,s5
  40a684:	0c100485 	jal	401214 <syscall_write_dev>
  40a688:	02842021 	addu	a0,s4,a0
  40a68c:	24060004 	li	a2,4
  40a690:	26250010 	addiu	a1,s1,16
  40a694:	0c100485 	jal	401214 <syscall_write_dev>
  40a698:	27a40040 	addiu	a0,sp,64
  40a69c:	afb00018 	sw	s0,24(sp)
  40a6a0:	24060004 	li	a2,4
  40a6a4:	02202825 	move	a1,s1
  40a6a8:	0c100485 	jal	401214 <syscall_write_dev>
  40a6ac:	27a40018 	addiu	a0,sp,24
  40a6b0:	24060004 	li	a2,4
  40a6b4:	26250020 	addiu	a1,s1,32
  40a6b8:	0c100485 	jal	401214 <syscall_write_dev>
  40a6bc:	27a40010 	addiu	a0,sp,16
  40a6c0:	24060001 	li	a2,1
  40a6c4:	26250030 	addiu	a1,s1,48
  40a6c8:	0c100491 	jal	401244 <syscall_read_dev>
  40a6cc:	27a40014 	addiu	a0,sp,20
  40a6d0:	26100200 	addiu	s0,s0,512
  40a6d4:	0213102a 	slt	v0,s0,s3
  40a6d8:	5440ffe8 	bnezl	v0,40a67c <ide_write+0x5c>
  40a6dc:	02122023 	subu	a0,s0,s2
  40a6e0:	8fbf003c 	lw	ra,60(sp)
  40a6e4:	8fb50038 	lw	s5,56(sp)
  40a6e8:	8fb40034 	lw	s4,52(sp)
  40a6ec:	8fb30030 	lw	s3,48(sp)
  40a6f0:	8fb2002c 	lw	s2,44(sp)
  40a6f4:	8fb10028 	lw	s1,40(sp)
  40a6f8:	8fb00024 	lw	s0,36(sp)
  40a6fc:	03e00008 	jr	ra
  40a700:	27bd0040 	addiu	sp,sp,64

0040a704 <serve_init>:
  40a704:	3c020041 	lui	v0,0x41
  40a708:	2442762c 	addiu	v0,v0,30252
  40a70c:	3c046000 	lui	a0,0x6000
  40a710:	00001825 	move	v1,zero
  40a714:	24050400 	li	a1,1024
  40a718:	ac430000 	sw	v1,0(v0)
  40a71c:	ac440008 	sw	a0,8(v0)
  40a720:	24841000 	addiu	a0,a0,4096
  40a724:	24630001 	addiu	v1,v1,1
  40a728:	1465fffb 	bne	v1,a1,40a718 <serve_init+0x14>
  40a72c:	24420010 	addiu	v0,v0,16
  40a730:	03e00008 	jr	ra
  40a734:	00000000 	nop

0040a738 <open_alloc>:
  40a738:	27bdffd8 	addiu	sp,sp,-40
  40a73c:	afbf0024 	sw	ra,36(sp)
  40a740:	afb40020 	sw	s4,32(sp)
  40a744:	afb3001c 	sw	s3,28(sp)
  40a748:	afb20018 	sw	s2,24(sp)
  40a74c:	afb10014 	sw	s1,20(sp)
  40a750:	afb00010 	sw	s0,16(sp)
  40a754:	00809025 	move	s2,a0
  40a758:	3c110041 	lui	s1,0x41
  40a75c:	26317634 	addiu	s1,s1,30260
  40a760:	00008025 	move	s0,zero
  40a764:	24130001 	li	s3,1
  40a768:	24140400 	li	s4,1024
  40a76c:	0c1006a4 	jal	401a90 <pageref>
  40a770:	8e240000 	lw	a0,0(s1)
  40a774:	50400008 	beqzl	v0,40a798 <open_alloc+0x60>
  40a778:	00101100 	sll	v0,s0,0x4
  40a77c:	5053000f 	beql	v0,s3,40a7bc <open_alloc+0x84>
  40a780:	00108100 	sll	s0,s0,0x4
  40a784:	26100001 	addiu	s0,s0,1
  40a788:	1614fff8 	bne	s0,s4,40a76c <open_alloc+0x34>
  40a78c:	26310010 	addiu	s1,s1,16
  40a790:	10000016 	b	40a7ec <open_alloc+0xb4>
  40a794:	2402fff8 	li	v0,-8
  40a798:	3c030041 	lui	v1,0x41
  40a79c:	24637628 	addiu	v1,v1,30248
  40a7a0:	00621021 	addu	v0,v1,v0
  40a7a4:	24060604 	li	a2,1540
  40a7a8:	8c45000c 	lw	a1,12(v0)
  40a7ac:	0c100418 	jal	401060 <syscall_mem_alloc>
  40a7b0:	00002025 	move	a0,zero
  40a7b4:	0440000d 	bltz	v0,40a7ec <open_alloc+0xb4>
  40a7b8:	00108100 	sll	s0,s0,0x4
  40a7bc:	3c020041 	lui	v0,0x41
  40a7c0:	24427628 	addiu	v0,v0,30248
  40a7c4:	00501021 	addu	v0,v0,s0
  40a7c8:	8c430004 	lw	v1,4(v0)
  40a7cc:	24630400 	addiu	v1,v1,1024
  40a7d0:	ac430004 	sw	v1,4(v0)
  40a7d4:	ae420000 	sw	v0,0(s2)
  40a7d8:	24051000 	li	a1,4096
  40a7dc:	0c100317 	jal	400c5c <user_bzero>
  40a7e0:	8c44000c 	lw	a0,12(v0)
  40a7e4:	8e420000 	lw	v0,0(s2)
  40a7e8:	8c420004 	lw	v0,4(v0)
  40a7ec:	8fbf0024 	lw	ra,36(sp)
  40a7f0:	8fb40020 	lw	s4,32(sp)
  40a7f4:	8fb3001c 	lw	s3,28(sp)
  40a7f8:	8fb20018 	lw	s2,24(sp)
  40a7fc:	8fb10014 	lw	s1,20(sp)
  40a800:	8fb00010 	lw	s0,16(sp)
  40a804:	03e00008 	jr	ra
  40a808:	27bd0028 	addiu	sp,sp,40

0040a80c <open_lookup>:
  40a80c:	27bdffd8 	addiu	sp,sp,-40
  40a810:	afbf0024 	sw	ra,36(sp)
  40a814:	afb30020 	sw	s3,32(sp)
  40a818:	afb2001c 	sw	s2,28(sp)
  40a81c:	afb10018 	sw	s1,24(sp)
  40a820:	afb00014 	sw	s0,20(sp)
  40a824:	00a09025 	move	s2,a1
  40a828:	00c09825 	move	s3,a2
  40a82c:	30b103ff 	andi	s1,a1,0x3ff
  40a830:	00111100 	sll	v0,s1,0x4
  40a834:	3c100041 	lui	s0,0x41
  40a838:	26107628 	addiu	s0,s0,30248
  40a83c:	02028021 	addu	s0,s0,v0
  40a840:	0c1006a4 	jal	401a90 <pageref>
  40a844:	8e04000c 	lw	a0,12(s0)
  40a848:	24030001 	li	v1,1
  40a84c:	10430006 	beq	v0,v1,40a868 <open_lookup+0x5c>
  40a850:	2402fffd 	li	v0,-3
  40a854:	8e020004 	lw	v0,4(s0)
  40a858:	16420003 	bne	s2,v0,40a868 <open_lookup+0x5c>
  40a85c:	2402fffd 	li	v0,-3
  40a860:	ae700000 	sw	s0,0(s3)
  40a864:	00001025 	move	v0,zero
  40a868:	8fbf0024 	lw	ra,36(sp)
  40a86c:	8fb30020 	lw	s3,32(sp)
  40a870:	8fb2001c 	lw	s2,28(sp)
  40a874:	8fb10018 	lw	s1,24(sp)
  40a878:	8fb00014 	lw	s0,20(sp)
  40a87c:	03e00008 	jr	ra
  40a880:	27bd0028 	addiu	sp,sp,40
  40a884:	1000fff8 	b	40a868 <open_lookup+0x5c>
  40a888:	2402fffd 	li	v0,-3

0040a88c <serve_open>:
  40a88c:	27bdfbd0 	addiu	sp,sp,-1072
  40a890:	afbf042c 	sw	ra,1068(sp)
  40a894:	afb10428 	sw	s1,1064(sp)
  40a898:	afb00424 	sw	s0,1060(sp)
  40a89c:	00808825 	move	s1,a0
  40a8a0:	00a08025 	move	s0,a1
  40a8a4:	8ca70400 	lw	a3,1024(a1)
  40a8a8:	00a03025 	move	a2,a1
  40a8ac:	00802825 	move	a1,a0
  40a8b0:	3c040042 	lui	a0,0x42
  40a8b4:	0c100042 	jal	400108 <writef>
  40a8b8:	2484d4e4 	addiu	a0,a0,-11036
  40a8bc:	24060400 	li	a2,1024
  40a8c0:	27a50018 	addiu	a1,sp,24
  40a8c4:	0c1002af 	jal	400abc <user_bcopy>
  40a8c8:	02002025 	move	a0,s0
  40a8cc:	a3a00417 	sb	zero,1047(sp)
  40a8d0:	0c1029ce 	jal	40a738 <open_alloc>
  40a8d4:	27a4041c 	addiu	a0,sp,1052
  40a8d8:	0440002a 	bltz	v0,40a984 <serve_open+0xf8>
  40a8dc:	27a50418 	addiu	a1,sp,1048
  40a8e0:	0c102870 	jal	40a1c0 <file_open>
  40a8e4:	27a40018 	addiu	a0,sp,24
  40a8e8:	0440002f 	bltz	v0,40a9a8 <serve_open+0x11c>
  40a8ec:	8fa30418 	lw	v1,1048(sp)
  40a8f0:	8fa2041c 	lw	v0,1052(sp)
  40a8f4:	ac430000 	sw	v1,0(v0)
  40a8f8:	8fa5041c 	lw	a1,1052(sp)
  40a8fc:	8ca4000c 	lw	a0,12(a1)
  40a900:	8fa20418 	lw	v0,1048(sp)
  40a904:	24830010 	addiu	v1,a0,16
  40a908:	24460100 	addiu	a2,v0,256
  40a90c:	8c4a0000 	lw	t2,0(v0)
  40a910:	8c490004 	lw	t1,4(v0)
  40a914:	8c480008 	lw	t0,8(v0)
  40a918:	8c47000c 	lw	a3,12(v0)
  40a91c:	ac6a0000 	sw	t2,0(v1)
  40a920:	ac690004 	sw	t1,4(v1)
  40a924:	ac680008 	sw	t0,8(v1)
  40a928:	ac67000c 	sw	a3,12(v1)
  40a92c:	24420010 	addiu	v0,v0,16
  40a930:	1446fff6 	bne	v0,a2,40a90c <serve_open+0x80>
  40a934:	24630010 	addiu	v1,v1,16
  40a938:	8ca20004 	lw	v0,4(a1)
  40a93c:	ac82000c 	sw	v0,12(a0)
  40a940:	8e020400 	lw	v0,1024(s0)
  40a944:	aca20008 	sw	v0,8(a1)
  40a948:	ac820008 	sw	v0,8(a0)
  40a94c:	3c020041 	lui	v0,0x41
  40a950:	8c42f014 	lw	v0,-4076(v0)
  40a954:	ac820000 	sw	v0,0(a0)
  40a958:	24070604 	li	a3,1540
  40a95c:	8fa2041c 	lw	v0,1052(sp)
  40a960:	8c46000c 	lw	a2,12(v0)
  40a964:	00002825 	move	a1,zero
  40a968:	0c10049d 	jal	401274 <ipc_send>
  40a96c:	02202025 	move	a0,s1
  40a970:	8fbf042c 	lw	ra,1068(sp)
  40a974:	8fb10428 	lw	s1,1064(sp)
  40a978:	8fb00424 	lw	s0,1060(sp)
  40a97c:	03e00008 	jr	ra
  40a980:	27bd0430 	addiu	sp,sp,1072
  40a984:	27a30018 	addiu	v1,sp,24
  40a988:	afa30010 	sw	v1,16(sp)
  40a98c:	00403825 	move	a3,v0
  40a990:	3c060042 	lui	a2,0x42
  40a994:	24c6d500 	addiu	a2,a2,-11008
  40a998:	24050070 	li	a1,112
  40a99c:	3c040042 	lui	a0,0x42
  40a9a0:	0c100051 	jal	400144 <_user_panic>
  40a9a4:	2484d528 	addiu	a0,a0,-10968
  40a9a8:	00003825 	move	a3,zero
  40a9ac:	00003025 	move	a2,zero
  40a9b0:	00402825 	move	a1,v0
  40a9b4:	0c10049d 	jal	401274 <ipc_send>
  40a9b8:	02202025 	move	a0,s1
  40a9bc:	1000ffed 	b	40a974 <serve_open+0xe8>
  40a9c0:	8fbf042c 	lw	ra,1068(sp)

0040a9c4 <serve_map>:
  40a9c4:	27bdffd8 	addiu	sp,sp,-40
  40a9c8:	afbf0024 	sw	ra,36(sp)
  40a9cc:	afb10020 	sw	s1,32(sp)
  40a9d0:	afb0001c 	sw	s0,28(sp)
  40a9d4:	00808825 	move	s1,a0
  40a9d8:	00a08025 	move	s0,a1
  40a9dc:	27a60010 	addiu	a2,sp,16
  40a9e0:	0c102a03 	jal	40a80c <open_lookup>
  40a9e4:	8ca50000 	lw	a1,0(a1)
  40a9e8:	04400011 	bltz	v0,40aa30 <serve_map+0x6c>
  40a9ec:	27a60014 	addiu	a2,sp,20
  40a9f0:	8e050004 	lw	a1,4(s0)
  40a9f4:	00052b02 	srl	a1,a1,0xc
  40a9f8:	8fa20010 	lw	v0,16(sp)
  40a9fc:	0c102770 	jal	409dc0 <file_get_block>
  40aa00:	8c440000 	lw	a0,0(v0)
  40aa04:	04400011 	bltz	v0,40aa4c <serve_map+0x88>
  40aa08:	24070604 	li	a3,1540
  40aa0c:	8fa60014 	lw	a2,20(sp)
  40aa10:	00002825 	move	a1,zero
  40aa14:	0c10049d 	jal	401274 <ipc_send>
  40aa18:	02202025 	move	a0,s1
  40aa1c:	8fbf0024 	lw	ra,36(sp)
  40aa20:	8fb10020 	lw	s1,32(sp)
  40aa24:	8fb0001c 	lw	s0,28(sp)
  40aa28:	03e00008 	jr	ra
  40aa2c:	27bd0028 	addiu	sp,sp,40
  40aa30:	00003825 	move	a3,zero
  40aa34:	00003025 	move	a2,zero
  40aa38:	00402825 	move	a1,v0
  40aa3c:	0c10049d 	jal	401274 <ipc_send>
  40aa40:	02202025 	move	a0,s1
  40aa44:	1000fff6 	b	40aa20 <serve_map+0x5c>
  40aa48:	8fbf0024 	lw	ra,36(sp)
  40aa4c:	00003825 	move	a3,zero
  40aa50:	00003025 	move	a2,zero
  40aa54:	00402825 	move	a1,v0
  40aa58:	0c10049d 	jal	401274 <ipc_send>
  40aa5c:	02202025 	move	a0,s1
  40aa60:	1000ffef 	b	40aa20 <serve_map+0x5c>
  40aa64:	8fbf0024 	lw	ra,36(sp)

0040aa68 <serve_set_size>:
  40aa68:	27bdffd8 	addiu	sp,sp,-40
  40aa6c:	afbf0024 	sw	ra,36(sp)
  40aa70:	afb10020 	sw	s1,32(sp)
  40aa74:	afb0001c 	sw	s0,28(sp)
  40aa78:	00808825 	move	s1,a0
  40aa7c:	00a08025 	move	s0,a1
  40aa80:	27a60010 	addiu	a2,sp,16
  40aa84:	0c102a03 	jal	40a80c <open_lookup>
  40aa88:	8ca50000 	lw	a1,0(a1)
  40aa8c:	04400010 	bltz	v0,40aad0 <serve_set_size+0x68>
  40aa90:	00003825 	move	a3,zero
  40aa94:	8e050004 	lw	a1,4(s0)
  40aa98:	8fa20010 	lw	v0,16(sp)
  40aa9c:	0c1028eb 	jal	40a3ac <file_set_size>
  40aaa0:	8c440000 	lw	a0,0(v0)
  40aaa4:	04400010 	bltz	v0,40aae8 <serve_set_size+0x80>
  40aaa8:	00003825 	move	a3,zero
  40aaac:	00003025 	move	a2,zero
  40aab0:	00002825 	move	a1,zero
  40aab4:	0c10049d 	jal	401274 <ipc_send>
  40aab8:	02202025 	move	a0,s1
  40aabc:	8fbf0024 	lw	ra,36(sp)
  40aac0:	8fb10020 	lw	s1,32(sp)
  40aac4:	8fb0001c 	lw	s0,28(sp)
  40aac8:	03e00008 	jr	ra
  40aacc:	27bd0028 	addiu	sp,sp,40
  40aad0:	00003025 	move	a2,zero
  40aad4:	00402825 	move	a1,v0
  40aad8:	0c10049d 	jal	401274 <ipc_send>
  40aadc:	02202025 	move	a0,s1
  40aae0:	1000fff7 	b	40aac0 <serve_set_size+0x58>
  40aae4:	8fbf0024 	lw	ra,36(sp)
  40aae8:	00003025 	move	a2,zero
  40aaec:	00402825 	move	a1,v0
  40aaf0:	0c10049d 	jal	401274 <ipc_send>
  40aaf4:	02202025 	move	a0,s1
  40aaf8:	1000fff1 	b	40aac0 <serve_set_size+0x58>
  40aafc:	8fbf0024 	lw	ra,36(sp)

0040ab00 <serve_close>:
  40ab00:	27bdffe0 	addiu	sp,sp,-32
  40ab04:	afbf001c 	sw	ra,28(sp)
  40ab08:	afb00018 	sw	s0,24(sp)
  40ab0c:	00808025 	move	s0,a0
  40ab10:	27a60010 	addiu	a2,sp,16
  40ab14:	0c102a03 	jal	40a80c <open_lookup>
  40ab18:	8ca50000 	lw	a1,0(a1)
  40ab1c:	0440000d 	bltz	v0,40ab54 <serve_close+0x54>
  40ab20:	00003825 	move	a3,zero
  40ab24:	8fa20010 	lw	v0,16(sp)
  40ab28:	0c102922 	jal	40a488 <file_close>
  40ab2c:	8c440000 	lw	a0,0(v0)
  40ab30:	00003825 	move	a3,zero
  40ab34:	00003025 	move	a2,zero
  40ab38:	00002825 	move	a1,zero
  40ab3c:	0c10049d 	jal	401274 <ipc_send>
  40ab40:	02002025 	move	a0,s0
  40ab44:	8fbf001c 	lw	ra,28(sp)
  40ab48:	8fb00018 	lw	s0,24(sp)
  40ab4c:	03e00008 	jr	ra
  40ab50:	27bd0020 	addiu	sp,sp,32
  40ab54:	00003025 	move	a2,zero
  40ab58:	00402825 	move	a1,v0
  40ab5c:	0c10049d 	jal	401274 <ipc_send>
  40ab60:	02002025 	move	a0,s0
  40ab64:	1000fff8 	b	40ab48 <serve_close+0x48>
  40ab68:	8fbf001c 	lw	ra,28(sp)

0040ab6c <serve_remove>:
  40ab6c:	27bdfbe0 	addiu	sp,sp,-1056
  40ab70:	afbf041c 	sw	ra,1052(sp)
  40ab74:	afb10418 	sw	s1,1048(sp)
  40ab78:	afb00414 	sw	s0,1044(sp)
  40ab7c:	00808825 	move	s1,a0
  40ab80:	00a02025 	move	a0,a1
  40ab84:	24060400 	li	a2,1024
  40ab88:	0c1002af 	jal	400abc <user_bcopy>
  40ab8c:	27a50010 	addiu	a1,sp,16
  40ab90:	a3a0040f 	sb	zero,1039(sp)
  40ab94:	0c102930 	jal	40a4c0 <file_remove>
  40ab98:	27a40010 	addiu	a0,sp,16
  40ab9c:	0440000b 	bltz	v0,40abcc <serve_remove+0x60>
  40aba0:	00408025 	move	s0,v0
  40aba4:	00003825 	move	a3,zero
  40aba8:	00003025 	move	a2,zero
  40abac:	02002825 	move	a1,s0
  40abb0:	0c10049d 	jal	401274 <ipc_send>
  40abb4:	02202025 	move	a0,s1
  40abb8:	8fbf041c 	lw	ra,1052(sp)
  40abbc:	8fb10418 	lw	s1,1048(sp)
  40abc0:	8fb00414 	lw	s0,1044(sp)
  40abc4:	03e00008 	jr	ra
  40abc8:	27bd0420 	addiu	sp,sp,1056
  40abcc:	3c040042 	lui	a0,0x42
  40abd0:	0c100042 	jal	400108 <writef>
  40abd4:	2484d538 	addiu	a0,a0,-10952
  40abd8:	1000fff3 	b	40aba8 <serve_remove+0x3c>
  40abdc:	00003825 	move	a3,zero

0040abe0 <serve_dirty>:
  40abe0:	27bdffd8 	addiu	sp,sp,-40
  40abe4:	afbf0024 	sw	ra,36(sp)
  40abe8:	afb10020 	sw	s1,32(sp)
  40abec:	afb0001c 	sw	s0,28(sp)
  40abf0:	00808825 	move	s1,a0
  40abf4:	00a08025 	move	s0,a1
  40abf8:	27a60010 	addiu	a2,sp,16
  40abfc:	0c102a03 	jal	40a80c <open_lookup>
  40ac00:	8ca50000 	lw	a1,0(a1)
  40ac04:	04400010 	bltz	v0,40ac48 <serve_dirty+0x68>
  40ac08:	00003825 	move	a3,zero
  40ac0c:	8e050004 	lw	a1,4(s0)
  40ac10:	8fa20010 	lw	v0,16(sp)
  40ac14:	0c102782 	jal	409e08 <file_dirty>
  40ac18:	8c440000 	lw	a0,0(v0)
  40ac1c:	04400010 	bltz	v0,40ac60 <serve_dirty+0x80>
  40ac20:	00003825 	move	a3,zero
  40ac24:	00003025 	move	a2,zero
  40ac28:	00002825 	move	a1,zero
  40ac2c:	0c10049d 	jal	401274 <ipc_send>
  40ac30:	02202025 	move	a0,s1
  40ac34:	8fbf0024 	lw	ra,36(sp)
  40ac38:	8fb10020 	lw	s1,32(sp)
  40ac3c:	8fb0001c 	lw	s0,28(sp)
  40ac40:	03e00008 	jr	ra
  40ac44:	27bd0028 	addiu	sp,sp,40
  40ac48:	00003025 	move	a2,zero
  40ac4c:	00402825 	move	a1,v0
  40ac50:	0c10049d 	jal	401274 <ipc_send>
  40ac54:	02202025 	move	a0,s1
  40ac58:	1000fff7 	b	40ac38 <serve_dirty+0x58>
  40ac5c:	8fbf0024 	lw	ra,36(sp)
  40ac60:	00003025 	move	a2,zero
  40ac64:	00402825 	move	a1,v0
  40ac68:	0c10049d 	jal	401274 <ipc_send>
  40ac6c:	02202025 	move	a0,s1
  40ac70:	1000fff1 	b	40ac38 <serve_dirty+0x58>
  40ac74:	8fbf0024 	lw	ra,36(sp)

0040ac78 <serve_sync>:
  40ac78:	27bdffe8 	addiu	sp,sp,-24
  40ac7c:	afbf0014 	sw	ra,20(sp)
  40ac80:	afb00010 	sw	s0,16(sp)
  40ac84:	0c102904 	jal	40a410 <fs_sync>
  40ac88:	00808025 	move	s0,a0
  40ac8c:	00003825 	move	a3,zero
  40ac90:	00003025 	move	a2,zero
  40ac94:	00002825 	move	a1,zero
  40ac98:	0c10049d 	jal	401274 <ipc_send>
  40ac9c:	02002025 	move	a0,s0
  40aca0:	8fbf0014 	lw	ra,20(sp)
  40aca4:	8fb00010 	lw	s0,16(sp)
  40aca8:	03e00008 	jr	ra
  40acac:	27bd0018 	addiu	sp,sp,24

0040acb0 <serve>:
  40acb0:	27bdffd8 	addiu	sp,sp,-40
  40acb4:	afbf0024 	sw	ra,36(sp)
  40acb8:	afb20020 	sw	s2,32(sp)
  40acbc:	afb1001c 	sw	s1,28(sp)
  40acc0:	afb00018 	sw	s0,24(sp)
  40acc4:	3c120042 	lui	s2,0x42
  40acc8:	2652d584 	addiu	s2,s2,-10876
  40accc:	3c100042 	lui	s0,0x42
  40acd0:	2610bd08 	addiu	s0,s0,-17144
  40acd4:	1000000e 	b	40ad10 <serve+0x60>
  40acd8:	3c110042 	lui	s1,0x42
  40acdc:	8fa50010 	lw	a1,16(sp)
  40ace0:	0c100042 	jal	400108 <writef>
  40ace4:	2624d554 	addiu	a0,s1,-10924
  40ace8:	1000000a 	b	40ad14 <serve+0x64>
  40acec:	afa00014 	sw	zero,20(sp)
  40acf0:	3c050fff 	lui	a1,0xfff
  40acf4:	34a5f000 	ori	a1,a1,0xf000
  40acf8:	0c102a23 	jal	40a88c <serve_open>
  40acfc:	8fa40010 	lw	a0,16(sp)
  40ad00:	3c050fff 	lui	a1,0xfff
  40ad04:	34a5f000 	ori	a1,a1,0xf000
  40ad08:	0c100431 	jal	4010c4 <syscall_mem_unmap>
  40ad0c:	00002025 	move	a0,zero
  40ad10:	afa00014 	sw	zero,20(sp)
  40ad14:	27a60014 	addiu	a2,sp,20
  40ad18:	3c050fff 	lui	a1,0xfff
  40ad1c:	34a5f000 	ori	a1,a1,0xf000
  40ad20:	0c1004c3 	jal	40130c <ipc_recv>
  40ad24:	27a40010 	addiu	a0,sp,16
  40ad28:	8fa30014 	lw	v1,20(sp)
  40ad2c:	30630200 	andi	v1,v1,0x200
  40ad30:	1060ffea 	beqz	v1,40acdc <serve+0x2c>
  40ad34:	2c430008 	sltiu	v1,v0,8
  40ad38:	10600027 	beqz	v1,40add8 <serve+0x128>
  40ad3c:	00021880 	sll	v1,v0,0x2
  40ad40:	02031821 	addu	v1,s0,v1
  40ad44:	8c630000 	lw	v1,0(v1)
  40ad48:	00600008 	jr	v1
  40ad4c:	00000000 	nop
  40ad50:	3c050fff 	lui	a1,0xfff
  40ad54:	34a5f000 	ori	a1,a1,0xf000
  40ad58:	0c102a71 	jal	40a9c4 <serve_map>
  40ad5c:	8fa40010 	lw	a0,16(sp)
  40ad60:	1000ffe8 	b	40ad04 <serve+0x54>
  40ad64:	3c050fff 	lui	a1,0xfff
  40ad68:	3c050fff 	lui	a1,0xfff
  40ad6c:	34a5f000 	ori	a1,a1,0xf000
  40ad70:	0c102a9a 	jal	40aa68 <serve_set_size>
  40ad74:	8fa40010 	lw	a0,16(sp)
  40ad78:	1000ffe2 	b	40ad04 <serve+0x54>
  40ad7c:	3c050fff 	lui	a1,0xfff
  40ad80:	3c050fff 	lui	a1,0xfff
  40ad84:	34a5f000 	ori	a1,a1,0xf000
  40ad88:	0c102ac0 	jal	40ab00 <serve_close>
  40ad8c:	8fa40010 	lw	a0,16(sp)
  40ad90:	1000ffdc 	b	40ad04 <serve+0x54>
  40ad94:	3c050fff 	lui	a1,0xfff
  40ad98:	3c050fff 	lui	a1,0xfff
  40ad9c:	34a5f000 	ori	a1,a1,0xf000
  40ada0:	0c102af8 	jal	40abe0 <serve_dirty>
  40ada4:	8fa40010 	lw	a0,16(sp)
  40ada8:	1000ffd6 	b	40ad04 <serve+0x54>
  40adac:	3c050fff 	lui	a1,0xfff
  40adb0:	3c050fff 	lui	a1,0xfff
  40adb4:	34a5f000 	ori	a1,a1,0xf000
  40adb8:	0c102adb 	jal	40ab6c <serve_remove>
  40adbc:	8fa40010 	lw	a0,16(sp)
  40adc0:	1000ffd0 	b	40ad04 <serve+0x54>
  40adc4:	3c050fff 	lui	a1,0xfff
  40adc8:	0c102b1e 	jal	40ac78 <serve_sync>
  40adcc:	8fa40010 	lw	a0,16(sp)
  40add0:	1000ffcc 	b	40ad04 <serve+0x54>
  40add4:	3c050fff 	lui	a1,0xfff
  40add8:	00403025 	move	a2,v0
  40addc:	8fa50010 	lw	a1,16(sp)
  40ade0:	0c100042 	jal	400108 <writef>
  40ade4:	02402025 	move	a0,s2
  40ade8:	1000ffc6 	b	40ad04 <serve+0x54>
  40adec:	3c050fff 	lui	a1,0xfff

0040adf0 <pmain>:
  40adf0:	27bdffe8 	addiu	sp,sp,-24
  40adf4:	afbf0014 	sw	ra,20(sp)
  40adf8:	0c1029c1 	jal	40a704 <serve_init>
  40adfc:	00000000 	nop
  40ae00:	0c102706 	jal	409c18 <fs_init>
  40ae04:	00000000 	nop
  40ae08:	0c102b90 	jal	40ae40 <fs_test>
  40ae0c:	00000000 	nop
  40ae10:	0c102b2c 	jal	40acb0 <serve>
  40ae14:	00000000 	nop

0040ae18 <strecmp>:
  40ae18:	90a20000 	lbu	v0,0(a1)
  40ae1c:	10400006 	beqz	v0,40ae38 <strecmp+0x20>
  40ae20:	24840001 	addiu	a0,a0,1
  40ae24:	9083ffff 	lbu	v1,-1(a0)
  40ae28:	1062fffb 	beq	v1,v0,40ae18 <strecmp>
  40ae2c:	24a50001 	addiu	a1,a1,1
  40ae30:	03e00008 	jr	ra
  40ae34:	24020001 	li	v0,1
  40ae38:	03e00008 	jr	ra
  40ae3c:	00000000 	nop

0040ae40 <fs_test>:
  40ae40:	27bdffe0 	addiu	sp,sp,-32
  40ae44:	afbf001c 	sw	ra,28(sp)
  40ae48:	afb00018 	sw	s0,24(sp)
  40ae4c:	24060600 	li	a2,1536
  40ae50:	24051000 	li	a1,4096
  40ae54:	0c100418 	jal	401060 <syscall_mem_alloc>
  40ae58:	00002025 	move	a0,zero
  40ae5c:	04400069 	bltz	v0,40b004 <fs_test+0x1c4>
  40ae60:	24061000 	li	a2,4096
  40ae64:	24051000 	li	a1,4096
  40ae68:	3c020042 	lui	v0,0x42
  40ae6c:	0c1002af 	jal	400abc <user_bcopy>
  40ae70:	8c445e08 	lw	a0,24072(v0)
  40ae74:	0c102618 	jal	409860 <alloc_block>
  40ae78:	00000000 	nop
  40ae7c:	04400068 	bltz	v0,40b020 <fs_test+0x1e0>
  40ae80:	28430000 	slti	v1,v0,0
  40ae84:	2444001f 	addiu	a0,v0,31
  40ae88:	0043200a 	movz	a0,v0,v1
  40ae8c:	00041943 	sra	v1,a0,0x5
  40ae90:	00031880 	sll	v1,v1,0x2
  40ae94:	24070001 	li	a3,1
  40ae98:	00471004 	sllv	v0,a3,v0
  40ae9c:	8c641000 	lw	a0,4096(v1)
  40aea0:	00442024 	and	a0,v0,a0
  40aea4:	10800065 	beqz	a0,40b03c <fs_test+0x1fc>
  40aea8:	3c070042 	lui	a3,0x42
  40aeac:	3c040042 	lui	a0,0x42
  40aeb0:	8c845e08 	lw	a0,24072(a0)
  40aeb4:	00831821 	addu	v1,a0,v1
  40aeb8:	8c670000 	lw	a3,0(v1)
  40aebc:	00471024 	and	v0,v0,a3
  40aec0:	14400065 	bnez	v0,40b058 <fs_test+0x218>
  40aec4:	27a50010 	addiu	a1,sp,16
  40aec8:	3c040042 	lui	a0,0x42
  40aecc:	0c102870 	jal	40a1c0 <file_open>
  40aed0:	2484d614 	addiu	a0,a0,-10732
  40aed4:	04400068 	bltz	v0,40b078 <fs_test+0x238>
  40aed8:	2403fff7 	li	v1,-9
  40aedc:	1040006f 	beqz	v0,40b09c <fs_test+0x25c>
  40aee0:	3c060042 	lui	a2,0x42
  40aee4:	27a50010 	addiu	a1,sp,16
  40aee8:	3c040042 	lui	a0,0x42
  40aeec:	0c102870 	jal	40a1c0 <file_open>
  40aef0:	2484d65c 	addiu	a0,a0,-10660
  40aef4:	0440006e 	bltz	v0,40b0b0 <fs_test+0x270>
  40aef8:	27a60014 	addiu	a2,sp,20
  40aefc:	00002825 	move	a1,zero
  40af00:	0c102770 	jal	409dc0 <file_get_block>
  40af04:	8fa40010 	lw	a0,16(sp)
  40af08:	04400070 	bltz	v0,40b0cc <fs_test+0x28c>
  40af0c:	8fb00014 	lw	s0,20(sp)
  40af10:	3c050042 	lui	a1,0x42
  40af14:	24a5d694 	addiu	a1,a1,-10604
  40af18:	0c102b86 	jal	40ae18 <strecmp>
  40af1c:	02002025 	move	a0,s0
  40af20:	14400071 	bnez	v0,40b0e8 <fs_test+0x2a8>
  40af24:	3c060042 	lui	a2,0x42
  40af28:	92020000 	lbu	v0,0(s0)
  40af2c:	304200ff 	andi	v0,v0,0xff
  40af30:	a2020000 	sb	v0,0(s0)
  40af34:	0c1028ca 	jal	40a328 <file_flush>
  40af38:	8fa40010 	lw	a0,16(sp)
  40af3c:	00002825 	move	a1,zero
  40af40:	0c1028eb 	jal	40a3ac <file_set_size>
  40af44:	8fa40010 	lw	a0,16(sp)
  40af48:	0440006c 	bltz	v0,40b0fc <fs_test+0x2bc>
  40af4c:	00403825 	move	a3,v0
  40af50:	8fa40010 	lw	a0,16(sp)
  40af54:	8c820088 	lw	v0,136(a0)
  40af58:	1440006e 	bnez	v0,40b114 <fs_test+0x2d4>
  40af5c:	3c070042 	lui	a3,0x42
  40af60:	0c1028eb 	jal	40a3ac <file_set_size>
  40af64:	24050027 	li	a1,39
  40af68:	04400071 	bltz	v0,40b130 <fs_test+0x2f0>
  40af6c:	27a60014 	addiu	a2,sp,20
  40af70:	00002825 	move	a1,zero
  40af74:	0c102770 	jal	409dc0 <file_get_block>
  40af78:	8fa40010 	lw	a0,16(sp)
  40af7c:	04400073 	bltz	v0,40b14c <fs_test+0x30c>
  40af80:	3c030042 	lui	v1,0x42
  40af84:	2463d694 	addiu	v1,v1,-10604
  40af88:	8fa20014 	lw	v0,20(sp)
  40af8c:	24680020 	addiu	t0,v1,32
  40af90:	8c670000 	lw	a3,0(v1)
  40af94:	8c660004 	lw	a2,4(v1)
  40af98:	8c650008 	lw	a1,8(v1)
  40af9c:	8c64000c 	lw	a0,12(v1)
  40afa0:	a8470003 	swl	a3,3(v0)
  40afa4:	b8470000 	swr	a3,0(v0)
  40afa8:	a8460007 	swl	a2,7(v0)
  40afac:	b8460004 	swr	a2,4(v0)
  40afb0:	a845000b 	swl	a1,11(v0)
  40afb4:	b8450008 	swr	a1,8(v0)
  40afb8:	a844000f 	swl	a0,15(v0)
  40afbc:	b844000c 	swr	a0,12(v0)
  40afc0:	24630010 	addiu	v1,v1,16
  40afc4:	1468fff2 	bne	v1,t0,40af90 <fs_test+0x150>
  40afc8:	24420010 	addiu	v0,v0,16
  40afcc:	8c640000 	lw	a0,0(v1)
  40afd0:	8c630004 	lw	v1,4(v1)
  40afd4:	a8440003 	swl	a0,3(v0)
  40afd8:	b8440000 	swr	a0,0(v0)
  40afdc:	a8430007 	swl	v1,7(v0)
  40afe0:	b8430004 	swr	v1,4(v0)
  40afe4:	0c1028ca 	jal	40a328 <file_flush>
  40afe8:	8fa40010 	lw	a0,16(sp)
  40afec:	0c102922 	jal	40a488 <file_close>
  40aff0:	8fa40010 	lw	a0,16(sp)
  40aff4:	8fbf001c 	lw	ra,28(sp)
  40aff8:	8fb00018 	lw	s0,24(sp)
  40affc:	03e00008 	jr	ra
  40b000:	27bd0020 	addiu	sp,sp,32
  40b004:	00403825 	move	a3,v0
  40b008:	3c060042 	lui	a2,0x42
  40b00c:	24c6d5a8 	addiu	a2,a2,-10840
  40b010:	24050019 	li	a1,25
  40b014:	3c040042 	lui	a0,0x42
  40b018:	0c100051 	jal	400144 <_user_panic>
  40b01c:	2484d5c0 	addiu	a0,a0,-10816
  40b020:	00403825 	move	a3,v0
  40b024:	3c060042 	lui	a2,0x42
  40b028:	24c6d5d0 	addiu	a2,a2,-10800
  40b02c:	2405001e 	li	a1,30
  40b030:	3c040042 	lui	a0,0x42
  40b034:	0c100051 	jal	400144 <_user_panic>
  40b038:	2484d5c0 	addiu	a0,a0,-10816
  40b03c:	24e7d5e0 	addiu	a3,a3,-10784
  40b040:	3c060042 	lui	a2,0x42
  40b044:	24c6c1fc 	addiu	a2,a2,-15876
  40b048:	24050020 	li	a1,32
  40b04c:	3c040042 	lui	a0,0x42
  40b050:	0c100051 	jal	400144 <_user_panic>
  40b054:	2484d5c0 	addiu	a0,a0,-10816
  40b058:	3c070042 	lui	a3,0x42
  40b05c:	24e7d5f8 	addiu	a3,a3,-10760
  40b060:	3c060042 	lui	a2,0x42
  40b064:	24c6c1fc 	addiu	a2,a2,-15876
  40b068:	24050022 	li	a1,34
  40b06c:	3c040042 	lui	a0,0x42
  40b070:	0c100051 	jal	400144 <_user_panic>
  40b074:	2484d5c0 	addiu	a0,a0,-10816
  40b078:	1043ff9b 	beq	v0,v1,40aee8 <fs_test+0xa8>
  40b07c:	27a50010 	addiu	a1,sp,16
  40b080:	00403825 	move	a3,v0
  40b084:	3c060042 	lui	a2,0x42
  40b088:	24c6d620 	addiu	a2,a2,-10720
  40b08c:	24050026 	li	a1,38
  40b090:	3c040042 	lui	a0,0x42
  40b094:	0c100051 	jal	400144 <_user_panic>
  40b098:	2484d5c0 	addiu	a0,a0,-10816
  40b09c:	24c6d63c 	addiu	a2,a2,-10692
  40b0a0:	24050028 	li	a1,40
  40b0a4:	3c040042 	lui	a0,0x42
  40b0a8:	0c100051 	jal	400144 <_user_panic>
  40b0ac:	2484d5c0 	addiu	a0,a0,-10816
  40b0b0:	00403825 	move	a3,v0
  40b0b4:	3c060042 	lui	a2,0x42
  40b0b8:	24c6d668 	addiu	a2,a2,-10648
  40b0bc:	2405002a 	li	a1,42
  40b0c0:	3c040042 	lui	a0,0x42
  40b0c4:	0c100051 	jal	400144 <_user_panic>
  40b0c8:	2484d5c0 	addiu	a0,a0,-10816
  40b0cc:	00403825 	move	a3,v0
  40b0d0:	3c060042 	lui	a2,0x42
  40b0d4:	24c6d680 	addiu	a2,a2,-10624
  40b0d8:	2405002e 	li	a1,46
  40b0dc:	3c040042 	lui	a0,0x42
  40b0e0:	0c100051 	jal	400144 <_user_panic>
  40b0e4:	2484d5c0 	addiu	a0,a0,-10816
  40b0e8:	24c6d6bc 	addiu	a2,a2,-10564
  40b0ec:	24050030 	li	a1,48
  40b0f0:	3c040042 	lui	a0,0x42
  40b0f4:	0c100051 	jal	400144 <_user_panic>
  40b0f8:	2484d5c0 	addiu	a0,a0,-10816
  40b0fc:	3c060042 	lui	a2,0x42
  40b100:	24c6d6e0 	addiu	a2,a2,-10528
  40b104:	2405003a 	li	a1,58
  40b108:	3c040042 	lui	a0,0x42
  40b10c:	0c100051 	jal	400144 <_user_panic>
  40b110:	2484d5c0 	addiu	a0,a0,-10816
  40b114:	24e7d6f4 	addiu	a3,a3,-10508
  40b118:	3c060042 	lui	a2,0x42
  40b11c:	24c6c1fc 	addiu	a2,a2,-15876
  40b120:	2405003b 	li	a1,59
  40b124:	3c040042 	lui	a0,0x42
  40b128:	0c100051 	jal	400144 <_user_panic>
  40b12c:	2484d5c0 	addiu	a0,a0,-10816
  40b130:	00403825 	move	a3,v0
  40b134:	3c060042 	lui	a2,0x42
  40b138:	24c6d708 	addiu	a2,a2,-10488
  40b13c:	24050040 	li	a1,64
  40b140:	3c040042 	lui	a0,0x42
  40b144:	0c100051 	jal	400144 <_user_panic>
  40b148:	2484d5c0 	addiu	a0,a0,-10816
  40b14c:	00403825 	move	a3,v0
  40b150:	3c060042 	lui	a2,0x42
  40b154:	24c6d71c 	addiu	a2,a2,-10468
  40b158:	24050043 	li	a1,67
  40b15c:	3c040042 	lui	a0,0x42
  40b160:	0c100051 	jal	400144 <_user_panic>
  40b164:	2484d5c0 	addiu	a0,a0,-10816

0040b168 <umain>:
  40b168:	27bdffe8 	addiu	sp,sp,-24
  40b16c:	afbf0014 	sw	ra,20(sp)
  40b170:	afb00010 	sw	s0,16(sp)
  40b174:	3c100042 	lui	s0,0x42
  40b178:	2610d734 	addiu	s0,s0,-10444
  40b17c:	0c100042 	jal	400108 <writef>
  40b180:	02002025 	move	a0,s0
  40b184:	1000fffd 	b	40b17c <umain+0x14>
  40b188:	00000000 	nop

0040b18c <_start>:
  40b18c:	40806000 	mtc0	zero,c0_status
  40b190:	40809000 	mtc0	zero,c0_watchlo
  40b194:	40809800 	mtc0	zero,c0_watchhi
  40b198:	3c020042 	lui	v0,0x42
  40b19c:	2442d73c 	addiu	v0,v0,-10436
  40b1a0:	3c030042 	lui	v1,0x42
  40b1a4:	24635e14 	addiu	v1,v1,24084
  40b1a8:	10430006 	beq	v0,v1,40b1c4 <_start+0x38>
  40b1ac:	00000000 	nop
  40b1b0:	24420004 	addiu	v0,v0,4
  40b1b4:	00000000 	nop
  40b1b8:	ac40fffc 	sw	zero,-4(v0)
  40b1bc:	1443fffc 	bne	v0,v1,40b1b0 <_start+0x24>
  40b1c0:	00000000 	nop
  40b1c4:	3c1d8040 	lui	sp,0x8040
  40b1c8:	3c088040 	lui	t0,0x8040
  40b1cc:	3c010042 	lui	at,0x42
  40b1d0:	ac28b628 	sw	t0,-18904(at)
  40b1d4:	40026000 	mfc0	v0,c0_status
  40b1d8:	7c02b584 	ins	v0,zero,0x16,0x1
  40b1dc:	40826000 	mtc0	v0,c0_status
  40b1e0:	0c101e71 	jal	4079c4 <main>
  40b1e4:	000000c0 	ehb

0040b1e8 <loop>:
  40b1e8:	08102c7a 	j	40b1e8 <loop>
  40b1ec:	00000000 	nop
  40b1f0:	00000000 	nop

0040b1f4 <env_pop_tf>:
  40b1f4:	0080d025 	move	k0,a0
  40b1f8:	40855000 	mtc0	a1,c0_entryhi
  40b1fc:	8f5b0090 	lw	k1,144(k0)
  40b200:	409b6800 	mtc0	k1,c0_cause
  40b204:	8f430088 	lw	v1,136(k0)
  40b208:	8f420084 	lw	v0,132(k0)
  40b20c:	00600013 	mtlo	v1
  40b210:	8f430094 	lw	v1,148(k0)
  40b214:	00400011 	mthi	v0
  40b218:	40837000 	mtc0	v1,c0_epc
  40b21c:	8f5f007c 	lw	ra,124(k0)
  40b220:	8f5e0078 	lw	s8,120(k0)
  40b224:	8f5d0074 	lw	sp,116(k0)
  40b228:	8f5c0070 	lw	gp,112(k0)
  40b22c:	8f590064 	lw	t9,100(k0)
  40b230:	8f580060 	lw	t8,96(k0)
  40b234:	8f57005c 	lw	s7,92(k0)
  40b238:	8f560058 	lw	s6,88(k0)
  40b23c:	8f550054 	lw	s5,84(k0)
  40b240:	8f540050 	lw	s4,80(k0)
  40b244:	8f53004c 	lw	s3,76(k0)
  40b248:	8f520048 	lw	s2,72(k0)
  40b24c:	8f510044 	lw	s1,68(k0)
  40b250:	8f500040 	lw	s0,64(k0)
  40b254:	8f4f003c 	lw	t7,60(k0)
  40b258:	8f4e0038 	lw	t6,56(k0)
  40b25c:	8f4d0034 	lw	t5,52(k0)
  40b260:	8f4c0030 	lw	t4,48(k0)
  40b264:	8f4b002c 	lw	t3,44(k0)
  40b268:	8f4a0028 	lw	t2,40(k0)
  40b26c:	8f490024 	lw	t1,36(k0)
  40b270:	8f480020 	lw	t0,32(k0)
  40b274:	8f47001c 	lw	a3,28(k0)
  40b278:	8f460018 	lw	a2,24(k0)
  40b27c:	8f450014 	lw	a1,20(k0)
  40b280:	8f440010 	lw	a0,16(k0)
  40b284:	8f43000c 	lw	v1,12(k0)
  40b288:	8f420008 	lw	v0,8(k0)
  40b28c:	8f410004 	lw	at,4(k0)
  40b290:	8f5a0080 	lw	k0,128(k0)
  40b294:	08005c5d 	j	17174 <__tlb_stride_length+0x17173>
  40b298:	409a6000 	mtc0	k0,c0_status
  40b29c:	42000018 	eret
  40b2a0:	00000000 	nop

0040b2a4 <lcontext>:
  40b2a4:	3c010042 	lui	at,0x42
  40b2a8:	03e00008 	jr	ra
  40b2ac:	ac24b628 	sw	a0,-18904(at)
	...

0040b2c0 <ret_from_exception>:
  40b2c0:	40086000 	mfc0	t0,c0_status
  40b2c4:	35080003 	ori	t0,t0,0x3
  40b2c8:	39080003 	xori	t0,t0,0x3
  40b2cc:	40886000 	mtc0	t0,c0_status
  40b2d0:	8fa20080 	lw	v0,128(sp)
  40b2d4:	3403ff00 	li	v1,0xff00
  40b2d8:	01034024 	and	t0,t0,v1
  40b2dc:	00031827 	nor	v1,zero,v1
  40b2e0:	00431024 	and	v0,v0,v1
  40b2e4:	00481025 	or	v0,v0,t0
  40b2e8:	40826000 	mtc0	v0,c0_status
  40b2ec:	8fa30088 	lw	v1,136(sp)
  40b2f0:	00600013 	mtlo	v1
  40b2f4:	8fa20084 	lw	v0,132(sp)
  40b2f8:	8fa30094 	lw	v1,148(sp)
  40b2fc:	00400011 	mthi	v0
  40b300:	40837000 	mtc0	v1,c0_epc
  40b304:	8fbf007c 	lw	ra,124(sp)
  40b308:	8fbe0078 	lw	s8,120(sp)
  40b30c:	8fbc0070 	lw	gp,112(sp)
  40b310:	8fb90064 	lw	t9,100(sp)
  40b314:	8fb80060 	lw	t8,96(sp)
  40b318:	8fb7005c 	lw	s7,92(sp)
  40b31c:	8fb60058 	lw	s6,88(sp)
  40b320:	8fb50054 	lw	s5,84(sp)
  40b324:	8fb40050 	lw	s4,80(sp)
  40b328:	8fb3004c 	lw	s3,76(sp)
  40b32c:	8fb20048 	lw	s2,72(sp)
  40b330:	8fb10044 	lw	s1,68(sp)
  40b334:	8fb00040 	lw	s0,64(sp)
  40b338:	8faf003c 	lw	t7,60(sp)
  40b33c:	8fae0038 	lw	t6,56(sp)
  40b340:	8fad0034 	lw	t5,52(sp)
  40b344:	8fac0030 	lw	t4,48(sp)
  40b348:	8fab002c 	lw	t3,44(sp)
  40b34c:	8faa0028 	lw	t2,40(sp)
  40b350:	8fa90024 	lw	t1,36(sp)
  40b354:	8fa80020 	lw	t0,32(sp)
  40b358:	8fa7001c 	lw	a3,28(sp)
  40b35c:	8fa60018 	lw	a2,24(sp)
  40b360:	8fa50014 	lw	a1,20(sp)
  40b364:	8fa40010 	lw	a0,16(sp)
  40b368:	8fa3000c 	lw	v1,12(sp)
  40b36c:	8fa20008 	lw	v0,8(sp)
  40b370:	8fa10004 	lw	at,4(sp)
  40b374:	8fba0094 	lw	k0,148(sp)
  40b378:	8fbd0074 	lw	sp,116(sp)
  40b37c:	00000000 	nop
  40b380:	03400008 	jr	k0
  40b384:	42000010 	tlbgp
	...

0040b3a0 <handle_int>:
  40b3a0:	00000000 	nop
  40b3a4:	401a6000 	mfc0	k0,c0_status
  40b3a8:	001ad0c0 	sll	k0,k0,0x3
  40b3ac:	07400001 	bltz	k0,40b3b4 <handle_int+0x14>
  40b3b0:	00000000 	nop
  40b3b4:	03a0d025 	move	k0,sp
  40b3b8:	401b6800 	mfc0	k1,c0_cause
  40b3bc:	337b107c 	andi	k1,k1,0x107c
  40b3c0:	3b7b1000 	xori	k1,k1,0x1000
  40b3c4:	17600004 	bnez	k1,40b3d8 <handle_int+0x38>
  40b3c8:	00000000 	nop
  40b3cc:	3c1d8200 	lui	sp,0x8200
  40b3d0:	08102cfb 	j	40b3ec <handle_int+0x4c>
  40b3d4:	00000000 	nop
  40b3d8:	07a00004 	bltz	sp,40b3ec <handle_int+0x4c>
  40b3dc:	00000000 	nop
  40b3e0:	3c1d0042 	lui	sp,0x42
  40b3e4:	8fbdb638 	lw	sp,-18888(sp)
	...
  40b3f0:	03a0d825 	move	k1,sp
  40b3f4:	277dff64 	addiu	sp,k1,-156
  40b3f8:	afba0074 	sw	k0,116(sp)
  40b3fc:	afa20008 	sw	v0,8(sp)
  40b400:	40026000 	mfc0	v0,c0_status
  40b404:	afa20080 	sw	v0,128(sp)
  40b408:	40026800 	mfc0	v0,c0_cause
  40b40c:	afa20090 	sw	v0,144(sp)
  40b410:	40027000 	mfc0	v0,c0_epc
  40b414:	afa20094 	sw	v0,148(sp)
  40b418:	40024000 	mfc0	v0,c0_badvaddr
  40b41c:	afa2008c 	sw	v0,140(sp)
  40b420:	00001010 	mfhi	v0
  40b424:	afa20084 	sw	v0,132(sp)
  40b428:	00001012 	mflo	v0
  40b42c:	afa20088 	sw	v0,136(sp)
  40b430:	afa00000 	sw	zero,0(sp)
  40b434:	afa10004 	sw	at,4(sp)
  40b438:	afa3000c 	sw	v1,12(sp)
  40b43c:	afa40010 	sw	a0,16(sp)
  40b440:	afa50014 	sw	a1,20(sp)
  40b444:	afa60018 	sw	a2,24(sp)
  40b448:	afa7001c 	sw	a3,28(sp)
  40b44c:	afa80020 	sw	t0,32(sp)
  40b450:	afa90024 	sw	t1,36(sp)
  40b454:	afaa0028 	sw	t2,40(sp)
  40b458:	afab002c 	sw	t3,44(sp)
  40b45c:	afac0030 	sw	t4,48(sp)
  40b460:	afad0034 	sw	t5,52(sp)
  40b464:	afae0038 	sw	t6,56(sp)
  40b468:	afaf003c 	sw	t7,60(sp)
  40b46c:	afb00040 	sw	s0,64(sp)
  40b470:	afb10044 	sw	s1,68(sp)
  40b474:	afb20048 	sw	s2,72(sp)
  40b478:	afb3004c 	sw	s3,76(sp)
  40b47c:	afb40050 	sw	s4,80(sp)
  40b480:	afb50054 	sw	s5,84(sp)
  40b484:	afb60058 	sw	s6,88(sp)
  40b488:	afb7005c 	sw	s7,92(sp)
  40b48c:	afb80060 	sw	t8,96(sp)
  40b490:	afb90064 	sw	t9,100(sp)
  40b494:	afba0068 	sw	k0,104(sp)
  40b498:	afbb006c 	sw	k1,108(sp)
  40b49c:	afbc0070 	sw	gp,112(sp)
  40b4a0:	afbe0078 	sw	s8,120(sp)
  40b4a4:	afbf007c 	sw	ra,124(sp)
  40b4a8:	40086000 	mfc0	t0,c0_status
  40b4ac:	3c091000 	lui	t1,0x1000
  40b4b0:	35290001 	ori	t1,t1,0x1
  40b4b4:	01094025 	or	t0,t0,t1
  40b4b8:	39080001 	xori	t0,t0,0x1
  40b4bc:	40886000 	mtc0	t0,c0_status
  40b4c0:	40086800 	mfc0	t0,c0_cause
  40b4c4:	400a6000 	mfc0	t2,c0_status
  40b4c8:	010a4024 	and	t0,t0,t2
  40b4cc:	31091000 	andi	t1,t0,0x1000
  40b4d0:	15200001 	bnez	t1,40b4d8 <timer_irq>
  40b4d4:	00000000 	nop

0040b4d8 <timer_irq>:
  40b4d8:	081012aa 	j	404aa8 <sched_yield>
  40b4dc:	00000000 	nop
  40b4e0:	08102cb0 	j	40b2c0 <ret_from_exception>
  40b4e4:	00000000 	nop

0040b4e8 <do_refill>:
  40b4e8:	00000000 	nop
  40b4ec:	3c1b0042 	lui	k1,0x42
  40b4f0:	8f7bb628 	lw	k1,-18904(k1)
  40b4f4:	2401f000 	li	at,-4096
  40b4f8:	0361d824 	and	k1,k1,at
  40b4fc:	401a4000 	mfc0	k0,c0_badvaddr
  40b500:	001ad502 	srl	k0,k0,0x14
  40b504:	2401fffc 	li	at,-4
  40b508:	0341d024 	and	k0,k0,at
  40b50c:	035bd021 	addu	k0,k0,k1
  40b510:	8f5b0000 	lw	k1,0(k0)
  40b514:	00000000 	nop
  40b518:	03604025 	move	t0,k1
  40b51c:	31080200 	andi	t0,t0,0x200
  40b520:	1100001c 	beqz	t0,40b594 <NOPAGE>
  40b524:	00000000 	nop
  40b528:	2401f000 	li	at,-4096
  40b52c:	0361d824 	and	k1,k1,at
  40b530:	401a4000 	mfc0	k0,c0_badvaddr
  40b534:	001ad282 	srl	k0,k0,0xa
  40b538:	2401fffc 	li	at,-4
  40b53c:	0341d024 	and	k0,k0,at
  40b540:	335a0fff 	andi	k0,k0,0xfff
  40b544:	035bd021 	addu	k0,k0,k1
  40b548:	3c018000 	lui	at,0x8000
  40b54c:	0341d025 	or	k0,k0,at
  40b550:	8f5b0000 	lw	k1,0(k0)
  40b554:	00000000 	nop
  40b558:	03604025 	move	t0,k1
  40b55c:	31080200 	andi	t0,t0,0x200
  40b560:	1100000c 	beqz	t0,40b594 <NOPAGE>
  40b564:	00000000 	nop
  40b568:	0360d025 	move	k0,k1
  40b56c:	335a0001 	andi	k0,k0,0x1
  40b570:	13400003 	beqz	k0,40b580 <NoCOW>
  40b574:	00000000 	nop
  40b578:	2401fbff 	li	at,-1025
  40b57c:	0361d824 	and	k1,k1,at

0040b580 <NoCOW>:
  40b580:	409b1000 	mtc0	k1,c0_entrylo0
  40b584:	00000000 	nop
  40b588:	42000006 	tlbwr
  40b58c:	08102d73 	j	40b5cc <NOPAGE+0x38>
  40b590:	00000000 	nop

0040b594 <NOPAGE>:
  40b594:	00000000 	nop
  40b598:	40044000 	mfc0	a0,c0_badvaddr
  40b59c:	3c050042 	lui	a1,0x42
  40b5a0:	8ca5b628 	lw	a1,-18904(a1)
  40b5a4:	00000000 	nop
  40b5a8:	3c010042 	lui	at,0x42
  40b5ac:	ac3fb630 	sw	ra,-18896(at)
  40b5b0:	0c10242e 	jal	4090b8 <my_tlb_refill>
  40b5b4:	00000000 	nop
  40b5b8:	00000000 	nop
  40b5bc:	3c1f0042 	lui	ra,0x42
  40b5c0:	8fffb630 	lw	ra,-18896(ra)
  40b5c4:	00000000 	nop
  40b5c8:	08102d3a 	j	40b4e8 <do_refill>
  40b5cc:	00000000 	nop
  40b5d0:	03e00008 	jr	ra
  40b5d4:	00000000 	nop
	...

0040b5e0 <handle_reserved>:
  40b5e0:	00000000 	nop
  40b5e4:	401a6000 	mfc0	k0,c0_status
  40b5e8:	001ad0c0 	sll	k0,k0,0x3
  40b5ec:	07400001 	bltz	k0,40b5f4 <handle_reserved+0x14>
  40b5f0:	00000000 	nop
  40b5f4:	03a0d025 	move	k0,sp
  40b5f8:	401b6800 	mfc0	k1,c0_cause
  40b5fc:	337b107c 	andi	k1,k1,0x107c
  40b600:	3b7b1000 	xori	k1,k1,0x1000
  40b604:	17600004 	bnez	k1,40b618 <handle_reserved+0x38>
  40b608:	00000000 	nop
  40b60c:	3c1d8200 	lui	sp,0x8200
  40b610:	08102d8b 	j	40b62c <handle_reserved+0x4c>
  40b614:	00000000 	nop
  40b618:	07a00004 	bltz	sp,40b62c <handle_reserved+0x4c>
  40b61c:	00000000 	nop
  40b620:	3c1d0042 	lui	sp,0x42
  40b624:	8fbdb638 	lw	sp,-18888(sp)
	...
  40b630:	03a0d825 	move	k1,sp
  40b634:	277dff64 	addiu	sp,k1,-156
  40b638:	afba0074 	sw	k0,116(sp)
  40b63c:	afa20008 	sw	v0,8(sp)
  40b640:	40026000 	mfc0	v0,c0_status
  40b644:	afa20080 	sw	v0,128(sp)
  40b648:	40026800 	mfc0	v0,c0_cause
  40b64c:	afa20090 	sw	v0,144(sp)
  40b650:	40027000 	mfc0	v0,c0_epc
  40b654:	afa20094 	sw	v0,148(sp)
  40b658:	40024000 	mfc0	v0,c0_badvaddr
  40b65c:	afa2008c 	sw	v0,140(sp)
  40b660:	00001010 	mfhi	v0
  40b664:	afa20084 	sw	v0,132(sp)
  40b668:	00001012 	mflo	v0
  40b66c:	afa20088 	sw	v0,136(sp)
  40b670:	afa00000 	sw	zero,0(sp)
  40b674:	afa10004 	sw	at,4(sp)
  40b678:	afa3000c 	sw	v1,12(sp)
  40b67c:	afa40010 	sw	a0,16(sp)
  40b680:	afa50014 	sw	a1,20(sp)
  40b684:	afa60018 	sw	a2,24(sp)
  40b688:	afa7001c 	sw	a3,28(sp)
  40b68c:	afa80020 	sw	t0,32(sp)
  40b690:	afa90024 	sw	t1,36(sp)
  40b694:	afaa0028 	sw	t2,40(sp)
  40b698:	afab002c 	sw	t3,44(sp)
  40b69c:	afac0030 	sw	t4,48(sp)
  40b6a0:	afad0034 	sw	t5,52(sp)
  40b6a4:	afae0038 	sw	t6,56(sp)
  40b6a8:	afaf003c 	sw	t7,60(sp)
  40b6ac:	afb00040 	sw	s0,64(sp)
  40b6b0:	afb10044 	sw	s1,68(sp)
  40b6b4:	afb20048 	sw	s2,72(sp)
  40b6b8:	afb3004c 	sw	s3,76(sp)
  40b6bc:	afb40050 	sw	s4,80(sp)
  40b6c0:	afb50054 	sw	s5,84(sp)
  40b6c4:	afb60058 	sw	s6,88(sp)
  40b6c8:	afb7005c 	sw	s7,92(sp)
  40b6cc:	afb80060 	sw	t8,96(sp)
  40b6d0:	afb90064 	sw	t9,100(sp)
  40b6d4:	afba0068 	sw	k0,104(sp)
  40b6d8:	afbb006c 	sw	k1,108(sp)
  40b6dc:	afbc0070 	sw	gp,112(sp)
  40b6e0:	afbe0078 	sw	s8,120(sp)
  40b6e4:	afbf007c 	sw	ra,124(sp)
  40b6e8:	40086000 	mfc0	t0,c0_status
  40b6ec:	3c091000 	lui	t1,0x1000
  40b6f0:	35290001 	ori	t1,t1,0x1
  40b6f4:	01094025 	or	t0,t0,t1
  40b6f8:	39080001 	xori	t0,t0,0x1
  40b6fc:	40886000 	mtc0	t0,c0_status
  40b700:	03a02025 	move	a0,sp
  40b704:	0c102d3a 	jal	40b4e8 <do_refill>
  40b708:	00000000 	nop
  40b70c:	08102cb0 	j	40b2c0 <ret_from_exception>
  40b710:	00000000 	nop
	...

0040b720 <handle_tlb>:
  40b720:	00000000 	nop
  40b724:	401a6000 	mfc0	k0,c0_status
  40b728:	001ad0c0 	sll	k0,k0,0x3
  40b72c:	07400001 	bltz	k0,40b734 <handle_tlb+0x14>
  40b730:	00000000 	nop
  40b734:	03a0d025 	move	k0,sp
  40b738:	401b6800 	mfc0	k1,c0_cause
  40b73c:	337b107c 	andi	k1,k1,0x107c
  40b740:	3b7b1000 	xori	k1,k1,0x1000
  40b744:	17600004 	bnez	k1,40b758 <handle_tlb+0x38>
  40b748:	00000000 	nop
  40b74c:	3c1d8200 	lui	sp,0x8200
  40b750:	08102ddb 	j	40b76c <handle_tlb+0x4c>
  40b754:	00000000 	nop
  40b758:	07a00004 	bltz	sp,40b76c <handle_tlb+0x4c>
  40b75c:	00000000 	nop
  40b760:	3c1d0042 	lui	sp,0x42
  40b764:	8fbdb638 	lw	sp,-18888(sp)
	...
  40b770:	03a0d825 	move	k1,sp
  40b774:	277dff64 	addiu	sp,k1,-156
  40b778:	afba0074 	sw	k0,116(sp)
  40b77c:	afa20008 	sw	v0,8(sp)
  40b780:	40026000 	mfc0	v0,c0_status
  40b784:	afa20080 	sw	v0,128(sp)
  40b788:	40026800 	mfc0	v0,c0_cause
  40b78c:	afa20090 	sw	v0,144(sp)
  40b790:	40027000 	mfc0	v0,c0_epc
  40b794:	afa20094 	sw	v0,148(sp)
  40b798:	40024000 	mfc0	v0,c0_badvaddr
  40b79c:	afa2008c 	sw	v0,140(sp)
  40b7a0:	00001010 	mfhi	v0
  40b7a4:	afa20084 	sw	v0,132(sp)
  40b7a8:	00001012 	mflo	v0
  40b7ac:	afa20088 	sw	v0,136(sp)
  40b7b0:	afa00000 	sw	zero,0(sp)
  40b7b4:	afa10004 	sw	at,4(sp)
  40b7b8:	afa3000c 	sw	v1,12(sp)
  40b7bc:	afa40010 	sw	a0,16(sp)
  40b7c0:	afa50014 	sw	a1,20(sp)
  40b7c4:	afa60018 	sw	a2,24(sp)
  40b7c8:	afa7001c 	sw	a3,28(sp)
  40b7cc:	afa80020 	sw	t0,32(sp)
  40b7d0:	afa90024 	sw	t1,36(sp)
  40b7d4:	afaa0028 	sw	t2,40(sp)
  40b7d8:	afab002c 	sw	t3,44(sp)
  40b7dc:	afac0030 	sw	t4,48(sp)
  40b7e0:	afad0034 	sw	t5,52(sp)
  40b7e4:	afae0038 	sw	t6,56(sp)
  40b7e8:	afaf003c 	sw	t7,60(sp)
  40b7ec:	afb00040 	sw	s0,64(sp)
  40b7f0:	afb10044 	sw	s1,68(sp)
  40b7f4:	afb20048 	sw	s2,72(sp)
  40b7f8:	afb3004c 	sw	s3,76(sp)
  40b7fc:	afb40050 	sw	s4,80(sp)
  40b800:	afb50054 	sw	s5,84(sp)
  40b804:	afb60058 	sw	s6,88(sp)
  40b808:	afb7005c 	sw	s7,92(sp)
  40b80c:	afb80060 	sw	t8,96(sp)
  40b810:	afb90064 	sw	t9,100(sp)
  40b814:	afba0068 	sw	k0,104(sp)
  40b818:	afbb006c 	sw	k1,108(sp)
  40b81c:	afbc0070 	sw	gp,112(sp)
  40b820:	afbe0078 	sw	s8,120(sp)
  40b824:	afbf007c 	sw	ra,124(sp)
  40b828:	40086000 	mfc0	t0,c0_status
  40b82c:	3c091000 	lui	t1,0x1000
  40b830:	35290001 	ori	t1,t1,0x1
  40b834:	01094025 	or	t0,t0,t1
  40b838:	39080001 	xori	t0,t0,0x1
  40b83c:	40886000 	mtc0	t0,c0_status
  40b840:	03a02025 	move	a0,sp
  40b844:	0c102d3a 	jal	40b4e8 <do_refill>
  40b848:	00000000 	nop
  40b84c:	08102cb0 	j	40b2c0 <ret_from_exception>
  40b850:	00000000 	nop
	...

0040b860 <handle_mod>:
  40b860:	00000000 	nop
  40b864:	401a6000 	mfc0	k0,c0_status
  40b868:	001ad0c0 	sll	k0,k0,0x3
  40b86c:	07400001 	bltz	k0,40b874 <handle_mod+0x14>
  40b870:	00000000 	nop
  40b874:	03a0d025 	move	k0,sp
  40b878:	401b6800 	mfc0	k1,c0_cause
  40b87c:	337b107c 	andi	k1,k1,0x107c
  40b880:	3b7b1000 	xori	k1,k1,0x1000
  40b884:	17600004 	bnez	k1,40b898 <handle_mod+0x38>
  40b888:	00000000 	nop
  40b88c:	3c1d8200 	lui	sp,0x8200
  40b890:	08102e2b 	j	40b8ac <handle_mod+0x4c>
  40b894:	00000000 	nop
  40b898:	07a00004 	bltz	sp,40b8ac <handle_mod+0x4c>
  40b89c:	00000000 	nop
  40b8a0:	3c1d0042 	lui	sp,0x42
  40b8a4:	8fbdb638 	lw	sp,-18888(sp)
	...
  40b8b0:	03a0d825 	move	k1,sp
  40b8b4:	277dff64 	addiu	sp,k1,-156
  40b8b8:	afba0074 	sw	k0,116(sp)
  40b8bc:	afa20008 	sw	v0,8(sp)
  40b8c0:	40026000 	mfc0	v0,c0_status
  40b8c4:	afa20080 	sw	v0,128(sp)
  40b8c8:	40026800 	mfc0	v0,c0_cause
  40b8cc:	afa20090 	sw	v0,144(sp)
  40b8d0:	40027000 	mfc0	v0,c0_epc
  40b8d4:	afa20094 	sw	v0,148(sp)
  40b8d8:	40024000 	mfc0	v0,c0_badvaddr
  40b8dc:	afa2008c 	sw	v0,140(sp)
  40b8e0:	00001010 	mfhi	v0
  40b8e4:	afa20084 	sw	v0,132(sp)
  40b8e8:	00001012 	mflo	v0
  40b8ec:	afa20088 	sw	v0,136(sp)
  40b8f0:	afa00000 	sw	zero,0(sp)
  40b8f4:	afa10004 	sw	at,4(sp)
  40b8f8:	afa3000c 	sw	v1,12(sp)
  40b8fc:	afa40010 	sw	a0,16(sp)
  40b900:	afa50014 	sw	a1,20(sp)
  40b904:	afa60018 	sw	a2,24(sp)
  40b908:	afa7001c 	sw	a3,28(sp)
  40b90c:	afa80020 	sw	t0,32(sp)
  40b910:	afa90024 	sw	t1,36(sp)
  40b914:	afaa0028 	sw	t2,40(sp)
  40b918:	afab002c 	sw	t3,44(sp)
  40b91c:	afac0030 	sw	t4,48(sp)
  40b920:	afad0034 	sw	t5,52(sp)
  40b924:	afae0038 	sw	t6,56(sp)
  40b928:	afaf003c 	sw	t7,60(sp)
  40b92c:	afb00040 	sw	s0,64(sp)
  40b930:	afb10044 	sw	s1,68(sp)
  40b934:	afb20048 	sw	s2,72(sp)
  40b938:	afb3004c 	sw	s3,76(sp)
  40b93c:	afb40050 	sw	s4,80(sp)
  40b940:	afb50054 	sw	s5,84(sp)
  40b944:	afb60058 	sw	s6,88(sp)
  40b948:	afb7005c 	sw	s7,92(sp)
  40b94c:	afb80060 	sw	t8,96(sp)
  40b950:	afb90064 	sw	t9,100(sp)
  40b954:	afba0068 	sw	k0,104(sp)
  40b958:	afbb006c 	sw	k1,108(sp)
  40b95c:	afbc0070 	sw	gp,112(sp)
  40b960:	afbe0078 	sw	s8,120(sp)
  40b964:	afbf007c 	sw	ra,124(sp)
  40b968:	40086000 	mfc0	t0,c0_status
  40b96c:	3c091000 	lui	t1,0x1000
  40b970:	35290001 	ori	t1,t1,0x1
  40b974:	01094025 	or	t0,t0,t1
  40b978:	39080001 	xori	t0,t0,0x1
  40b97c:	40886000 	mtc0	t0,c0_status
  40b980:	03a02025 	move	a0,sp
  40b984:	0c1016b0 	jal	405ac0 <page_fault_handler>
  40b988:	00000000 	nop
  40b98c:	08102cb0 	j	40b2c0 <ret_from_exception>
  40b990:	00000000 	nop
	...

0040b9a0 <sys_cgetc>:
  40b9a0:	3c089000 	lui	t0,0x9000
  40b9a4:	81080000 	lb	t0,0(t0)
  40b9a8:	1100fffd 	beqz	t0,40b9a0 <sys_cgetc>
  40b9ac:	00000000 	nop
  40b9b0:	01001025 	move	v0,t0
  40b9b4:	03e00008 	jr	ra
  40b9b8:	00000000 	nop

0040b9bc <set_timer>:
  40b9bc:	24080001 	li	t0,1
  40b9c0:	3c01b500 	lui	at,0xb500
  40b9c4:	a0280100 	sb	t0,256(at)
  40b9c8:	3c010042 	lui	at,0x42
  40b9cc:	ac3db638 	sw	sp,-18888(at)
  40b9d0:	40086000 	mfc0	t0,c0_status
  40b9d4:	3c011000 	lui	at,0x1000
  40b9d8:	34211001 	ori	at,at,0x1001
  40b9dc:	01014025 	or	t0,t0,at
  40b9e0:	39080000 	xori	t0,t0,0x0
  40b9e4:	03e00008 	jr	ra
  40b9e8:	40886000 	mtc0	t0,c0_status
  40b9ec:	00000000 	nop

0040b9f0 <handle_sys>:
  40b9f0:	401a6000 	mfc0	k0,c0_status
  40b9f4:	001ad0c0 	sll	k0,k0,0x3
  40b9f8:	07400001 	bltz	k0,40ba00 <handle_sys+0x10>
  40b9fc:	00000000 	nop
  40ba00:	03a0d025 	move	k0,sp
  40ba04:	401b6800 	mfc0	k1,c0_cause
  40ba08:	337b107c 	andi	k1,k1,0x107c
  40ba0c:	3b7b1000 	xori	k1,k1,0x1000
  40ba10:	17600004 	bnez	k1,40ba24 <handle_sys+0x34>
  40ba14:	00000000 	nop
  40ba18:	3c1d8200 	lui	sp,0x8200
  40ba1c:	08102e8e 	j	40ba38 <handle_sys+0x48>
  40ba20:	00000000 	nop
  40ba24:	07a00004 	bltz	sp,40ba38 <handle_sys+0x48>
  40ba28:	00000000 	nop
  40ba2c:	3c1d0042 	lui	sp,0x42
  40ba30:	8fbdb638 	lw	sp,-18888(sp)
	...
  40ba3c:	03a0d825 	move	k1,sp
  40ba40:	277dff64 	addiu	sp,k1,-156
  40ba44:	afba0074 	sw	k0,116(sp)
  40ba48:	afa20008 	sw	v0,8(sp)
  40ba4c:	40026000 	mfc0	v0,c0_status
  40ba50:	afa20080 	sw	v0,128(sp)
  40ba54:	40026800 	mfc0	v0,c0_cause
  40ba58:	afa20090 	sw	v0,144(sp)
  40ba5c:	40027000 	mfc0	v0,c0_epc
  40ba60:	afa20094 	sw	v0,148(sp)
  40ba64:	40024000 	mfc0	v0,c0_badvaddr
  40ba68:	afa2008c 	sw	v0,140(sp)
  40ba6c:	00001010 	mfhi	v0
  40ba70:	afa20084 	sw	v0,132(sp)
  40ba74:	00001012 	mflo	v0
  40ba78:	afa20088 	sw	v0,136(sp)
  40ba7c:	afa00000 	sw	zero,0(sp)
  40ba80:	afa10004 	sw	at,4(sp)
  40ba84:	afa3000c 	sw	v1,12(sp)
  40ba88:	afa40010 	sw	a0,16(sp)
  40ba8c:	afa50014 	sw	a1,20(sp)
  40ba90:	afa60018 	sw	a2,24(sp)
  40ba94:	afa7001c 	sw	a3,28(sp)
  40ba98:	afa80020 	sw	t0,32(sp)
  40ba9c:	afa90024 	sw	t1,36(sp)
  40baa0:	afaa0028 	sw	t2,40(sp)
  40baa4:	afab002c 	sw	t3,44(sp)
  40baa8:	afac0030 	sw	t4,48(sp)
  40baac:	afad0034 	sw	t5,52(sp)
  40bab0:	afae0038 	sw	t6,56(sp)
  40bab4:	afaf003c 	sw	t7,60(sp)
  40bab8:	afb00040 	sw	s0,64(sp)
  40babc:	afb10044 	sw	s1,68(sp)
  40bac0:	afb20048 	sw	s2,72(sp)
  40bac4:	afb3004c 	sw	s3,76(sp)
  40bac8:	afb40050 	sw	s4,80(sp)
  40bacc:	afb50054 	sw	s5,84(sp)
  40bad0:	afb60058 	sw	s6,88(sp)
  40bad4:	afb7005c 	sw	s7,92(sp)
  40bad8:	afb80060 	sw	t8,96(sp)
  40badc:	afb90064 	sw	t9,100(sp)
  40bae0:	afba0068 	sw	k0,104(sp)
  40bae4:	afbb006c 	sw	k1,108(sp)
  40bae8:	afbc0070 	sw	gp,112(sp)
  40baec:	afbe0078 	sw	s8,120(sp)
  40baf0:	afbf007c 	sw	ra,124(sp)
  40baf4:	40086000 	mfc0	t0,c0_status
  40baf8:	3c091000 	lui	t1,0x1000
  40bafc:	35290001 	ori	t1,t1,0x1
  40bb00:	01094025 	or	t0,t0,t1
  40bb04:	39080001 	xori	t0,t0,0x1
  40bb08:	40886000 	mtc0	t0,c0_status
  40bb0c:	00000000 	nop
  40bb10:	8fa20008 	lw	v0,8(sp)
  40bb14:	2442dac9 	addiu	v0,v0,-9527
  40bb18:	2c480015 	sltiu	t0,v0,21
  40bb1c:	8fa90094 	lw	t1,148(sp)
  40bb20:	25290004 	addiu	t1,t1,4
  40bb24:	afa90094 	sw	t1,148(sp)
  40bb28:	1100001c 	beqz	t0,40bb9c <illegal_syscall>
  40bb2c:	00000000 	nop
  40bb30:	00024080 	sll	t0,v0,0x2
  40bb34:	3c090041 	lui	t1,0x41
  40bb38:	2529bba4 	addiu	t1,t1,-17500
  40bb3c:	01284821 	addu	t1,t1,t0
  40bb40:	8d2a0000 	lw	t2,0(t1)
  40bb44:	11400015 	beqz	t2,40bb9c <illegal_syscall>
  40bb48:	00000000 	nop
  40bb4c:	8fa80074 	lw	t0,116(sp)
  40bb50:	8d090000 	lw	t1,0(t0)
  40bb54:	8d0b0004 	lw	t3,4(t0)
  40bb58:	8d0c0008 	lw	t4,8(t0)
  40bb5c:	8d0d000c 	lw	t5,12(t0)
  40bb60:	8d0e0010 	lw	t6,16(t0)
  40bb64:	8d0f0014 	lw	t7,20(t0)
  40bb68:	27bdffec 	addiu	sp,sp,-20
  40bb6c:	afa90000 	sw	t1,0(sp)
  40bb70:	afab0004 	sw	t3,4(sp)
  40bb74:	afac0008 	sw	t4,8(sp)
  40bb78:	afad000c 	sw	t5,12(sp)
  40bb7c:	afae0010 	sw	t6,16(sp)
  40bb80:	afaf0014 	sw	t7,20(sp)
  40bb84:	0140f809 	jalr	t2
  40bb88:	00000000 	nop
  40bb8c:	27bd0014 	addiu	sp,sp,20
  40bb90:	afa20008 	sw	v0,8(sp)
  40bb94:	08102cb0 	j	40b2c0 <ret_from_exception>
  40bb98:	00000000 	nop

0040bb9c <illegal_syscall>:
  40bb9c:	08102ee7 	j	40bb9c <illegal_syscall>
  40bba0:	00000000 	nop

0040bba4 <sys_call_table>:
  40bba4:	00405090 	0x405090
  40bba8:	004050ac 	0x4050ac
  40bbac:	004050bc 	0x4050bc
  40bbb0:	004050f8 	0x4050f8
  40bbb4:	0040514c 	syscall	0x10145
  40bbb8:	004051b0 	tge	v0,zero,0x146
  40bbbc:	004052a8 	0x4052a8
  40bbc0:	00405404 	0x405404
  40bbc4:	0040548c 	syscall	0x10152
  40bbc8:	00405520 	0x405520
  40bbcc:	00405624 	0x405624
  40bbd0:	004056ac 	0x4056ac
  40bbd4:	00405778 	0x405778
  40bbd8:	004056e0 	0x4056e0
  40bbdc:	0040b9a0 	0x40b9a0

0040bbe0 <mips_tlbwi2>:
  40bbe0:	8fac0010 	lw	t4,16(sp)
  40bbe4:	40845000 	mtc0	a0,c0_entryhi
  40bbe8:	40851000 	mtc0	a1,c0_entrylo0
  40bbec:	40861800 	mtc0	a2,c0_entrylo1
  40bbf0:	40872800 	mtc0	a3,c0_pagemask
  40bbf4:	408c0000 	mtc0	t4,c0_index
  40bbf8:	000000c0 	ehb
  40bbfc:	42000002 	tlbwi
  40bc00:	03e00408 	jr.hb	ra
  40bc04:	00000000 	nop

0040bc08 <mips_tlbwr2>:
  40bc08:	40845000 	mtc0	a0,c0_entryhi
  40bc0c:	40851000 	mtc0	a1,c0_entrylo0
  40bc10:	40861800 	mtc0	a2,c0_entrylo1
  40bc14:	40872800 	mtc0	a3,c0_pagemask
  40bc18:	000000c0 	ehb
  40bc1c:	42000006 	tlbwr
  40bc20:	03e00408 	jr.hb	ra
  40bc24:	00000000 	nop

0040bc28 <mips_tlbrwr2>:
  40bc28:	40085000 	mfc0	t0,c0_entryhi
  40bc2c:	40845000 	mtc0	a0,c0_entryhi
  40bc30:	000000c0 	ehb
  40bc34:	42000008 	tlbp
  40bc38:	000000c0 	ehb
  40bc3c:	40020000 	mfc0	v0,c0_index
  40bc40:	40851000 	mtc0	a1,c0_entrylo0
  40bc44:	40861800 	mtc0	a2,c0_entrylo1
  40bc48:	40872800 	mtc0	a3,c0_pagemask
  40bc4c:	04400005 	bltz	v0,40bc64 <mips_tlbrwr2+0x3c>
  40bc50:	000000c0 	ehb
  40bc54:	42000002 	tlbwi
  40bc58:	40885000 	mtc0	t0,c0_entryhi
  40bc5c:	03e00408 	jr.hb	ra
  40bc60:	00000000 	nop
  40bc64:	42000006 	tlbwr
  40bc68:	40885000 	mtc0	t0,c0_entryhi
  40bc6c:	03e00408 	jr.hb	ra
  40bc70:	00000000 	nop

0040bc74 <mips_tlbri2>:
  40bc74:	8fac0010 	lw	t4,16(sp)
  40bc78:	408c0000 	mtc0	t4,c0_index
  40bc7c:	000000c0 	ehb
  40bc80:	42000001 	tlbr
  40bc84:	000000c0 	ehb
  40bc88:	40085000 	mfc0	t0,c0_entryhi
  40bc8c:	40091000 	mfc0	t1,c0_entrylo0
  40bc90:	400a1800 	mfc0	t2,c0_entrylo1
  40bc94:	400b2800 	mfc0	t3,c0_pagemask
  40bc98:	ac880000 	sw	t0,0(a0)
  40bc9c:	aca90000 	sw	t1,0(a1)
  40bca0:	acca0000 	sw	t2,0(a2)
  40bca4:	03e00008 	jr	ra
  40bca8:	aceb0000 	sw	t3,0(a3)

0040bcac <mips_tlbprobe2>:
  40bcac:	40085000 	mfc0	t0,c0_entryhi
  40bcb0:	40845000 	mtc0	a0,c0_entryhi
  40bcb4:	000000c0 	ehb
  40bcb8:	42000008 	tlbp
  40bcbc:	000000c0 	ehb
  40bcc0:	40020000 	mfc0	v0,c0_index
  40bcc4:	0440000c 	bltz	v0,40bcf8 <mips_tlbprobe2+0x4c>
  40bcc8:	00000000 	nop
  40bccc:	42000001 	tlbr
  40bcd0:	000000c0 	ehb
  40bcd4:	40031000 	mfc0	v1,c0_entrylo0
  40bcd8:	40091800 	mfc0	t1,c0_entrylo1
  40bcdc:	400a2800 	mfc0	t2,c0_pagemask
  40bce0:	40885000 	mtc0	t0,c0_entryhi
  40bce4:	aca30000 	sw	v1,0(a1)
  40bce8:	acc90000 	sw	t1,0(a2)
  40bcec:	acea0000 	sw	t2,0(a3)
  40bcf0:	03e00408 	jr.hb	ra
  40bcf4:	00000000 	nop
  40bcf8:	40885000 	mtc0	t0,c0_entryhi
  40bcfc:	2402ffff 	li	v0,-1
  40bd00:	03e00408 	jr.hb	ra
  40bd04:	00000000 	nop

0040bd08 <mips_tlbinval>:
  40bd08:	40085000 	mfc0	t0,c0_entryhi
  40bd0c:	40845000 	mtc0	a0,c0_entryhi
  40bd10:	000000c0 	ehb
  40bd14:	42000008 	tlbp
  40bd18:	000000c0 	ehb
  40bd1c:	40020000 	mfc0	v0,c0_index
  40bd20:	0440001c 	bltz	v0,40bd94 <mips_tlbinval+0x8c>
  40bd24:	00000000 	nop
  40bd28:	40801000 	mtc0	zero,c0_entrylo0
  40bd2c:	40801800 	mtc0	zero,c0_entrylo1
  40bd30:	40098003 	mfc0	t1,c0_config3
  40bd34:	7d2907c0 	ext	t1,t1,0x1f,0x1
  40bd38:	11200007 	beqz	t1,40bd58 <mips_tlbinval+0x50>
  40bd3c:	00000000 	nop
  40bd40:	40098004 	mfc0	t1,$16,4
  40bd44:	7d290f40 	ext	t1,t1,0x1d,0x2
  40bd48:	11200003 	beqz	t1,40bd58 <mips_tlbinval+0x50>
  40bd4c:	00000000 	nop
  40bd50:	1000000c 	b	40bd84 <mips_tlbinval+0x7c>
  40bd54:	24090400 	li	t1,1024
  40bd58:	3c097fff 	lui	t1,0x7fff
  40bd5c:	3529c000 	ori	t1,t1,0xc000
  40bd60:	25294000 	addiu	t1,t1,16384
  40bd64:	40895000 	mtc0	t1,c0_entryhi
  40bd68:	000000c0 	ehb
  40bd6c:	42000008 	tlbp
  40bd70:	000000c0 	ehb
  40bd74:	400a0000 	mfc0	t2,c0_index
  40bd78:	0541fff9 	bgez	t2,40bd60 <mips_tlbinval+0x58>
  40bd7c:	00000000 	nop
  40bd80:	40820000 	mtc0	v0,c0_index
  40bd84:	40895000 	mtc0	t1,c0_entryhi
  40bd88:	000000c0 	ehb
  40bd8c:	42000002 	tlbwi
  40bd90:	000000c0 	ehb
  40bd94:	40885000 	mtc0	t0,c0_entryhi
  40bd98:	03e00408 	jr.hb	ra
  40bd9c:	00000000 	nop

0040bda0 <mips_tlbinvalall>:
  40bda0:	40088000 	mfc0	t0,c0_config
  40bda4:	7d0811c0 	ext	t0,t0,0x7,0x3
  40bda8:	1100005b 	beqz	t0,40bf18 <mips_tlbinvalall+0x178>
  40bdac:	00000000 	nop
  40bdb0:	240a0003 	li	t2,3
  40bdb4:	110a0058 	beq	t0,t2,40bf18 <mips_tlbinvalall+0x178>
  40bdb8:	00000000 	nop
  40bdbc:	240a0002 	li	t2,2
  40bdc0:	110a0055 	beq	t0,t2,40bf18 <mips_tlbinvalall+0x178>
  40bdc4:	00000000 	nop
  40bdc8:	40801000 	mtc0	zero,c0_entrylo0
  40bdcc:	40801800 	mtc0	zero,c0_entrylo1
  40bdd0:	40802800 	mtc0	zero,c0_pagemask
  40bdd4:	03e0c025 	move	t8,ra
  40bdd8:	0c102fc9 	jal	40bf24 <mips_tlb_size>
  40bddc:	00000000 	nop
  40bde0:	0300f825 	move	ra,t8
  40bde4:	40198003 	mfc0	t9,c0_config3
  40bde8:	7f3907c0 	ext	t9,t9,0x1f,0x1
  40bdec:	1320002d 	beqz	t9,40bea4 <mips_tlbinvalall+0x104>
  40bdf0:	00000000 	nop
  40bdf4:	40198004 	mfc0	t9,$16,4
  40bdf8:	7f2a0f40 	ext	t2,t9,0x1d,0x2
  40bdfc:	11400029 	beqz	t2,40bea4 <mips_tlbinvalall+0x104>
  40be00:	00000000 	nop
  40be04:	24090001 	li	t1,1
  40be08:	112a001b 	beq	t1,t2,40be78 <mips_tlbinvalall+0xd8>
  40be0c:	00000000 	nop
  40be10:	24080001 	li	t0,1
  40be14:	11680006 	beq	t3,t0,40be30 <mips_tlbinvalall+0x90>
  40be18:	00000000 	nop
  40be1c:	24090003 	li	t1,3
  40be20:	112a0003 	beq	t1,t2,40be30 <mips_tlbinvalall+0x90>
  40be24:	00000000 	nop
  40be28:	10000005 	b	40be40 <mips_tlbinvalall+0xa0>
  40be2c:	00000000 	nop
  40be30:	40800000 	mtc0	zero,c0_index
  40be34:	000000c0 	ehb
  40be38:	10000037 	b	40bf18 <mips_tlbinvalall+0x178>
  40be3c:	42000004 	tlbinvf
  40be40:	40800000 	mtc0	zero,c0_index
  40be44:	000000c0 	ehb
  40be48:	42000004 	tlbinvf
  40be4c:	3c190000 	lui	t9,0x0
  40be50:	27390001 	addiu	t9,t9,1
  40be54:	70791802 	mul	v1,v1,t9
  40be58:	00435023 	subu	t2,v0,v1
  40be5c:	00591023 	subu	v0,v0,t9
  40be60:	40820000 	mtc0	v0,c0_index
  40be64:	000000c0 	ehb
  40be68:	144afffc 	bne	v0,t2,40be5c <mips_tlbinvalall+0xbc>
  40be6c:	42000004 	tlbinvf
  40be70:	10000029 	b	40bf18 <mips_tlbinvalall+0x178>
  40be74:	00000000 	nop
  40be78:	00001825 	move	v1,zero
  40be7c:	24090400 	li	t1,1024
  40be80:	40895000 	mtc0	t1,c0_entryhi
  40be84:	40830000 	mtc0	v1,c0_index
  40be88:	000000c0 	ehb
  40be8c:	42000002 	tlbwi
  40be90:	24630001 	addiu	v1,v1,1
  40be94:	1443fffb 	bne	v0,v1,40be84 <mips_tlbinvalall+0xe4>
  40be98:	00000000 	nop
  40be9c:	1000001e 	b	40bf18 <mips_tlbinvalall+0x178>
  40bea0:	00000000 	nop
  40bea4:	00004025 	move	t0,zero
  40bea8:	40198003 	mfc0	t9,c0_config3
  40beac:	31390080 	andi	t9,t1,0x80
  40beb0:	13200006 	beqz	t9,40becc <mips_tlbinvalall+0x12c>
  40beb4:	00000000 	nop
  40beb8:	40192801 	mfc0	t9,c0_pagegrain
  40bebc:	7d390740 	ext	t9,t1,0x1d,0x1
  40bec0:	17200002 	bnez	t9,40becc <mips_tlbinvalall+0x12c>
  40bec4:	00000000 	nop
  40bec8:	2408ffff 	li	t0,-1
  40becc:	3c097fff 	lui	t1,0x7fff
  40bed0:	3529c000 	ori	t1,t1,0xc000
  40bed4:	00001825 	move	v1,zero
  40bed8:	25294000 	addiu	t1,t1,16384
  40bedc:	11000002 	beqz	t0,40bee8 <mips_tlbinvalall+0x148>
  40bee0:	40895000 	mtc0	t1,c0_entryhi
  40bee4:	40c85000 	mthc0	t0,c0_entryhi
  40bee8:	000000c0 	ehb
  40beec:	42000008 	tlbp
  40bef0:	000000c0 	ehb
  40bef4:	40180000 	mfc0	t8,c0_index
  40bef8:	0701fff7 	bgez	t8,40bed8 <mips_tlbinvalall+0x138>
  40befc:	00000000 	nop
  40bf00:	40830000 	mtc0	v1,c0_index
  40bf04:	000000c0 	ehb
  40bf08:	42000002 	tlbwi
  40bf0c:	24630001 	addiu	v1,v1,1
  40bf10:	1443fff1 	bne	v0,v1,40bed8 <mips_tlbinvalall+0x138>
  40bf14:	00000000 	nop
  40bf18:	40805000 	mtc0	zero,c0_entryhi
  40bf1c:	03e00408 	jr.hb	ra
  40bf20:	00000000 	nop

0040bf24 <mips_tlb_size>:
  40bf24:	40088000 	mfc0	t0,c0_config
  40bf28:	40098001 	mfc0	t1,c0_config1
  40bf2c:	00001025 	move	v0,zero
  40bf30:	7d0811c0 	ext	t0,t0,0x7,0x3
  40bf34:	1100002e 	beqz	t0,40bff0 <mips_tlb_size+0xcc>
  40bf38:	00000000 	nop
  40bf3c:	240a0003 	li	t2,3
  40bf40:	110a002b 	beq	t0,t2,40bff0 <mips_tlb_size+0xcc>
  40bf44:	00000000 	nop
  40bf48:	240a0002 	li	t2,2
  40bf4c:	110a0028 	beq	t0,t2,40bff0 <mips_tlb_size+0xcc>
  40bf50:	00000000 	nop
  40bf54:	310a0005 	andi	t2,t0,0x5
  40bf58:	11400025 	beqz	t2,40bff0 <mips_tlb_size+0xcc>
  40bf5c:	00000000 	nop
  40bf60:	7d222e40 	ext	v0,t1,0x19,0x6
  40bf64:	24420001 	addiu	v0,v0,1
  40bf68:	40098003 	mfc0	t1,c0_config3
  40bf6c:	7d2907c0 	ext	t1,t1,0x1f,0x1
  40bf70:	1120001f 	beqz	t1,40bff0 <mips_tlb_size+0xcc>
  40bf74:	00000000 	nop
  40bf78:	40098004 	mfc0	t1,$16,4
  40bf7c:	7d2b0b80 	ext	t3,t1,0xe,0x2
  40bf80:	240a0003 	li	t2,3
  40bf84:	116a000c 	beq	t3,t2,40bfb8 <mips_tlb_size+0x94>
  40bf88:	00000000 	nop
  40bf8c:	240a0001 	li	t2,1
  40bf90:	116a0005 	beq	t3,t2,40bfa8 <mips_tlb_size+0x84>
  40bf94:	00000000 	nop
  40bf98:	11600015 	beqz	t3,40bff0 <mips_tlb_size+0xcc>
  40bf9c:	00000000 	nop
  40bfa0:	10000008 	b	40bfc4 <mips_tlb_size+0xa0>
  40bfa4:	00000000 	nop
  40bfa8:	7d2b3800 	ext	t3,t1,0x0,0x8
  40bfac:	000b5180 	sll	t2,t3,0x6
  40bfb0:	1000000f 	b	40bff0 <mips_tlb_size+0xcc>
  40bfb4:	004a1021 	addu	v0,v0,t2
  40bfb8:	7d2a1e00 	ext	t2,t1,0x18,0x4
  40bfbc:	000a5180 	sll	t2,t2,0x6
  40bfc0:	004a1021 	addu	v0,v0,t2
  40bfc4:	240b0004 	li	t3,4
  40bfc8:	15680009 	bne	t3,t0,40bff0 <mips_tlb_size+0xcc>
  40bfcc:	00000000 	nop
  40bfd0:	240a0002 	li	t2,2
  40bfd4:	7d2b1900 	ext	t3,t1,0x4,0x4
  40bfd8:	014b5021 	addu	t2,t2,t3
  40bfdc:	7d2b1800 	ext	t3,t1,0x0,0x4
  40bfe0:	24030001 	li	v1,1
  40bfe4:	01631804 	sllv	v1,v1,t3
  40bfe8:	016a5004 	sllv	t2,t2,t3
  40bfec:	004a1021 	addu	v0,v0,t2
  40bff0:	03e00008 	jr	ra
  40bff4:	00000000 	nop

0040bff8 <tlb_out>:
  40bff8:	00000000 	nop
  40bffc:	401b5000 	mfc0	k1,c0_entryhi
  40c000:	40845000 	mtc0	a0,c0_entryhi
  40c004:	00000000 	nop
  40c008:	42000008 	tlbp
	...
  40c01c:	401a0000 	mfc0	k0,c0_index
  40c020:	07400006 	bltz	k0,40c03c <NOFOUND>
  40c024:	00000000 	nop
  40c028:	00000000 	nop
  40c02c:	40805000 	mtc0	zero,c0_entryhi
  40c030:	40801000 	mtc0	zero,c0_entrylo0
  40c034:	00000000 	nop
  40c038:	42000002 	tlbwi

0040c03c <NOFOUND>:
  40c03c:	03e00008 	jr	ra
  40c040:	409b5000 	mtc0	k1,c0_entryhi
  40c044:	00000000 	nop

0040c048 <read_sector>:
  40c048:	3c019300 	lui	at,0x9300
  40c04c:	ac240000 	sw	a0,0(at)
  40c050:	24080000 	li	t0,0
  40c054:	3c019300 	lui	at,0x9300
  40c058:	ac280010 	sw	t0,16(at)
  40c05c:	24080000 	li	t0,0
  40c060:	3c019300 	lui	at,0x9300
  40c064:	a0280020 	sb	t0,32(at)
  40c068:	3c029300 	lui	v0,0x9300
  40c06c:	8c420030 	lw	v0,48(v0)
  40c070:	03e00008 	jr	ra
  40c074:	00000000 	nop
  40c078:	00000000 	nop

0040c07c <write_sector>:
  40c07c:	3c019300 	lui	at,0x9300
  40c080:	ac240000 	sw	a0,0(at)
  40c084:	24080000 	li	t0,0
  40c088:	3c019300 	lui	at,0x9300
  40c08c:	ac280010 	sw	t0,16(at)
  40c090:	24080001 	li	t0,1
  40c094:	3c019300 	lui	at,0x9300
  40c098:	a0280020 	sb	t0,32(at)
  40c09c:	3c029300 	lui	v0,0x9300
  40c0a0:	03e00008 	jr	ra
  40c0a4:	8c420030 	lw	v0,48(v0)
  40c0a8:	00000000 	nop

Disassembly of section .reset:

0040c0ac <__reset_vector>:
  40c0ac:	40804800 	mtc0	zero,c0_count

0040c0b0 <init_cp0>:
  40c0b0:	3c030040 	lui	v1,0x40
  40c0b4:	34630004 	ori	v1,v1,0x4
  40c0b8:	40836000 	mtc0	v1,c0_status
  40c0bc:	40806800 	mtc0	zero,c0_cause
  40c0c0:	40805800 	mtc0	zero,c0_compare

0040c0c4 <init_tlb>:
  40c0c4:	40038000 	mfc0	v1,c0_config
  40c0c8:	7c6311c0 	ext	v1,v1,0x7,0x3
  40c0cc:	24070001 	li	a3,1
  40c0d0:	1467000e 	bne	v1,a3,40c10c <init_icache>
  40c0d4:	40028001 	mfc0	v0,c0_config1
  40c0d8:	7c432e40 	ext	v1,v0,0x19,0x6
  40c0dc:	40801000 	mtc0	zero,c0_entrylo0
  40c0e0:	40801800 	mtc0	zero,c0_entrylo1
  40c0e4:	40802800 	mtc0	zero,c0_pagemask
  40c0e8:	40803000 	mtc0	zero,c0_wired
  40c0ec:	3c048000 	lui	a0,0x8000

0040c0f0 <next_tlb_entry>:
  40c0f0:	40830000 	mtc0	v1,c0_index
  40c0f4:	40845000 	mtc0	a0,c0_entryhi
  40c0f8:	000000c0 	ehb
  40c0fc:	42000002 	tlbwi
  40c100:	20844000 	addi	a0,a0,16384
  40c104:	1460fffa 	bnez	v1,40c0f0 <next_tlb_entry>
  40c108:	2063ffff 	addi	v1,v1,-1

0040c10c <init_icache>:
  40c10c:	40028001 	mfc0	v0,c0_config1
  40c110:	7c4314c0 	ext	v1,v0,0x13,0x3
  40c114:	10600010 	beqz	v1,40c158 <done_icache>
  40c118:	00000000 	nop
  40c11c:	24060002 	li	a2,2
  40c120:	00661804 	sllv	v1,a2,v1
  40c124:	7c441580 	ext	a0,v0,0x16,0x3
  40c128:	24060040 	li	a2,64
  40c12c:	00862004 	sllv	a0,a2,a0
  40c130:	7c451400 	ext	a1,v0,0x10,0x3
  40c134:	20a50001 	addi	a1,a1,1
  40c138:	70852002 	mul	a0,a0,a1
  40c13c:	3c068000 	lui	a2,0x8000
  40c140:	4080e000 	mtc0	zero,c0_taglo
  40c144:	00803825 	move	a3,a0

0040c148 <next_icache_tag>:
  40c148:	bcc80000 	cache	0x8,0(a2)
  40c14c:	20e7ffff 	addi	a3,a3,-1
  40c150:	14e0fffd 	bnez	a3,40c148 <next_icache_tag>
  40c154:	00c33020 	add	a2,a2,v1

0040c158 <done_icache>:
  40c158:	40028000 	mfc0	v0,c0_config
  40c15c:	24030003 	li	v1,3
  40c160:	7c621004 	ins	v0,v1,0x0,0x3
  40c164:	40828000 	mtc0	v0,c0_config
  40c168:	3c060041 	lui	a2,0x41
  40c16c:	24c6c178 	addiu	a2,a2,-16008
  40c170:	00c00008 	jr	a2
  40c174:	000000c0 	ehb

0040c178 <init_dcache>:
  40c178:	40028001 	mfc0	v0,c0_config1
  40c17c:	7c431280 	ext	v1,v0,0xa,0x3
  40c180:	10600011 	beqz	v1,40c1c8 <done_dcache>
  40c184:	00000000 	nop
  40c188:	24060002 	li	a2,2
  40c18c:	00661804 	sllv	v1,a2,v1
  40c190:	7c441340 	ext	a0,v0,0xd,0x3
  40c194:	24060040 	li	a2,64
  40c198:	00862004 	sllv	a0,a2,a0
  40c19c:	7c4511c0 	ext	a1,v0,0x7,0x3
  40c1a0:	20a50001 	addi	a1,a1,1
  40c1a4:	70852002 	mul	a0,a0,a1
  40c1a8:	3c068000 	lui	a2,0x8000
  40c1ac:	4080e000 	mtc0	zero,c0_taglo
  40c1b0:	4080e002 	mtc0	zero,c0_taglo1
  40c1b4:	00803825 	move	a3,a0

0040c1b8 <next_dcache_tag>:
  40c1b8:	bcc90000 	cache	0x9,0(a2)
  40c1bc:	20e7ffff 	addi	a3,a3,-1
  40c1c0:	14e0fffd 	bnez	a3,40c1b8 <next_dcache_tag>
  40c1c4:	00c33020 	add	a2,a2,v1

0040c1c8 <done_dcache>:
  40c1c8:	3c1f0041 	lui	ra,0x41
  40c1cc:	27ffc1e8 	addiu	ra,ra,-15896
  40c1d0:	00002025 	move	a0,zero
  40c1d4:	3c020041 	lui	v0,0x41
  40c1d8:	2442b18c 	addiu	v0,v0,-20084
  40c1dc:	4082f000 	mtc0	v0,c0_errorepc
  40c1e0:	000000c0 	ehb
  40c1e4:	42000018 	eret

0040c1e8 <all_done>:
  40c1e8:	1000ffff 	b	40c1e8 <all_done>
  40c1ec:	00000000 	nop

Disassembly of section .text.exc_vec3:

0040c1f0 <except_vec3>:
  40c1f0:	00000000 	nop
  40c1f4:	081030dc 	j	40c370 <_mips_general_exception>
  40c1f8:	00000000 	nop
	...

0040c270 <__xtlb_refill_loop>:
  40c270:	00000000 	nop
  40c274:	081030dc 	j	40c370 <_mips_general_exception>
  40c278:	00000000 	nop
	...

0040c2f0 <__cache_error_loop>:
  40c2f0:	00000000 	nop
  40c2f4:	081030dc 	j	40c370 <_mips_general_exception>
  40c2f8:	00000000 	nop
	...

0040c370 <_mips_general_exception>:
  40c370:	00000000 	nop
  40c374:	401b6800 	mfc0	k1,c0_cause
  40c378:	3c1a0042 	lui	k0,0x42
  40c37c:	275a5d74 	addiu	k0,k0,23924
  40c380:	337b007c 	andi	k1,k1,0x7c
  40c384:	035bd021 	addu	k0,k0,k1
  40c388:	8f5a0000 	lw	k0,0(k0)
  40c38c:	00000000 	nop
  40c390:	03400008 	jr	k0
  40c394:	00000000 	nop

Disassembly of section .data:

0040d000 <fsipcbuf>:
	...

0040e000 <fdtab>:
	...

0040f000 <envss>:
  40f000:	7f400000 	ext	zero,k0,0x0,0x1

0040f004 <pages>:
  40f004:	7f800000 	ext	zero,gp,0x0,0x1

0040f008 <vpt>:
  40f008:	7fc00000 	ext	zero,s8,0x0,0x1

0040f00c <vpd>:
  40f00c:	7fdff000 	ext	ra,s8,0x0,0x1f

0040f010 <__pgfault_handler>:
  40f010:	00000000 	nop

0040f014 <devfile>:
  40f014:	00000066 	0x66
  40f018:	0041bf3c 	0x41bf3c
  40f01c:	00401c38 	0x401c38
  40f020:	00401fa0 	0x401fa0
  40f024:	00401b54 	0x401b54
  40f028:	00401b00 	0x401b00
  40f02c:	00000000 	nop

0040f030 <devpipe>:
  40f030:	00000070 	tge	zero,zero,0x1
  40f034:	0041bf58 	0x41bf58
  40f038:	00402204 	0x402204
  40f03c:	0040214c 	syscall	0x10085
  40f040:	0040208c 	syscall	0x10082
  40f044:	00402084 	0x402084
  40f048:	00000000 	nop

0040f04c <devcons>:
  40f04c:	00000063 	0x63
  40f050:	0041c098 	0x41c098
  40f054:	00402f14 	0x402f14
  40f058:	00402e60 	0x402e60
  40f05c:	00402e24 	0x402e24
  40f060:	00402e2c 	0x402e2c
  40f064:	00000000 	nop

0040f068 <Stat>:
  40f068:	00000001 	movf	zero,zero,$fcc0

0040f06c <spi_base_ptr>:
  40f06c:	b0900000 	0xb0900000

0040f070 <boutcode>:
  40f070:	464c457f 	c1	0x4c457f
  40f074:	00010201 	0x10201
	...
  40f080:	08000200 	j	800 <__tlb_stride_length+0x7ff>
  40f084:	01000000 	0x1000000
  40f088:	b0004000 	0xb0004000
  40f08c:	34000000 	li	zero,0x0
  40f090:	b00f0000 	0xb00f0000
  40f094:	01100050 	0x1100050
  40f098:	20003400 	addi	zero,zero,13312
  40f09c:	28000300 	slti	zero,zero,768
  40f0a0:	0a000d00 	j	8003400 <_end+0x7bdd5ec>
  40f0a4:	00000070 	tge	zero,zero,0x1
  40f0a8:	94000000 	lhu	zero,0(zero)
  40f0ac:	94004000 	lhu	zero,16384(zero)
  40f0b0:	94004000 	lhu	zero,16384(zero)
  40f0b4:	18000000 	blez	zero,40f0b8 <boutcode+0x48>
  40f0b8:	18000000 	blez	zero,40f0bc <boutcode+0x4c>
  40f0bc:	04000000 	bltz	zero,40f0c0 <boutcode+0x50>
  40f0c0:	04000000 	bltz	zero,40f0c4 <boutcode+0x54>
  40f0c4:	01000000 	0x1000000
  40f0c8:	94000000 	lhu	zero,0(zero)
  40f0cc:	94004000 	lhu	zero,16384(zero)
  40f0d0:	94004000 	lhu	zero,16384(zero)
  40f0d4:	b20c0000 	0xb20c0000
  40f0d8:	b20c0000 	0xb20c0000
  40f0dc:	05000000 	bltz	t0,40f0e0 <boutcode+0x70>
  40f0e0:	10000000 	b	40f0e4 <boutcode+0x74>
  40f0e4:	01000000 	0x1000000
  40f0e8:	500d0000 	beql	zero,t5,40f0ec <boutcode+0x7c>
  40f0ec:	00000010 	mfhi	zero
  40f0f0:	00000010 	mfhi	zero
	...
  40f0fc:	06000000 	bltz	s0,40f100 <boutcode+0x90>
  40f100:	10000000 	b	40f104 <boutcode+0x94>
  40f104:	300001a0 	andi	zero,zero,0x1a0
	...
  40f118:	f07f0010 	0xf07f0010
  40f11c:	00000000 	nop
  40f120:	e8ffbd27 	swc2	$31,-17113(a3)
  40f124:	1400bfaf 	bnez	zero,3fefe4 <__tlb_stride_length+0x3fefe3>
  40f128:	1000b0af 	b	3fb3e8 <__tlb_stride_length+0x3fb3e7>
  40f12c:	4000103c 	0x4000103c
  40f130:	100b0426 	beq	zero,t3,4101cc <boutcode+0x115c>
  40f134:	9902100c 	lwr	v0,4108(t0)
  40f138:	02000524 	0x2000524
  40f13c:	fdff0010 	sdc3	$31,16(t7)
  40f140:	100b0426 	beq	zero,t3,4101dc <boutcode+0x116c>
  40f144:	00000000 	nop
	...
  40f150:	ff008430 	sdc3	$0,-31696(t8)
  40f154:	0090023c 	0x90023c
  40f158:	000044a0 	0x44a0
  40f15c:	0800e003 	j	3800c <__tlb_stride_length+0x3800b>
  40f160:	00000000 	nop
  40f164:	0090023c 	0x90023c
  40f168:	10004234 	b	41fa3c <__bss_start+0x2300>
  40f16c:	000040a0 	0x40a0
  40f170:	0800e003 	j	3800c <__tlb_stride_length+0x3800b>
  40f174:	00000000 	nop
  40f178:	e8ffbd27 	swc2	$31,-17113(a3)
  40f17c:	1400bfaf 	bnez	zero,3ff03c <__tlb_stride_length+0x3ff03b>
  40f180:	1000b0af 	b	3fb440 <__tlb_stride_length+0x3fb43f>
  40f184:	21808000 	addi	zero,t4,-32768
  40f188:	00008480 	sll	s0,zero,0x12
  40f18c:	06008010 	bltz	s0,3ef1d0 <__tlb_stride_length+0x3ef1cf>
  40f190:	1400bf8f 	bnez	zero,3fefd0 <__tlb_stride_length+0x3fefcf>
  40f194:	3800100c 	xori	zero,zero,0x100c
  40f198:	01001026 	xor	v0,t0,zero
  40f19c:	00000482 	srl	zero,zero,0x12
  40f1a0:	fcff8014 	sdc3	$31,-32748(a3)
  40f1a4:	1400bf8f 	bnez	zero,3fefe4 <__tlb_stride_length+0x3fefe3>
  40f1a8:	1000b08f 	b	3fb3e8 <__tlb_stride_length+0x3fb3e7>
  40f1ac:	0800e003 	j	3800c <__tlb_stride_length+0x3800b>
  40f1b0:	1800bd27 	blez	zero,3fe650 <__tlb_stride_length+0x3fe64f>
  40f1b4:	00000000 	nop
	...
  40f1c0:	78ffbd27 	st.d	$w20,2040(s7)
  40f1c4:	8400bfaf 	lh	zero,-16465(zero)
  40f1c8:	8000b4af 	lb	zero,-19281(zero)
  40f1cc:	7c00b3af 	lwe	zero,-153(zero)
  40f1d0:	7800b2af 	0x7800b2af
  40f1d4:	7400b1af 	jalx	2c6bc <__tlb_stride_length+0x2c6bb>
  40f1d8:	7000b0af 	0x7000b0af
  40f1dc:	21988000 	addi	t8,t4,-32768
  40f1e0:	21a0a000 	addi	zero,t5,-24576
  40f1e4:	2128c000 	addi	t0,t1,-16384
  40f1e8:	2190e000 	addi	s0,t4,-8192
  40f1ec:	0000a380 	sll	s4,zero,0xe
  40f1f0:	0c006010 	jal	18040 <__tlb_stride_length+0x1803f>
  40f1f4:	2180a000 	addi	zero,t4,-24576
  40f1f8:	48010010 	0x48010010
  40f1fc:	25000224 	addiu	zero,t0,548
  40f200:	2180a000 	addi	zero,t4,-24576
  40f204:	01001026 	xor	v0,t0,zero
  40f208:	00000282 	srl	zero,zero,0xa
  40f20c:	06004010 	bltz	s0,41f250 <__bss_start+0x1b14>
  40f210:	23300502 	addi	s0,t9,1282
  40f214:	05004310 	bltz	t0,41fe58 <__bss_start+0x271c>
  40f218:	5100c22c 	beqzl	t0,3ffacc <__tlb_stride_length+0x3ffacb>
  40f21c:	faff0010 	sdc2	$31,16(s7)
  40f220:	01001026 	xor	v0,t0,zero
  40f224:	23300502 	addi	s0,t9,1282
  40f228:	5100c22c 	beqzl	t0,3ffadc <__tlb_stride_length+0x3ffadb>
  40f22c:	07004014 	bltz	t8,41f280 <__bss_start+0x1b44>
  40f230:	21208002 	addi	zero,t1,-32766
  40f234:	4000053c 	0x4000053c
  40f238:	200ba524 	addi	t3,zero,-23260
  40f23c:	09f86002 	j	7e18008 <_end+0x79f21f4>
  40f240:	18000624 	blez	zero,410ad4 <aoutcode+0x5b0>
  40f244:	ffff0010 	sdc3	$31,16(ra)
  40f248:	00000000 	nop
  40f24c:	09f86002 	j	7e18008 <_end+0x79f21f4>
  40f250:	21208002 	addi	zero,t1,-32766
  40f254:	00000282 	srl	zero,zero,0xa
  40f258:	23014010 	addi	at,t8,16400
  40f25c:	6c000224 	0x6c000224
  40f260:	01000382 	0x1000382
  40f264:	03006210 	0x3006210
  40f268:	01001126 	0x1001126
  40f26c:	03000010 	0x3000010
  40f270:	21200000 	addi	zero,t1,0
  40f274:	02001126 	0x2001126
  40f278:	01000424 	0x1000424
  40f27c:	00002382 	srl	a0,zero,0xe
  40f280:	2d000224 	sltiu	zero,t0,548
  40f284:	04006214 	bltz	zero,427ad8 <_end+0x1cc4>
  40f288:	21380000 	addi	t8,t1,0
  40f28c:	01003126 	0x1003126
  40f290:	01000724 	0x1000724
  40f294:	00002382 	srl	a0,zero,0xe
  40f298:	30000224 	andi	zero,zero,0x224
  40f29c:	03006214 	0x3006214
  40f2a0:	20000924 	addi	zero,zero,2340
  40f2a4:	01003126 	0x1003126
  40f2a8:	30000924 	andi	zero,zero,0x924
  40f2ac:	00002682 	srl	a0,zero,0x1a
  40f2b0:	d0ffc224 	0xd0ffc224
  40f2b4:	ff004230 	sdc3	$0,16944(t8)
  40f2b8:	0a00422c 	j	80108b0 <_end+0x7beaa9c>
  40f2bc:	0d004010 	jal	4010040 <_end+0x3bea22c>
  40f2c0:	21400000 	addi	zero,t2,0
  40f2c4:	40100800 	mfc0	s0,c0_random
  40f2c8:	c0180800 	ll	t8,2048(zero)
  40f2cc:	21104300 	addi	s0,t0,17152
  40f2d0:	21104600 	addi	s0,t0,17920
  40f2d4:	d0ff4824 	0xd0ff4824
  40f2d8:	01003126 	0x1003126
  40f2dc:	00002682 	srl	a0,zero,0x1a
  40f2e0:	d0ffc224 	0xd0ffc224
  40f2e4:	ff004230 	sdc3	$0,16944(t8)
  40f2e8:	0a00422c 	j	80108b0 <_end+0x7beaa9c>
  40f2ec:	f6ff4014 	sdc1	$f31,16404(s7)
  40f2f0:	40100800 	mfc0	s0,c0_random
  40f2f4:	00002382 	srl	a0,zero,0xe
  40f2f8:	2e000224 	sltiu	zero,s0,548
  40f2fc:	11006214 	beqz	t0,427b50 <_end+0x1d3c>
  40f300:	7900622c 	0x7900622c
  40f304:	01003126 	0x1003126
  40f308:	00002292 	0x2292
  40f30c:	d0ff4224 	0xd0ff4224
  40f310:	ff004230 	sdc3	$0,16944(t8)
  40f314:	0a00422c 	j	80108b0 <_end+0x7beaa9c>
  40f318:	08004010 	j	10040 <__tlb_stride_length+0x1003f>
  40f31c:	00000000 	nop
  40f320:	01003126 	0x1003126
  40f324:	00002292 	0x2292
  40f328:	d0ff4224 	0xd0ff4224
  40f32c:	ff004230 	sdc3	$0,16944(t8)
  40f330:	0a00422c 	j	80108b0 <_end+0x7beaa9c>
  40f334:	faff4014 	sdc2	$31,16404(s7)
  40f338:	00000000 	nop
  40f33c:	00002382 	srl	a0,zero,0xe
  40f340:	7900622c 	0x7900622c
  40f344:	e2004010 	sc	zero,16400(s0)
  40f348:	80100300 	lb	s0,768(zero)
  40f34c:	4000033c 	0x4000033c
  40f350:	400b6324 	0x400b6324
  40f354:	21104300 	addi	s0,t0,17152
  40f358:	0000428c 	syscall	0x10a
  40f35c:	08004000 	j	10000 <__tlb_stride_length+0xffff>
  40f360:	00000000 	nop
  40f364:	04008010 	bltz	zero,3ef3a8 <__tlb_stride_length+0x3ef3a7>
  40f368:	00000000 	nop
  40f36c:	0000458e 	0x458e
  40f370:	03000010 	0x3000010
  40f374:	04005226 	bltz	zero,423c10 <__bss_start+0x64d4>
  40f378:	0000458e 	0x458e
  40f37c:	04005226 	bltz	zero,423c18 <__bss_start+0x64dc>
  40f380:	1000a8af 	b	3f9640 <__tlb_stride_length+0x3f963f>
  40f384:	1400a7af 	bnez	zero,3f9244 <__tlb_stride_length+0x3f9243>
  40f388:	1800a9af 	blez	zero,3f9a48 <__tlb_stride_length+0x3f9a47>
  40f38c:	1c00a0af 	bgtz	zero,3f764c <__tlb_stride_length+0x3f764b>
  40f390:	2000a427 	addi	zero,zero,-23513
  40f394:	02000624 	0x2000624
  40f398:	1102100c 	beq	t0,v0,4133cc <binary_user_B_start+0x538>
  40f39c:	21380000 	addi	t8,t1,0
  40f3a0:	21304000 	addi	s0,t1,16384
  40f3a4:	5100422c 	beqzl	t0,41fc58 <__bss_start+0x251c>
  40f3a8:	07004014 	bltz	t8,41f3fc <__bss_start+0x1cc0>
  40f3ac:	21208002 	addi	zero,t1,-32766
  40f3b0:	4000053c 	0x4000053c
  40f3b4:	200ba524 	addi	t3,zero,-23260
  40f3b8:	09f86002 	j	7e18008 <_end+0x79f21f4>
  40f3bc:	18000624 	blez	zero,410c50 <aoutcode+0x72c>
  40f3c0:	ffff0010 	sdc3	$31,16(ra)
  40f3c4:	00000000 	nop
  40f3c8:	09f86002 	j	7e18008 <_end+0x79f21f4>
  40f3cc:	2000a527 	addi	zero,zero,-23257
  40f3d0:	86ff0010 	lh	ra,16(s7)
  40f3d4:	01002526 	0x1002526
  40f3d8:	04008010 	bltz	zero,3ef41c <__tlb_stride_length+0x3ef41b>
  40f3dc:	00000000 	nop
  40f3e0:	0000458e 	0x458e
  40f3e4:	03000010 	0x3000010
  40f3e8:	04005226 	bltz	zero,423c84 <__bss_start+0x6548>
  40f3ec:	0000458e 	0x458e
  40f3f0:	04005226 	bltz	zero,423c8c <__bss_start+0x6550>
  40f3f4:	0300a104 	0x300a104
  40f3f8:	21100000 	addi	s0,t0,0
  40f3fc:	23280500 	addi	t0,t9,1280
  40f400:	01000224 	0x1000224
  40f404:	1000a8af 	b	3f96c4 <__tlb_stride_length+0x3f96c3>
  40f408:	1400a7af 	bnez	zero,3f92c8 <__tlb_stride_length+0x3f92c7>
  40f40c:	1800a9af 	blez	zero,3f9acc <__tlb_stride_length+0x3f9acb>
  40f410:	1c00a0af 	bgtz	zero,3f76d0 <__tlb_stride_length+0x3f76cf>
  40f414:	2000a427 	addi	zero,zero,-23513
  40f418:	0a000624 	j	8001890 <_end+0x7bdba7c>
  40f41c:	1102100c 	beq	t0,v0,413450 <binary_user_B_start+0x5bc>
  40f420:	21384000 	addi	t8,t1,16384
  40f424:	21304000 	addi	s0,t1,16384
  40f428:	5100422c 	beqzl	t0,41fcdc <__bss_start+0x25a0>
  40f42c:	07004014 	bltz	t8,41f480 <__bss_start+0x1d44>
  40f430:	21208002 	addi	zero,t1,-32766
  40f434:	4000053c 	0x4000053c
  40f438:	200ba524 	addi	t3,zero,-23260
  40f43c:	09f86002 	j	7e18008 <_end+0x79f21f4>
  40f440:	18000624 	blez	zero,410cd4 <aoutcode+0x7b0>
  40f444:	ffff0010 	sdc3	$31,16(ra)
  40f448:	00000000 	nop
  40f44c:	09f86002 	j	7e18008 <_end+0x79f21f4>
  40f450:	2000a527 	addi	zero,zero,-23257
  40f454:	65ff0010 	0x65ff0010
  40f458:	01002526 	0x1002526
  40f45c:	04008010 	bltz	zero,3ef4a0 <__tlb_stride_length+0x3ef49f>
  40f460:	00000000 	nop
  40f464:	0000458e 	0x458e
  40f468:	03000010 	0x3000010
  40f46c:	04005226 	bltz	zero,423d08 <__bss_start+0x65cc>
  40f470:	0000458e 	0x458e
  40f474:	04005226 	bltz	zero,423d10 <__bss_start+0x65d4>
  40f478:	1000a8af 	b	3f9738 <__tlb_stride_length+0x3f9737>
  40f47c:	1400a7af 	bnez	zero,3f933c <__tlb_stride_length+0x3f933b>
  40f480:	1800a9af 	blez	zero,3f9b40 <__tlb_stride_length+0x3f9b3f>
  40f484:	1c00a0af 	bgtz	zero,3f7744 <__tlb_stride_length+0x3f7743>
  40f488:	2000a427 	addi	zero,zero,-23513
  40f48c:	08000624 	j	1890 <__tlb_stride_length+0x188f>
  40f490:	1102100c 	beq	t0,v0,4134c4 <binary_user_B_start+0x630>
  40f494:	21380000 	addi	t8,t1,0
  40f498:	21304000 	addi	s0,t1,16384
  40f49c:	5100422c 	beqzl	t0,41fd50 <__bss_start+0x2614>
  40f4a0:	07004014 	bltz	t8,41f4f4 <__bss_start+0x1db8>
  40f4a4:	21208002 	addi	zero,t1,-32766
  40f4a8:	4000053c 	0x4000053c
  40f4ac:	200ba524 	addi	t3,zero,-23260
  40f4b0:	09f86002 	j	7e18008 <_end+0x79f21f4>
  40f4b4:	18000624 	blez	zero,410d48 <aoutcode+0x824>
  40f4b8:	ffff0010 	sdc3	$31,16(ra)
  40f4bc:	00000000 	nop
  40f4c0:	09f86002 	j	7e18008 <_end+0x79f21f4>
  40f4c4:	2000a527 	addi	zero,zero,-23257
  40f4c8:	48ff0010 	mthc2	ra,0x10
  40f4cc:	01002526 	0x1002526
  40f4d0:	04008010 	bltz	zero,3ef514 <__tlb_stride_length+0x3ef513>
  40f4d4:	00000000 	nop
  40f4d8:	0000458e 	0x458e
  40f4dc:	03000010 	0x3000010
  40f4e0:	04005226 	bltz	zero,423d7c <__bss_start+0x6640>
  40f4e4:	0000458e 	0x458e
  40f4e8:	04005226 	bltz	zero,423d84 <__bss_start+0x6648>
  40f4ec:	1000a8af 	b	3f97ac <__tlb_stride_length+0x3f97ab>
  40f4f0:	1400a7af 	bnez	zero,3f93b0 <__tlb_stride_length+0x3f93af>
  40f4f4:	1800a9af 	blez	zero,3f9bb4 <__tlb_stride_length+0x3f9bb3>
  40f4f8:	1c00a0af 	bgtz	zero,3f77b8 <__tlb_stride_length+0x3f77b7>
  40f4fc:	2000a427 	addi	zero,zero,-23513
  40f500:	0a000624 	j	8001890 <_end+0x7bdba7c>
  40f504:	1102100c 	beq	t0,v0,413538 <binary_user_B_start+0x6a4>
  40f508:	21380000 	addi	t8,t1,0
  40f50c:	21304000 	addi	s0,t1,16384
  40f510:	5100422c 	beqzl	t0,41fdc4 <__bss_start+0x2688>
  40f514:	07004014 	bltz	t8,41f568 <__bss_start+0x1e2c>
  40f518:	21208002 	addi	zero,t1,-32766
  40f51c:	4000053c 	0x4000053c
  40f520:	200ba524 	addi	t3,zero,-23260
  40f524:	09f86002 	j	7e18008 <_end+0x79f21f4>
  40f528:	18000624 	blez	zero,410dbc <aoutcode+0x898>
  40f52c:	ffff0010 	sdc3	$31,16(ra)
  40f530:	00000000 	nop
  40f534:	09f86002 	j	7e18008 <_end+0x79f21f4>
  40f538:	2000a527 	addi	zero,zero,-23257
  40f53c:	2bff0010 	slti	ra,ra,16
  40f540:	01002526 	0x1002526
  40f544:	04008010 	bltz	zero,3ef588 <__tlb_stride_length+0x3ef587>
  40f548:	00000000 	nop
  40f54c:	0000458e 	0x458e
  40f550:	03000010 	0x3000010
  40f554:	04005226 	bltz	zero,423df0 <__bss_start+0x66b4>
  40f558:	0000458e 	0x458e
  40f55c:	04005226 	bltz	zero,423df8 <__bss_start+0x66bc>
  40f560:	1000a8af 	b	3f9820 <__tlb_stride_length+0x3f981f>
  40f564:	1400a7af 	bnez	zero,3f9424 <__tlb_stride_length+0x3f9423>
  40f568:	1800a9af 	blez	zero,3f9c28 <__tlb_stride_length+0x3f9c27>
  40f56c:	1c00a0af 	bgtz	zero,3f782c <__tlb_stride_length+0x3f782b>
  40f570:	2000a427 	addi	zero,zero,-23513
  40f574:	10000624 	b	410e08 <aoutcode+0x8e4>
  40f578:	1102100c 	beq	t0,v0,4135ac <binary_user_B_start+0x718>
  40f57c:	21380000 	addi	t8,t1,0
  40f580:	21304000 	addi	s0,t1,16384
  40f584:	5100422c 	beqzl	t0,41fe38 <__bss_start+0x26fc>
  40f588:	07004014 	bltz	t8,41f5dc <__bss_start+0x1ea0>
  40f58c:	21208002 	addi	zero,t1,-32766
  40f590:	4000053c 	0x4000053c
  40f594:	200ba524 	addi	t3,zero,-23260
  40f598:	09f86002 	j	7e18008 <_end+0x79f21f4>
  40f59c:	18000624 	blez	zero,410e30 <aoutcode+0x90c>
  40f5a0:	ffff0010 	sdc3	$31,16(ra)
  40f5a4:	00000000 	nop
  40f5a8:	09f86002 	j	7e18008 <_end+0x79f21f4>
  40f5ac:	2000a527 	addi	zero,zero,-23257
  40f5b0:	0eff0010 	jal	bfc0040 <_end+0xbb9a22c>
  40f5b4:	01002526 	0x1002526
  40f5b8:	04008010 	bltz	zero,3ef5fc <__tlb_stride_length+0x3ef5fb>
  40f5bc:	00000000 	nop
  40f5c0:	0000458e 	0x458e
  40f5c4:	03000010 	0x3000010
  40f5c8:	04005226 	bltz	zero,423e64 <__bss_start+0x6728>
  40f5cc:	0000458e 	0x458e
  40f5d0:	04005226 	bltz	zero,423e6c <__bss_start+0x6730>
  40f5d4:	1000a8af 	b	3f9894 <__tlb_stride_length+0x3f9893>
  40f5d8:	1400a7af 	bnez	zero,3f9498 <__tlb_stride_length+0x3f9497>
  40f5dc:	1800a9af 	blez	zero,3f9c9c <__tlb_stride_length+0x3f9c9b>
  40f5e0:	01000224 	0x1000224
  40f5e4:	1c00a2af 	bgtz	zero,3f80a4 <__tlb_stride_length+0x3f80a3>
  40f5e8:	2000a427 	addi	zero,zero,-23513
  40f5ec:	10000624 	b	410e80 <aoutcode+0x95c>
  40f5f0:	1102100c 	beq	t0,v0,413624 <binary_user_B_start+0x790>
  40f5f4:	21380000 	addi	t8,t1,0
  40f5f8:	21304000 	addi	s0,t1,16384
  40f5fc:	5100422c 	beqzl	t0,41feb0 <__bss_start+0x2774>
  40f600:	07004014 	bltz	t8,41f654 <__bss_start+0x1f18>
  40f604:	21208002 	addi	zero,t1,-32766
  40f608:	4000053c 	0x4000053c
  40f60c:	200ba524 	addi	t3,zero,-23260
  40f610:	09f86002 	j	7e18008 <_end+0x79f21f4>
  40f614:	18000624 	blez	zero,410ea8 <aoutcode+0x984>
  40f618:	ffff0010 	sdc3	$31,16(ra)
  40f61c:	00000000 	nop
  40f620:	09f86002 	j	7e18008 <_end+0x79f21f4>
  40f624:	2000a527 	addi	zero,zero,-23257
  40f628:	f0fe0010 	0xf0fe0010
  40f62c:	01002526 	0x1002526
  40f630:	04005026 	bltz	zero,4236cc <__bss_start+0x5f90>
  40f634:	2000a427 	addi	zero,zero,-23513
  40f638:	03004582 	0x3004582
  40f63c:	af01100c 	sw	at,4108(t8)
  40f640:	21300001 	addi	s0,t1,1
  40f644:	21304000 	addi	s0,t1,16384
  40f648:	5100422c 	beqzl	t0,41fefc <__bss_start+0x27c0>
  40f64c:	07004014 	bltz	t8,41f6a0 <__bss_start+0x1f64>
  40f650:	21208002 	addi	zero,t1,-32766
  40f654:	4000053c 	0x4000053c
  40f658:	200ba524 	addi	t3,zero,-23260
  40f65c:	09f86002 	j	7e18008 <_end+0x79f21f4>
  40f660:	18000624 	blez	zero,410ef4 <aoutcode+0x9d0>
  40f664:	ffff0010 	sdc3	$31,16(ra)
  40f668:	00000000 	nop
  40f66c:	09f86002 	j	7e18008 <_end+0x79f21f4>
  40f670:	2000a527 	addi	zero,zero,-23257
  40f674:	1a000010 	blez	s0,40f6b8 <boutcode+0x648>
  40f678:	21900002 	addi	s0,t4,2
  40f67c:	04005026 	bltz	zero,423718 <__bss_start+0x5fdc>
  40f680:	2000a427 	addi	zero,zero,-23513
  40f684:	0000458e 	0x458e
  40f688:	cf01100c 	pref	0x1,4108(t8)
  40f68c:	21300001 	addi	s0,t1,1
  40f690:	21304000 	addi	s0,t1,16384
  40f694:	5100422c 	beqzl	t0,41ff48 <__bss_start+0x280c>
  40f698:	07004014 	bltz	t8,41f6ec <__bss_start+0x1fb0>
  40f69c:	21208002 	addi	zero,t1,-32766
  40f6a0:	4000053c 	0x4000053c
  40f6a4:	200ba524 	addi	t3,zero,-23260
  40f6a8:	09f86002 	j	7e18008 <_end+0x79f21f4>
  40f6ac:	18000624 	blez	zero,410f40 <aoutcode+0xa1c>
  40f6b0:	ffff0010 	sdc3	$31,16(ra)
  40f6b4:	00000000 	nop
  40f6b8:	09f86002 	j	7e18008 <_end+0x79f21f4>
  40f6bc:	2000a527 	addi	zero,zero,-23257
  40f6c0:	07000010 	bltz	t8,40f704 <boutcode+0x694>
  40f6c4:	21900002 	addi	s0,t4,2
  40f6c8:	05000010 	bltz	t0,40f70c <boutcode+0x69c>
  40f6cc:	ffff3126 	sdc3	$31,12582(ra)
  40f6d0:	21208002 	addi	zero,t1,-32766
  40f6d4:	21282002 	addi	t0,t1,8194
  40f6d8:	09f86002 	j	7e18008 <_end+0x79f21f4>
  40f6dc:	01000624 	0x1000624
  40f6e0:	c2fe0010 	ll	s8,16(s7)
  40f6e4:	01002526 	0x1002526
  40f6e8:	21208002 	addi	zero,t1,-32766
  40f6ec:	4000053c 	0x4000053c
  40f6f0:	3c0ba524 	lui	t3,0xa524
  40f6f4:	09f86002 	j	7e18008 <_end+0x79f21f4>
  40f6f8:	01000624 	0x1000624
  40f6fc:	8400bf8f 	lh	zero,-16497(zero)
  40f700:	8000b48f 	lb	zero,-19313(zero)
  40f704:	7c00b38f 	0x7c00b38f
  40f708:	7800b28f 	ceq.b	$w10,$w22,$w0
  40f70c:	7400b18f 	jalx	2c63c <__tlb_stride_length+0x2c63b>
  40f710:	7000b08f 	0x7000b08f
  40f714:	0800e003 	j	3800c <__tlb_stride_length+0x3800b>
  40f718:	8800bd27 	lwl	zero,-17113(zero)
  40f71c:	b8fe6214 	swr	s8,25108(a3)
  40f720:	25000324 	addiu	zero,t0,804
  40f724:	bffe0010 	cache	0x1e,16(ra)
  40f728:	2180a000 	addi	zero,t4,-24576
  40f72c:	002e0500 	0x2e0500
  40f730:	032e0500 	0x32e0500
  40f734:	2a180600 	slti	t8,s0,1536
  40f738:	01000224 	0x1000224
  40f73c:	1500e010 	bnez	t0,407780 <set_UART_DLM+0xc>
  40f740:	0a304300 	j	8c10c00 <_end+0x87eadec>
  40f744:	0200c228 	0x200c228
  40f748:	16004014 	bnez	s0,41f79c <__bss_start+0x2060>
  40f74c:	000085a0 	0x85a0
  40f750:	01000324 	0x1000324
  40f754:	20000524 	addi	zero,zero,1316
  40f758:	21108300 	addi	s0,t0,-32000
  40f75c:	01006324 	0x1006324
  40f760:	1000c310 	b	4003a4 <user_PrintNum+0x78>
  40f764:	000045a0 	0x45a0
  40f768:	fcff0010 	sdc3	$31,16(a3)
  40f76c:	21108300 	addi	s0,t0,-32000
  40f770:	21180000 	addi	t8,t0,0
  40f774:	20000824 	addi	zero,zero,2084
  40f778:	21106400 	addi	s0,t0,25600
  40f77c:	01006324 	0x1006324
  40f780:	fdff6714 	sdc3	$31,26388(t7)
  40f784:	000048a0 	0x48a0
  40f788:	2110c400 	addi	s0,t0,-15360
  40f78c:	05000010 	bltz	t0,40f7d0 <boutcode+0x760>
  40f790:	ffff45a0 	sdc3	$31,17824(ra)
  40f794:	ffffc724 	sdc3	$31,-14556(ra)
  40f798:	f5ffe01c 	sdc1	$f31,-8164(t7)
  40f79c:	2110c400 	addi	s0,t0,-15360
  40f7a0:	ffff45a0 	sdc3	$31,17824(ra)
  40f7a4:	0800e003 	j	3800c <__tlb_stride_length+0x3800b>
  40f7a8:	2110c000 	addi	s0,t0,-16384
  40f7ac:	0000a280 	sll	s4,zero,0xa
  40f7b0:	03004014 	0x3004014
  40f7b4:	0100a324 	0x100a324
  40f7b8:	06000010 	bltz	s0,40f7fc <boutcode+0x78c>
  40f7bc:	21400000 	addi	zero,t2,0
  40f7c0:	21400000 	addi	zero,t2,0
  40f7c4:	01000825 	move	at,t0
  40f7c8:	00006280 	sll	t4,zero,0xa
  40f7cc:	fdff4014 	sdc3	$31,16404(t7)
  40f7d0:	01006324 	0x1006324
  40f7d4:	2a10c800 	slti	s0,s0,-14336
  40f7d8:	3000e014 	andi	zero,zero,0xe014
  40f7dc:	0b300201 	j	cc00804 <_end+0xc7da9f0>
  40f7e0:	2a000010 	slti	zero,s0,16
  40f7e4:	2338c800 	addi	t8,t9,-14336
  40f7e8:	21380000 	addi	t8,t1,0
  40f7ec:	21108700 	addi	s0,t0,-30976
  40f7f0:	2118a700 	addi	t8,t0,-22784
  40f7f4:	00006390 	0x6390
  40f7f8:	0100e724 	0x100e724
  40f7fc:	fbff0715 	sdc2	$31,1813(ra)
  40f800:	000043a0 	0x43a0
  40f804:	2a100601 	slti	s0,s0,1537
  40f808:	28004010 	slti	zero,zero,16400
  40f80c:	21180000 	addi	t8,t0,0
  40f810:	21108800 	addi	s0,t0,-30720
  40f814:	20000524 	addi	zero,zero,1316
  40f818:	2320c800 	addi	zero,t9,-14336
  40f81c:	000045a0 	0x45a0
  40f820:	01006324 	0x1006324
  40f824:	21006410 	addi	zero,t0,25616
  40f828:	01004224 	0x1004224
  40f82c:	fcff0010 	sdc3	$31,16(a3)
  40f830:	000045a0 	0x45a0
  40f834:	21180000 	addi	t8,t0,0
  40f838:	20000924 	addi	zero,zero,2340
  40f83c:	21108300 	addi	s0,t0,-32000
  40f840:	01006324 	0x1006324
  40f844:	fdff6714 	sdc3	$31,26388(t7)
  40f848:	000049a0 	0x49a0
  40f84c:	2a10e600 	slti	s0,s0,-6656
  40f850:	16004010 	bnez	s0,41f894 <__bss_start+0x2158>
  40f854:	21208700 	addi	zero,t1,-30976
  40f858:	2310e600 	addi	s0,t8,-6656
  40f85c:	21100201 	addi	s0,t0,513
  40f860:	2118a200 	addi	t8,t0,-24064
  40f864:	21280000 	addi	t0,t1,0
  40f868:	2338c700 	addi	t8,t9,-14592
  40f86c:	00006290 	0x6290
  40f870:	000082a0 	0x82a0
  40f874:	0100a524 	0x100a524
  40f878:	01006324 	0x1006324
  40f87c:	0b00a710 	j	c029c40 <_end+0xbc03e2c>
  40f880:	01008424 	0x1008424
  40f884:	faff0010 	sdc2	$31,16(s7)
  40f888:	00006290 	0x6290
  40f88c:	e9ffe01c 	swc2	$31,-8164(t7)
  40f890:	2a10e600 	slti	s0,s0,-6656
  40f894:	eeff0010 	swc3	$31,16(s7)
  40f898:	00000000 	nop
  40f89c:	d2ff001d 	0xd2ff001d
  40f8a0:	2a100601 	slti	s0,s0,1537
  40f8a4:	d8ff0010 	ldc2	$31,16(a3)
  40f8a8:	00000000 	nop
  40f8ac:	0800e003 	j	3800c <__tlb_stride_length+0x3800b>
  40f8b0:	2110c000 	addi	s0,t0,-16384
  40f8b4:	1000a98f 	b	3f9ef4 <__tlb_stride_length+0x3f9ef3>
  40f8b8:	1400ac8f 	bnez	zero,3faaf8 <__tlb_stride_length+0x3faaf7>
  40f8bc:	1c00ab8f 	bgtz	zero,3fa6fc <__tlb_stride_length+0x3fa6fb>
  40f8c0:	1b00aa83 	blez	t8,3fa2d0 <__tlb_stride_length+0x3fa2cf>
  40f8c4:	21408000 	addi	zero,t2,-32768
  40f8c8:	1b00a600 	blez	t8,3f90cc <__tlb_stride_length+0x3f90cb>
  40f8cc:	f401c000 	sdc1	$f1,-16384(zero)
  40f8d0:	10180000 	beq	zero,t8,40f8d4 <boutcode+0x864>
  40f8d4:	0a006228 	j	80188a0 <_end+0x7bf2a8c>
  40f8d8:	04004010 	bltz	zero,41f91c <__bss_start+0x21e0>
  40f8dc:	30006224 	andi	zero,zero,0x6224
  40f8e0:	000002a1 	0x2a1
  40f8e4:	0b000010 	j	c000040 <_end+0xbbda22c>
  40f8e8:	01000825 	move	at,t0
  40f8ec:	05006011 	bltz	t0,427934 <_end+0x1b20>
  40f8f0:	57006224 	bnezl	t8,428184 <_end+0x2370>
  40f8f4:	37006224 	ori	zero,t8,0x6224
  40f8f8:	000002a1 	0x2a1
  40f8fc:	03000010 	0x3000010
  40f900:	01000825 	move	at,t0
  40f904:	000002a1 	0x2a1
  40f908:	01000825 	move	at,t0
  40f90c:	1b00a600 	blez	t8,3f9110 <__tlb_stride_length+0x3f910f>
  40f910:	f401c000 	sdc1	$f1,-16384(zero)
  40f914:	12280000 	beq	s1,t0,40f918 <boutcode+0x8a8>
  40f918:	ebffa014 	swc2	$31,-24556(ra)
  40f91c:	00000000 	nop
  40f920:	0500e010 	bltz	t0,407964 <sys_init+0x3c>
  40f924:	23300401 	addi	s0,t9,1025
  40f928:	2d000224 	sltiu	zero,t0,548
  40f92c:	000002a1 	0x2a1
  40f930:	01000825 	move	at,t0
  40f934:	23300401 	addi	s0,t9,1025
  40f938:	2a102601 	slti	s0,s0,9729
  40f93c:	0b48c200 	j	d230800 <_end+0xce0a9ec>
  40f940:	20000224 	addi	zero,zero,548
  40f944:	3200e010 	andi	zero,s0,0xe010
  40f948:	0b504c00 	j	d413000 <_end+0xcfed1ec>
  40f94c:	31008015 	andi	zero,t0,0x8015
  40f950:	2a10c900 	slti	s0,s0,-14080
  40f954:	30000224 	andi	zero,zero,0x224
  40f958:	2e004215 	sltiu	zero,s0,16917
  40f95c:	2a10c900 	slti	s0,s0,-14080
  40f960:	ffffc624 	sdc3	$31,-14812(ra)
  40f964:	ffff2825 	sdc3	$31,10277(ra)
  40f968:	2a10c800 	slti	s0,s0,-14336
  40f96c:	08004010 	j	10040 <__tlb_stride_length+0x1003f>
  40f970:	23100601 	addi	s0,t8,1537
  40f974:	21188600 	addi	t8,t0,-31232
  40f978:	21280000 	addi	t0,t1,0
  40f97c:	30000724 	andi	zero,zero,0x724
  40f980:	000067a0 	0x67a0
  40f984:	0100a524 	0x100a524
  40f988:	fdffa214 	sdc3	$31,-24044(t7)
  40f98c:	01006324 	0x1006324
  40f990:	21188900 	addi	t8,t0,-30464
  40f994:	2d000224 	sltiu	zero,t0,548
  40f998:	0d000010 	jal	4000040 <_end+0x3bda22c>
  40f99c:	ffff62a0 	sdc3	$31,25248(ra)
  40f9a0:	0000aaa0 	0xaaa0
  40f9a4:	01006324 	0x1006324
  40f9a8:	23102601 	addi	s0,t8,9729
  40f9ac:	fcff6214 	sdc3	$31,25108(a3)
  40f9b0:	0100a524 	0x100a524
  40f9b4:	06008011 	bltz	s0,3ef9fc <__tlb_stride_length+0x3ef9fb>
  40f9b8:	00000000 	nop
  40f9bc:	ffffc624 	sdc3	$31,-14812(ra)
  40f9c0:	0500c01c 	bltz	t0,3ffa34 <__tlb_stride_length+0x3ffa33>
  40f9c4:	21380000 	addi	t8,t1,0
  40f9c8:	0800e003 	j	3800c <__tlb_stride_length+0x3800b>
  40f9cc:	21102001 	addi	s0,t0,8193
  40f9d0:	fbff0010 	sdc2	$31,16(ra)
  40f9d4:	ffff2625 	sdc3	$31,9765(ra)
  40f9d8:	21288000 	addi	t0,t1,-32768
  40f9dc:	21208600 	addi	zero,t1,-31232
  40f9e0:	0000a280 	sll	s4,zero,0xa
  40f9e4:	00008390 	0x8390
  40f9e8:	0000a3a0 	0xa3a0
  40f9ec:	000082a0 	0x82a0
  40f9f0:	0100e724 	0x100e724
  40f9f4:	ffffc624 	sdc3	$31,-14812(ra)
  40f9f8:	0100a524 	0x100a524
  40f9fc:	2a10e600 	slti	s0,s0,-6656
  40fa00:	09004010 	j	4010040 <_end+0x3bea22c>
  40fa04:	ffff8424 	sdc3	$31,-31708(ra)
  40fa08:	f6ff0010 	sdc1	$f31,16(s7)
  40fa0c:	0000a280 	sll	s4,zero,0xa
  40fa10:	2a10c900 	slti	s0,s0,-14080
  40fa14:	e7ff4010 	swc1	$f31,16400(ra)
  40fa18:	00000000 	nop
  40fa1c:	21288600 	addi	t0,t1,-31232
  40fa20:	dfff0010 	ldc3	$31,16(ra)
  40fa24:	21180000 	addi	t8,t0,0
  40fa28:	21102001 	addi	s0,t0,8193
  40fa2c:	0800e003 	j	3800c <__tlb_stride_length+0x3800b>
  40fa30:	00000000 	nop
	...
  40fa40:	e0ffbd27 	sc	ra,-17113(a3)
  40fa44:	1c00bfaf 	bgtz	zero,3ff904 <__tlb_stride_length+0x3ff903>
  40fa48:	1800b2af 	blez	zero,3fc508 <__tlb_stride_length+0x3fc507>
  40fa4c:	1400b1af 	bnez	zero,3fc10c <__tlb_stride_length+0x3fc10b>
  40fa50:	1000b0af 	b	3fbd10 <__tlb_stride_length+0x3fbd0f>
  40fa54:	01000224 	0x1000224
  40fa58:	1300c214 	beqz	t8,4002ac <user_PrintString+0x90>
  40fa5c:	2190c000 	addi	s0,t4,-16384
  40fa60:	0000a280 	sll	s4,zero,0xa
  40fa64:	13004014 	beqz	t8,41fab8 <__bss_start+0x237c>
  40fa68:	2180a000 	addi	zero,t4,-24576
  40fa6c:	14000010 	bnez	zero,40fab0 <boutcode+0xa40>
  40fa70:	1c00bf8f 	bgtz	zero,3ff8b0 <__tlb_stride_length+0x3ff8af>
  40fa74:	3800100c 	xori	zero,zero,0x100c
  40fa78:	00000482 	srl	zero,zero,0x12
  40fa7c:	00000382 	srl	zero,zero,0xe
  40fa80:	0a000224 	j	8000890 <_end+0x7bdaa7c>
  40fa84:	03006214 	0x3006214
  40fa88:	00000000 	nop
  40fa8c:	3800100c 	xori	zero,zero,0x100c
  40fa90:	0a000424 	j	8001090 <_end+0x7bdb27c>
  40fa94:	01003126 	0x1003126
  40fa98:	08005112 	j	14448 <__tlb_stride_length+0x14447>
  40fa9c:	01001026 	xor	v0,t0,zero
  40faa0:	f4ff0010 	sdc1	$f31,16(a3)
  40faa4:	00000000 	nop
  40faa8:	0500c018 	bltz	t0,3ffb0c <__tlb_stride_length+0x3ffb0b>
  40faac:	1c00bf8f 	bgtz	zero,3ff8ec <__tlb_stride_length+0x3ff8eb>
  40fab0:	2180a000 	addi	zero,t4,-24576
  40fab4:	efff0010 	swc3	$31,16(ra)
  40fab8:	21880000 	addi	t0,t4,0
  40fabc:	1c00bf8f 	bgtz	zero,3ff8fc <__tlb_stride_length+0x3ff8fb>
  40fac0:	1800b28f 	blez	zero,3fc500 <__tlb_stride_length+0x3fc4ff>
  40fac4:	1400b18f 	bnez	zero,3fc104 <__tlb_stride_length+0x3fc103>
  40fac8:	1000b08f 	b	3fbd08 <__tlb_stride_length+0x3fbd07>
  40facc:	0800e003 	j	3800c <__tlb_stride_length+0x3800b>
  40fad0:	2000bd27 	addi	zero,zero,-17113
  40fad4:	e0ffbd27 	sc	ra,-17113(a3)
  40fad8:	1800bfaf 	blez	zero,3ff998 <__tlb_stride_length+0x3ff997>
  40fadc:	2400a5af 	li	zero,-23121
  40fae0:	2800a6af 	slti	zero,zero,-22865
  40fae4:	2c00a7af 	sltiu	zero,zero,-22609
  40fae8:	21308000 	addi	s0,t1,-32768
  40faec:	2400a727 	li	zero,-22745
  40faf0:	1000a7af 	b	3f99b0 <__tlb_stride_length+0x3f99af>
  40faf4:	4000043c 	0x4000043c
  40faf8:	d0098424 	0xd0098424
  40fafc:	5400100c 	bnezl	zero,413b30 <binary_user_B_start+0xc9c>
  40fb00:	21280000 	addi	t0,t1,0
  40fb04:	1800bf8f 	blez	zero,3ff944 <__tlb_stride_length+0x3ff943>
  40fb08:	0800e003 	j	3800c <__tlb_stride_length+0x3800b>
  40fb0c:	2000bd27 	addi	zero,zero,-17113
  40fb10:	e0ffbd27 	sc	ra,-17113(a3)
  40fb14:	1c00bfaf 	bgtz	zero,3ff9d4 <__tlb_stride_length+0x3ff9d3>
  40fb18:	1800b0af 	blez	zero,3fbdd8 <__tlb_stride_length+0x3fbdd7>
  40fb1c:	21188000 	addi	t8,t0,-32768
  40fb20:	2140a000 	addi	zero,t2,-24576
  40fb24:	2c00a7af 	sltiu	zero,zero,-22609
  40fb28:	2180c000 	addi	zero,t4,-16384
  40fb2c:	2c00a227 	sltiu	zero,zero,-24025
  40fb30:	1000a2af 	b	3f85f0 <__tlb_stride_length+0x3f85ef>
  40fb34:	4000043c 	0x4000043c
  40fb38:	300d8424 	andi	t5,zero,0x8424
  40fb3c:	21286000 	addi	t0,t1,24576
  40fb40:	9902100c 	lwr	v0,4108(t0)
  40fb44:	21300001 	addi	s0,t1,1
  40fb48:	4000043c 	0x4000043c
  40fb4c:	d0098424 	0xd0098424
  40fb50:	21280000 	addi	t0,t1,0
  40fb54:	21300002 	addi	s0,t1,2
  40fb58:	5400100c 	bnezl	zero,413b8c <binary_user_B_start+0xcf8>
  40fb5c:	1000a78f 	b	3f999c <__tlb_stride_length+0x3f999b>
  40fb60:	4000043c 	0x4000043c
  40fb64:	9902100c 	lwr	v0,4108(t0)
  40fb68:	440d8424 	0x440d8424
  40fb6c:	ffff0010 	sdc3	$31,16(ra)
	...
  40fb80:	00206425 	0x206425
	...
  40fb90:	61746166 	0x61746166
  40fb94:	7265206c 	0x7265206c
  40fb98:	20726f72 	addi	s2,v1,28530
  40fb9c:	6c206e69 	0x6c206e69
  40fba0:	72505f70 	0x72505f70
  40fba4:	21746e69 	addi	s4,t3,28265
	...
  40fbb0:	58064000 	0x58064000
  40fbb4:	60064000 	0x60064000
  40fbb8:	60064000 	0x60064000
  40fbbc:	60064000 	0x60064000
  40fbc0:	60064000 	0x60064000
  40fbc4:	60064000 	0x60064000
  40fbc8:	60064000 	0x60064000
  40fbcc:	60064000 	0x60064000
  40fbd0:	60064000 	0x60064000
  40fbd4:	60064000 	0x60064000
  40fbd8:	60064000 	0x60064000
  40fbdc:	60064000 	0x60064000
  40fbe0:	60064000 	0x60064000
  40fbe4:	60064000 	0x60064000
  40fbe8:	60064000 	0x60064000
  40fbec:	60064000 	0x60064000
  40fbf0:	60064000 	0x60064000
  40fbf4:	60064000 	0x60064000
  40fbf8:	60064000 	0x60064000
  40fbfc:	60064000 	0x60064000
  40fc00:	60064000 	0x60064000
  40fc04:	60064000 	0x60064000
  40fc08:	60064000 	0x60064000
  40fc0c:	60064000 	0x60064000
  40fc10:	60064000 	0x60064000
  40fc14:	60064000 	0x60064000
  40fc18:	60064000 	0x60064000
  40fc1c:	60064000 	0x60064000
  40fc20:	60064000 	0x60064000
  40fc24:	60064000 	0x60064000
  40fc28:	60064000 	0x60064000
  40fc2c:	60064000 	0x60064000
  40fc30:	60064000 	0x60064000
  40fc34:	60064000 	0x60064000
  40fc38:	60064000 	0x60064000
  40fc3c:	60064000 	0x60064000
  40fc40:	60064000 	0x60064000
  40fc44:	60064000 	0x60064000
  40fc48:	60064000 	0x60064000
  40fc4c:	60064000 	0x60064000
  40fc50:	60064000 	0x60064000
  40fc54:	60064000 	0x60064000
  40fc58:	60064000 	0x60064000
  40fc5c:	60064000 	0x60064000
  40fc60:	60064000 	0x60064000
  40fc64:	60064000 	0x60064000
  40fc68:	60064000 	0x60064000
  40fc6c:	60064000 	0x60064000
  40fc70:	60064000 	0x60064000
  40fc74:	60064000 	0x60064000
  40fc78:	60064000 	0x60064000
  40fc7c:	60064000 	0x60064000
  40fc80:	60064000 	0x60064000
  40fc84:	60064000 	0x60064000
  40fc88:	60064000 	0x60064000
  40fc8c:	60064000 	0x60064000
  40fc90:	60064000 	0x60064000
  40fc94:	60064000 	0x60064000
  40fc98:	60064000 	0x60064000
  40fc9c:	60064000 	0x60064000
  40fca0:	60064000 	0x60064000
  40fca4:	60064000 	0x60064000
  40fca8:	60064000 	0x60064000
  40fcac:	60064000 	0x60064000
  40fcb0:	60064000 	0x60064000
  40fcb4:	60064000 	0x60064000
  40fcb8:	60064000 	0x60064000
  40fcbc:	60064000 	0x60064000
  40fcc0:	68034000 	0x68034000
  40fcc4:	60064000 	0x60064000
  40fcc8:	60064000 	0x60064000
  40fccc:	60064000 	0x60064000
  40fcd0:	60064000 	0x60064000
  40fcd4:	60064000 	0x60064000
  40fcd8:	60064000 	0x60064000
  40fcdc:	60064000 	0x60064000
  40fce0:	60064000 	0x60064000
  40fce4:	60064000 	0x60064000
  40fce8:	60064000 	0x60064000
  40fcec:	ec034000 	swc3	$3,16384(zero)
  40fcf0:	60064000 	0x60064000
  40fcf4:	60064000 	0x60064000
  40fcf8:	60064000 	0x60064000
  40fcfc:	60064000 	0x60064000
  40fd00:	60064000 	0x60064000
  40fd04:	60044000 	0x60044000
  40fd08:	60064000 	0x60064000
  40fd0c:	60064000 	0x60064000
  40fd10:	48054000 	mfc2	a1,$8
  40fd14:	60064000 	0x60064000
  40fd18:	60064000 	0x60064000
  40fd1c:	60064000 	0x60064000
  40fd20:	60064000 	0x60064000
  40fd24:	60064000 	0x60064000
  40fd28:	60064000 	0x60064000
  40fd2c:	60064000 	0x60064000
  40fd30:	60064000 	0x60064000
  40fd34:	60064000 	0x60064000
  40fd38:	f4024000 	sdc1	$f2,16384(zero)
  40fd3c:	c0054000 	ll	a1,16384(zero)
  40fd40:	68034000 	0x68034000
  40fd44:	60064000 	0x60064000
  40fd48:	60064000 	0x60064000
  40fd4c:	60064000 	0x60064000
  40fd50:	60064000 	0x60064000
  40fd54:	60064000 	0x60064000
  40fd58:	60064000 	0x60064000
  40fd5c:	60064000 	0x60064000
  40fd60:	60064000 	0x60064000
  40fd64:	60064000 	0x60064000
  40fd68:	60064000 	0x60064000
  40fd6c:	ec034000 	swc3	$3,16384(zero)
  40fd70:	60064000 	0x60064000
  40fd74:	60064000 	0x60064000
  40fd78:	60064000 	0x60064000
  40fd7c:	0c064000 	jal	190000 <__tlb_stride_length+0x18ffff>
  40fd80:	60064000 	0x60064000
  40fd84:	60044000 	0x60044000
  40fd88:	60064000 	0x60064000
  40fd8c:	60064000 	0x60064000
  40fd90:	d4044000 	ldc1	$f4,16384(zero)
	...
  40fda0:	696e6170 	0x696e6170
  40fda4:	74612063 	jalx	184818c <_end+0x1422378>
  40fda8:	3a732520 	xori	s3,s3,0x2520
  40fdac:	203a6425 	addi	k0,at,25637
  40fdb0:	00000000 	nop
  40fdb4:	0000000a 	movz	zero,zero,zero
	...
  40fdc0:	43434700 	c0	0x1434700
  40fdc4:	4728203a 	bz.h	$w8,417eb0 <opentab+0x888>
  40fdc8:	2029554e 	addi	t1,at,21838
  40fdcc:	2e302e34 	sltiu	s0,s1,11828
  40fdd0:	44282030 	0x44282030
  40fdd4:	20584e45 	addi	t8,v0,20037
  40fdd8:	4b444c45 	c2	0x1444c45
  40fddc:	312e3420 	andi	t6,t1,0x3420
  40fde0:	302e3420 	andi	t6,at,0x3420
  40fde4:	0029302e 	0x29302e
  40fde8:	43434700 	c0	0x1434700
  40fdec:	4728203a 	bz.h	$w8,417ed8 <opentab+0x8b0>
  40fdf0:	2029554e 	addi	t1,at,21838
  40fdf4:	2e302e34 	sltiu	s0,s1,11828
  40fdf8:	44282030 	0x44282030
  40fdfc:	20584e45 	addi	t8,v0,20037
  40fe00:	4b444c45 	c2	0x1444c45
  40fe04:	312e3420 	andi	t6,t1,0x3420
  40fe08:	302e3420 	andi	t6,at,0x3420
  40fe0c:	0029302e 	0x29302e
  40fe10:	43434700 	c0	0x1434700
  40fe14:	4728203a 	bz.h	$w8,417f00 <opentab+0x8d8>
  40fe18:	2029554e 	addi	t1,at,21838
  40fe1c:	2e302e34 	sltiu	s0,s1,11828
  40fe20:	44282030 	0x44282030
  40fe24:	20584e45 	addi	t8,v0,20037
  40fe28:	4b444c45 	c2	0x1444c45
  40fe2c:	312e3420 	andi	t6,t1,0x3420
  40fe30:	302e3420 	andi	t6,at,0x3420
  40fe34:	0029302e 	0x29302e
  40fe38:	43434700 	c0	0x1434700
  40fe3c:	4728203a 	bz.h	$w8,417f28 <opentab+0x900>
  40fe40:	2029554e 	addi	t1,at,21838
  40fe44:	2e302e34 	sltiu	s0,s1,11828
  40fe48:	44282030 	0x44282030
  40fe4c:	20584e45 	addi	t8,v0,20037
  40fe50:	4b444c45 	c2	0x1444c45
  40fe54:	312e3420 	andi	t6,t1,0x3420
  40fe58:	302e3420 	andi	t6,at,0x3420
  40fe5c:	0029302e 	0x29302e
  40fe60:	b0004000 	0xb0004000
  40fe64:	00000180 	sll	zero,zero,0x6
  40fe68:	fcffffff 	sdc3	$31,-1(a3)
	...
  40fe74:	18000000 	blez	zero,40fe78 <boutcode+0xe08>
  40fe78:	1d000000 	bgtz	t0,40fe7c <boutcode+0xe0c>
  40fe7c:	1f000000 	bgtz	t8,40fe80 <boutcode+0xe10>
  40fe80:	e0004000 	sc	zero,16384(zero)
	...
  40fe98:	1d000000 	bgtz	t0,40fe9c <boutcode+0xe2c>
  40fe9c:	1f000000 	bgtz	t8,40fea0 <boutcode+0xe30>
  40fea0:	f4004000 	sdc1	$f0,16384(zero)
	...
  40feb8:	1d000000 	bgtz	t0,40febc <boutcode+0xe4c>
  40febc:	1f000000 	bgtz	t8,40fec0 <boutcode+0xe50>
  40fec0:	08014000 	j	50000 <__tlb_stride_length+0x4ffff>
  40fec4:	00000180 	sll	zero,zero,0x6
  40fec8:	fcffffff 	sdc3	$31,-1(a3)
	...
  40fed4:	18000000 	blez	zero,40fed8 <boutcode+0xe68>
  40fed8:	1d000000 	bgtz	t0,40fedc <boutcode+0xe6c>
  40fedc:	1f000000 	bgtz	t8,40fee0 <boutcode+0xe70>
  40fee0:	50014000 	beql	zero,at,41fee4 <__bss_start+0x27a8>
  40fee4:	00001f80 	sll	v1,zero,0x1e
  40fee8:	fcffffff 	sdc3	$31,-1(a3)
	...
  40fef4:	88000000 	lwl	zero,0(zero)
  40fef8:	1d000000 	bgtz	t0,40fefc <boutcode+0xe8c>
  40fefc:	1f000000 	bgtz	t8,40ff00 <boutcode+0xe90>
  40ff00:	bc064000 	cache	0x6,16384(zero)
	...
  40ff18:	1d000000 	bgtz	t0,40ff1c <boutcode+0xeac>
  40ff1c:	1f000000 	bgtz	t8,40ff20 <boutcode+0xeb0>
  40ff20:	3c074000 	lui	a3,0x4000
	...
  40ff38:	1d000000 	bgtz	t0,40ff3c <boutcode+0xecc>
  40ff3c:	1f000000 	bgtz	t8,40ff40 <boutcode+0xed0>
  40ff40:	44084000 	mfc1	t0,$f8
	...
  40ff58:	1d000000 	bgtz	t0,40ff5c <boutcode+0xeec>
  40ff5c:	1f000000 	bgtz	t8,40ff60 <boutcode+0xef0>
  40ff60:	d0094000 	0xd0094000
  40ff64:	00000780 	sll	zero,zero,0x1e
  40ff68:	fcffffff 	sdc3	$31,-1(a3)
	...
  40ff74:	20000000 	addi	zero,zero,0
  40ff78:	1d000000 	bgtz	t0,40ff7c <boutcode+0xf0c>
  40ff7c:	1f000000 	bgtz	t8,40ff80 <boutcode+0xf10>
  40ff80:	640a4000 	0x640a4000
  40ff84:	00000080 	sll	zero,zero,0x2
  40ff88:	f8ffffff 	sdc2	$31,-1(a3)
	...
  40ff94:	20000000 	addi	zero,zero,0
  40ff98:	1d000000 	bgtz	t0,40ff9c <boutcode+0xf2c>
  40ff9c:	1f000000 	bgtz	t8,40ffa0 <boutcode+0xf30>
  40ffa0:	a00a4000 	sb	t2,16384(zero)
  40ffa4:	00000180 	sll	zero,zero,0x6
  40ffa8:	fcffffff 	sdc3	$31,-1(a3)
	...
  40ffb4:	20000000 	addi	zero,zero,0
  40ffb8:	1d000000 	bgtz	t0,40ffbc <boutcode+0xf4c>
  40ffbc:	1f000000 	bgtz	t8,40ffc0 <boutcode+0xf50>
  40ffc0:	79732e00 	ori.b	$w24,$w5,0x73
  40ffc4:	6261746d 	0x6261746d
  40ffc8:	74732e00 	jalx	1ccb800 <_end+0x18a59ec>
  40ffcc:	62617472 	0x62617472
  40ffd0:	68732e00 	0x68732e00
  40ffd4:	74727473 	jalx	1c9d1cc <_end+0x18773b8>
  40ffd8:	2e006261 	sltiu	zero,s0,25185
  40ffdc:	69676572 	0x69676572
  40ffe0:	006f666e 	0x6f666e
  40ffe4:	7865742e 	0x7865742e
  40ffe8:	722e0074 	0x722e0074
  40ffec:	7461646f 	jalx	18591bc <_end+0x14333a8>
  40fff0:	642e0061 	0x642e0061
  40fff4:	00617461 	0x617461
  40fff8:	7362732e 	0x7362732e
  40fffc:	622e0073 	0x622e0073
  410000:	2e007373 	sltiu	zero,s0,29555
  410004:	6d6d6f63 	0x6d6d6f63
  410008:	00746e65 	0x746e65
  41000c:	7264702e 	0x7264702e
  410010:	646d2e00 	0x646d2e00
  410014:	67756265 	0x67756265
  410018:	6962612e 	0x6962612e
  41001c:	00003233 	tltu	zero,zero,0xc8
	...
  410048:	1b000000 	blez	t8,41004c <boutcode+0xfdc>
  41004c:	06000070 	bltz	s0,410210 <boutcode+0x11a0>
  410050:	02000000 	0x2000000
  410054:	94004000 	lhu	zero,16384(zero)
  410058:	94000000 	lhu	zero,0(zero)
  41005c:	18000000 	blez	zero,410060 <boutcode+0xff0>
  410060:	00000000 	nop
  410064:	00000000 	nop
  410068:	04000000 	bltz	zero,41006c <boutcode+0xffc>
  41006c:	18000000 	blez	zero,410070 <boutcode+0x1000>
  410070:	24000000 	li	zero,0
  410074:	01000000 	0x1000000
  410078:	06000000 	bltz	s0,41007c <boutcode+0x100c>
  41007c:	b0004000 	0xb0004000
  410080:	b0000000 	0xb0000000
  410084:	600a0000 	0x600a0000
	...
  410090:	10000000 	b	410094 <boutcode+0x1024>
  410094:	00000000 	nop
  410098:	2a000000 	slti	zero,s0,0
  41009c:	01000000 	0x1000000
  4100a0:	02000000 	0x2000000
  4100a4:	100b4000 	beq	zero,t3,4200a8 <__bss_start+0x296c>
  4100a8:	100b0000 	beq	zero,t3,4100ac <boutcode+0x103c>
  4100ac:	36020000 	ori	v0,s0,0x0
	...
  4100b8:	10000000 	b	4100bc <boutcode+0x104c>
  4100bc:	00000000 	nop
  4100c0:	32000000 	andi	zero,s0,0x0
  4100c4:	01000000 	0x1000000
  4100c8:	03000000 	0x3000000
  4100cc:	00000010 	mfhi	zero
  4100d0:	500d0000 	beql	zero,t5,4100d4 <boutcode+0x1064>
  4100d4:	00000000 	nop
	...
  4100e0:	10000000 	b	4100e4 <boutcode+0x1074>
  4100e4:	00000000 	nop
  4100e8:	38000000 	xori	zero,zero,0x0
  4100ec:	08000000 	j	0 <__tlb_stride_length-0x1>
  4100f0:	03000010 	0x3000010
  4100f4:	00000010 	mfhi	zero
  4100f8:	500d0000 	beql	zero,t5,4100fc <boutcode+0x108c>
  4100fc:	00000000 	nop
	...
  410108:	01000000 	0x1000000
  41010c:	00000000 	nop
  410110:	3e000000 	0x3e000000
  410114:	08000000 	j	0 <__tlb_stride_length-0x1>
  410118:	03000000 	0x3000000
  41011c:	00000010 	mfhi	zero
  410120:	500d0000 	beql	zero,t5,410124 <boutcode+0x10b4>
  410124:	00000000 	nop
	...
  410130:	10000000 	b	410134 <boutcode+0x10c4>
  410134:	00000000 	nop
  410138:	43000000 	c0	0x1000000
  41013c:	01000000 	0x1000000
	...
  410148:	500d0000 	beql	zero,t5,41014c <boutcode+0x10dc>
  41014c:	a0000000 	sb	zero,0(zero)
	...
  410158:	01000000 	0x1000000
  41015c:	00000000 	nop
  410160:	4c000000 	lwxc1	$f0,zero(zero)
  410164:	01000000 	0x1000000
	...
  410170:	f00d0000 	0xf00d0000
  410174:	60010000 	0x60010000
	...
  410180:	04000000 	bltz	zero,410184 <boutcode+0x1114>
  410184:	00000000 	nop
  410188:	51000000 	beqzl	t0,41018c <boutcode+0x111c>
  41018c:	01000000 	0x1000000
	...
  410198:	500f0000 	beql	zero,t7,41019c <boutcode+0x112c>
  41019c:	00000000 	nop
	...
  4101a8:	01000000 	0x1000000
  4101ac:	00000000 	nop
  4101b0:	11000000 	beqz	t0,4101b4 <boutcode+0x1144>
  4101b4:	03000000 	0x3000000
	...
  4101c0:	500f0000 	beql	zero,t7,4101c4 <boutcode+0x1154>
  4101c4:	5f000000 	bgtzl	t8,4101c8 <boutcode+0x1158>
  4101c8:	00000000 	nop
  4101cc:	00000000 	nop
  4101d0:	01000000 	0x1000000
  4101d4:	00000000 	nop
  4101d8:	01000000 	0x1000000
  4101dc:	02000000 	0x2000000
	...
  4101e8:	b8110000 	swr	s1,0(zero)
  4101ec:	40020000 	mfc0	v0,c0_index
  4101f0:	0c000000 	jal	0 <__tlb_stride_length-0x1>
  4101f4:	13000000 	beqz	t8,4101f8 <boutcode+0x1188>
  4101f8:	04000000 	bltz	zero,4101fc <boutcode+0x118c>
  4101fc:	10000000 	b	410200 <boutcode+0x1190>
  410200:	09000000 	j	4000000 <_end+0x3bda1ec>
  410204:	03000000 	0x3000000
	...
  410210:	f8130000 	sdc2	$19,0(zero)
  410214:	ba000000 	swr	zero,0(s0)
	...
  410220:	01000000 	0x1000000
	...
  41023c:	94004000 	lhu	zero,16384(zero)
  410240:	00000000 	nop
  410244:	01000003 	0x1000003
  410248:	00000000 	nop
  41024c:	b0004000 	0xb0004000
  410250:	00000000 	nop
  410254:	02000003 	0x2000003
  410258:	00000000 	nop
  41025c:	100b4000 	beq	zero,t3,420260 <__bss_start+0x2b24>
  410260:	00000000 	nop
  410264:	03000003 	0x3000003
  410268:	00000000 	nop
  41026c:	00000010 	mfhi	zero
  410270:	00000000 	nop
  410274:	04000003 	bltz	zero,410284 <boutcode+0x1214>
  410278:	00000000 	nop
  41027c:	00000010 	mfhi	zero
  410280:	00000000 	nop
  410284:	05000003 	bltz	t0,410294 <boutcode+0x1224>
  410288:	00000000 	nop
  41028c:	00000010 	mfhi	zero
  410290:	00000000 	nop
  410294:	06000003 	bltz	s0,4102a4 <boutcode+0x1234>
  410298:	00000000 	nop
	...
  4102a4:	07000003 	bltz	t8,4102b4 <boutcode+0x1244>
  4102a8:	00000000 	nop
	...
  4102b4:	08000003 	j	c <__tlb_stride_length+0xb>
  4102b8:	00000000 	nop
	...
  4102c4:	09000003 	j	400000c <_end+0x3bda1f8>
  4102c8:	00000000 	nop
	...
  4102d4:	0a000003 	j	800000c <_end+0x7bda1f8>
  4102d8:	00000000 	nop
	...
  4102e4:	0b000003 	j	c00000c <_end+0xbbda1f8>
  4102e8:	00000000 	nop
	...
  4102f4:	0c000003 	jal	c <__tlb_stride_length+0xb>
  4102f8:	01000000 	0x1000000
	...
  410304:	f1ff0004 	0xf1ff0004
  410308:	06000000 	bltz	s0,41030c <boutcode+0x129c>
  41030c:	00000000 	nop
  410310:	00000000 	nop
  410314:	f1ff0004 	0xf1ff0004
  410318:	10000000 	b	41031c <boutcode+0x12ac>
  41031c:	00000000 	nop
  410320:	00000000 	nop
  410324:	f1ff0004 	0xf1ff0004
  410328:	18000000 	blez	zero,41032c <boutcode+0x12bc>
  41032c:	200b4000 	addi	t3,zero,16384
  410330:	19000000 	blez	t0,410334 <boutcode+0x12c4>
  410334:	03000001 	movf	zero,t8,$fcc0
  410338:	24000000 	li	zero,0
	...
  410344:	f1ff0004 	0xf1ff0004
  410348:	2d000000 	sltiu	zero,t0,0
  41034c:	d0094000 	0xd0094000
  410350:	94000000 	lhu	zero,0(zero)
  410354:	02000002 	0x2000002
  410358:	36000000 	ori	zero,s0,0x0
  41035c:	50014000 	beql	zero,at,420360 <__bss_start+0x2c24>
  410360:	6c050000 	0x6c050000
  410364:	02000012 	0x2000012
  410368:	3f000000 	0x3f000000
  41036c:	a00a4000 	sb	t2,16384(zero)
  410370:	64000000 	0x64000000
  410374:	02000012 	0x2000012
  410378:	46000000 	add.s	$f0,$f0,$f0
  41037c:	08014000 	j	50000 <__tlb_stride_length+0x4ffff>
  410380:	3c000000 	lui	zero,0x0
  410384:	02000012 	0x2000012
  410388:	4f000000 	lwxc1	$f0,zero(t8)
  41038c:	640a4000 	0x640a4000
  410390:	3c000000 	lui	zero,0x0
  410394:	02000012 	0x2000012
  410398:	56000000 	bnezl	s0,41039c <boutcode+0x132c>
  41039c:	00000010 	mfhi	zero
  4103a0:	00000000 	nop
  4103a4:	04000010 	bltz	zero,4103e8 <boutcode+0x1378>
  4103a8:	5d000000 	bgtzl	t0,4103ac <boutcode+0x133c>
  4103ac:	f07f0010 	0xf07f0010
  4103b0:	00000000 	nop
  4103b4:	f1ff0010 	0xf1ff0010
  4103b8:	61000000 	0x61000000
  4103bc:	44084000 	mfc1	t0,$f8
  4103c0:	80010000 	lb	at,0(zero)
  4103c4:	02000012 	0x2000012
  4103c8:	6a000000 	0x6a000000
  4103cc:	e0004000 	sc	zero,16384(zero)
  4103d0:	14000000 	bnez	zero,4103d4 <boutcode+0x1364>
  4103d4:	02000012 	0x2000012
  4103d8:	75000000 	jalx	4000000 <_end+0x3bda1ec>
  4103dc:	b0004000 	0xb0004000
  4103e0:	00000000 	nop
  4103e4:	02000010 	0x2000010
  4103e8:	7c000000 	ext	zero,zero,0x0,0x1
  4103ec:	3c074000 	lui	a3,0x4000
  4103f0:	08010000 	j	40000 <__tlb_stride_length+0x3ffff>
  4103f4:	02000012 	0x2000012
  4103f8:	88000000 	lwl	zero,0(zero)
  4103fc:	00000010 	mfhi	zero
  410400:	00000000 	nop
  410404:	f1ff0010 	0xf1ff0010
  410408:	94000000 	lhu	zero,0(zero)
  41040c:	b0004000 	0xb0004000
  410410:	24000000 	li	zero,0
  410414:	02000012 	0x2000012
  410418:	99000000 	lwr	zero,0(t0)
  41041c:	bc064000 	cache	0x6,16384(zero)
  410420:	80000000 	lb	zero,0(zero)
  410424:	02000012 	0x2000012
  410428:	a3000000 	sb	zero,0(t8)
  41042c:	00000010 	mfhi	zero
  410430:	00000000 	nop
  410434:	f1ff0010 	0xf1ff0010
  410438:	aa000000 	swl	zero,0(s0)
  41043c:	00000010 	mfhi	zero
  410440:	00000000 	nop
  410444:	f1ff0010 	0xf1ff0010
  410448:	af000000 	sw	zero,0(t8)
  41044c:	f4004000 	sdc1	$f0,16384(zero)
  410450:	14000000 	bnez	zero,410454 <boutcode+0x13e4>
  410454:	02000012 	0x2000012
  410458:	b4000000 	0xb4000000
  41045c:	00000010 	mfhi	zero
  410460:	00000000 	nop
  410464:	f1ff0010 	0xf1ff0010
  410468:	2e6e6900 	sltiu	t6,s3,26880
  41046c:	6f630063 	0x6f630063
  410470:	6c6f736e 	0x6c6f736e
  410474:	00632e65 	0x632e65
  410478:	6e697270 	0x6e697270
  41047c:	00632e74 	teq	v1,v1,0xb9
  410480:	46656874 	c1	0x656874
  410484:	6c617461 	0x6c617461
  410488:	0067734d 	break	0x67,0x1cd
  41048c:	6e697270 	0x6e697270
  410490:	632e6674 	0x632e6674
  410494:	6f796d00 	0x6f796d00
  410498:	75707475 	jalx	5c1d1d4 <_end+0x57f73c0>
  41049c:	706c0074 	0x706c0074
  4104a0:	6972505f 	0x6972505f
  4104a4:	5f00746e 	bgtzl	t8,42d660 <_end+0x784c>
  4104a8:	696e6170 	0x696e6170
  4104ac:	72700063 	0x72700063
  4104b0:	73746e69 	0x73746e69
  4104b4:	70007274 	0x70007274
  4104b8:	746e6972 	jalx	1b9a5c8 <_end+0x17747b4>
  4104bc:	665f0066 	0x665f0066
  4104c0:	61746164 	0x61746164
  4104c4:	70675f00 	0x70675f00
  4104c8:	69725000 	0x69725000
  4104cc:	754e746e 	jalx	539d1b8 <_end+0x4f773a4>
  4104d0:	7270006d 	0x7270006d
  4104d4:	63746e69 	0x63746e69
  4104d8:	63726168 	0x63726168
  4104dc:	74665f00 	jalx	1997c00 <_end+0x1571dec>
  4104e0:	00747865 	0x747865
  4104e4:	6e697250 	0x6e697250
  4104e8:	72745374 	0x72745374
  4104ec:	00676e69 	0x676e69
  4104f0:	73625f5f 	udi15	k1,v0,t3,0x1d
  4104f4:	74735f73 	jalx	1cd7dcc <_end+0x18b1fb8>
  4104f8:	00747261 	0x747261
  4104fc:	6e69616d 	0x6e69616d
  410500:	69725000 	0x69725000
  410504:	6843746e 	0x6843746e
  410508:	5f007261 	bgtzl	t8,42ce90 <_end+0x707c>
  41050c:	74616465 	jalx	1859194 <_end+0x1433380>
  410510:	655f0061 	0x655f0061
  410514:	6800646e 	0x6800646e
  410518:	00746c61 	0x746c61
  41051c:	7362665f 	udi15	k1,v0,t4,0x19
  410520:	00000073 	tltu	zero,zero,0x1

00410524 <aoutcode>:
  410524:	464c457f 	c1	0x4c457f
  410528:	00010201 	0x10201
	...
  410534:	08000200 	j	800 <__tlb_stride_length+0x7ff>
  410538:	01000000 	0x1000000
  41053c:	b0004000 	0xb0004000
  410540:	34000000 	li	zero,0x0
  410544:	b00f0000 	0xb00f0000
  410548:	01100050 	0x1100050
  41054c:	20003400 	addi	zero,zero,13312
  410550:	28000300 	slti	zero,zero,768
  410554:	0a000d00 	j	8003400 <_end+0x7bdd5ec>
  410558:	00000070 	tge	zero,zero,0x1
  41055c:	94000000 	lhu	zero,0(zero)
  410560:	94004000 	lhu	zero,16384(zero)
  410564:	94004000 	lhu	zero,16384(zero)
  410568:	18000000 	blez	zero,41056c <aoutcode+0x48>
  41056c:	18000000 	blez	zero,410570 <aoutcode+0x4c>
  410570:	04000000 	bltz	zero,410574 <aoutcode+0x50>
  410574:	04000000 	bltz	zero,410578 <aoutcode+0x54>
  410578:	01000000 	0x1000000
  41057c:	94000000 	lhu	zero,0(zero)
  410580:	94004000 	lhu	zero,16384(zero)
  410584:	94004000 	lhu	zero,16384(zero)
  410588:	b20c0000 	0xb20c0000
  41058c:	b20c0000 	0xb20c0000
  410590:	05000000 	bltz	t0,410594 <aoutcode+0x70>
  410594:	10000000 	b	410598 <aoutcode+0x74>
  410598:	01000000 	0x1000000
  41059c:	500d0000 	beql	zero,t5,4105a0 <aoutcode+0x7c>
  4105a0:	00000010 	mfhi	zero
  4105a4:	00000010 	mfhi	zero
	...
  4105b0:	06000000 	bltz	s0,4105b4 <aoutcode+0x90>
  4105b4:	10000000 	b	4105b8 <aoutcode+0x94>
  4105b8:	300001a0 	andi	zero,zero,0x1a0
	...
  4105cc:	f07f0010 	0xf07f0010
  4105d0:	00000000 	nop
  4105d4:	e8ffbd27 	swc2	$31,-17113(a3)
  4105d8:	1400bfaf 	bnez	zero,400498 <user_PrintNum+0x16c>
  4105dc:	1000b0af 	b	3fc89c <__tlb_stride_length+0x3fc89b>
  4105e0:	4000103c 	0x4000103c
  4105e4:	100b0426 	beq	zero,t3,411680 <aoutcode+0x115c>
  4105e8:	9902100c 	lwr	v0,4108(t0)
  4105ec:	01000524 	0x1000524
  4105f0:	fdff0010 	sdc3	$31,16(t7)
  4105f4:	100b0426 	beq	zero,t3,411690 <aoutcode+0x116c>
  4105f8:	00000000 	nop
	...
  410604:	ff008430 	sdc3	$0,-31696(t8)
  410608:	0090023c 	0x90023c
  41060c:	000044a0 	0x44a0
  410610:	0800e003 	j	3800c <__tlb_stride_length+0x3800b>
  410614:	00000000 	nop
  410618:	0090023c 	0x90023c
  41061c:	10004234 	b	420ef0 <__bss_start+0x37b4>
  410620:	000040a0 	0x40a0
  410624:	0800e003 	j	3800c <__tlb_stride_length+0x3800b>
  410628:	00000000 	nop
  41062c:	e8ffbd27 	swc2	$31,-17113(a3)
  410630:	1400bfaf 	bnez	zero,4004f0 <user_lp_Print+0x20>
  410634:	1000b0af 	b	3fc8f4 <__tlb_stride_length+0x3fc8f3>
  410638:	21808000 	addi	zero,t4,-32768
  41063c:	00008480 	sll	s0,zero,0x12
  410640:	06008010 	bltz	s0,3f0684 <__tlb_stride_length+0x3f0683>
  410644:	1400bf8f 	bnez	zero,400484 <user_PrintNum+0x158>
  410648:	3800100c 	xori	zero,zero,0x100c
  41064c:	01001026 	xor	v0,t0,zero
  410650:	00000482 	srl	zero,zero,0x12
  410654:	fcff8014 	sdc3	$31,-32748(a3)
  410658:	1400bf8f 	bnez	zero,400498 <user_PrintNum+0x16c>
  41065c:	1000b08f 	b	3fc89c <__tlb_stride_length+0x3fc89b>
  410660:	0800e003 	j	3800c <__tlb_stride_length+0x3800b>
  410664:	1800bd27 	blez	zero,3ffb04 <__tlb_stride_length+0x3ffb03>
  410668:	00000000 	nop
	...
  410674:	78ffbd27 	st.d	$w20,2040(s7)
  410678:	8400bfaf 	lh	zero,-16465(zero)
  41067c:	8000b4af 	lb	zero,-19281(zero)
  410680:	7c00b3af 	lwe	zero,-153(zero)
  410684:	7800b2af 	0x7800b2af
  410688:	7400b1af 	jalx	2c6bc <__tlb_stride_length+0x2c6bb>
  41068c:	7000b0af 	0x7000b0af
  410690:	21988000 	addi	t8,t4,-32768
  410694:	21a0a000 	addi	zero,t5,-24576
  410698:	2128c000 	addi	t0,t1,-16384
  41069c:	2190e000 	addi	s0,t4,-8192
  4106a0:	0000a380 	sll	s4,zero,0xe
  4106a4:	0c006010 	jal	18040 <__tlb_stride_length+0x1803f>
  4106a8:	2180a000 	addi	zero,t4,-24576
  4106ac:	48010010 	0x48010010
  4106b0:	25000224 	addiu	zero,t0,548
  4106b4:	2180a000 	addi	zero,t4,-24576
  4106b8:	01001026 	xor	v0,t0,zero
  4106bc:	00000282 	srl	zero,zero,0xa
  4106c0:	06004010 	bltz	s0,420704 <__bss_start+0x2fc8>
  4106c4:	23300502 	addi	s0,t9,1282
  4106c8:	05004310 	bltz	t0,42130c <__bss_start+0x3bd0>
  4106cc:	5100c22c 	beqzl	t0,400f80 <syscall_putchar+0x10>
  4106d0:	faff0010 	sdc2	$31,16(s7)
  4106d4:	01001026 	xor	v0,t0,zero
  4106d8:	23300502 	addi	s0,t9,1282
  4106dc:	5100c22c 	beqzl	t0,400f90 <syscall_putchar+0x20>
  4106e0:	07004014 	bltz	t8,420734 <__bss_start+0x2ff8>
  4106e4:	21208002 	addi	zero,t1,-32766
  4106e8:	4000053c 	0x4000053c
  4106ec:	200ba524 	addi	t3,zero,-23260
  4106f0:	09f86002 	j	7e18008 <_end+0x79f21f4>
  4106f4:	18000624 	blez	zero,411f88 <binary_user_A_start+0x5ac>
  4106f8:	ffff0010 	sdc3	$31,16(ra)
  4106fc:	00000000 	nop
  410700:	09f86002 	j	7e18008 <_end+0x79f21f4>
  410704:	21208002 	addi	zero,t1,-32766
  410708:	00000282 	srl	zero,zero,0xa
  41070c:	23014010 	addi	at,t8,16400
  410710:	6c000224 	0x6c000224
  410714:	01000382 	0x1000382
  410718:	03006210 	0x3006210
  41071c:	01001126 	0x1001126
  410720:	03000010 	0x3000010
  410724:	21200000 	addi	zero,t1,0
  410728:	02001126 	0x2001126
  41072c:	01000424 	0x1000424
  410730:	00002382 	srl	a0,zero,0xe
  410734:	2d000224 	sltiu	zero,t0,548
  410738:	04006214 	bltz	zero,428f8c <_end+0x3178>
  41073c:	21380000 	addi	t8,t1,0
  410740:	01003126 	0x1003126
  410744:	01000724 	0x1000724
  410748:	00002382 	srl	a0,zero,0xe
  41074c:	30000224 	andi	zero,zero,0x224
  410750:	03006214 	0x3006214
  410754:	20000924 	addi	zero,zero,2340
  410758:	01003126 	0x1003126
  41075c:	30000924 	andi	zero,zero,0x924
  410760:	00002682 	srl	a0,zero,0x1a
  410764:	d0ffc224 	0xd0ffc224
  410768:	ff004230 	sdc3	$0,16944(t8)
  41076c:	0a00422c 	j	80108b0 <_end+0x7beaa9c>
  410770:	0d004010 	jal	4010040 <_end+0x3bea22c>
  410774:	21400000 	addi	zero,t2,0
  410778:	40100800 	mfc0	s0,c0_random
  41077c:	c0180800 	ll	t8,2048(zero)
  410780:	21104300 	addi	s0,t0,17152
  410784:	21104600 	addi	s0,t0,17920
  410788:	d0ff4824 	0xd0ff4824
  41078c:	01003126 	0x1003126
  410790:	00002682 	srl	a0,zero,0x1a
  410794:	d0ffc224 	0xd0ffc224
  410798:	ff004230 	sdc3	$0,16944(t8)
  41079c:	0a00422c 	j	80108b0 <_end+0x7beaa9c>
  4107a0:	f6ff4014 	sdc1	$f31,16404(s7)
  4107a4:	40100800 	mfc0	s0,c0_random
  4107a8:	00002382 	srl	a0,zero,0xe
  4107ac:	2e000224 	sltiu	zero,s0,548
  4107b0:	11006214 	beqz	t0,429004 <_end+0x31f0>
  4107b4:	7900622c 	0x7900622c
  4107b8:	01003126 	0x1003126
  4107bc:	00002292 	0x2292
  4107c0:	d0ff4224 	0xd0ff4224
  4107c4:	ff004230 	sdc3	$0,16944(t8)
  4107c8:	0a00422c 	j	80108b0 <_end+0x7beaa9c>
  4107cc:	08004010 	j	10040 <__tlb_stride_length+0x1003f>
  4107d0:	00000000 	nop
  4107d4:	01003126 	0x1003126
  4107d8:	00002292 	0x2292
  4107dc:	d0ff4224 	0xd0ff4224
  4107e0:	ff004230 	sdc3	$0,16944(t8)
  4107e4:	0a00422c 	j	80108b0 <_end+0x7beaa9c>
  4107e8:	faff4014 	sdc2	$31,16404(s7)
  4107ec:	00000000 	nop
  4107f0:	00002382 	srl	a0,zero,0xe
  4107f4:	7900622c 	0x7900622c
  4107f8:	e2004010 	sc	zero,16400(s0)
  4107fc:	80100300 	lb	s0,768(zero)
  410800:	4000033c 	0x4000033c
  410804:	400b6324 	0x400b6324
  410808:	21104300 	addi	s0,t0,17152
  41080c:	0000428c 	syscall	0x10a
  410810:	08004000 	j	10000 <__tlb_stride_length+0xffff>
  410814:	00000000 	nop
  410818:	04008010 	bltz	zero,3f085c <__tlb_stride_length+0x3f085b>
  41081c:	00000000 	nop
  410820:	0000458e 	0x458e
  410824:	03000010 	0x3000010
  410828:	04005226 	bltz	zero,4250c4 <__bss_start+0x7988>
  41082c:	0000458e 	0x458e
  410830:	04005226 	bltz	zero,4250cc <__bss_start+0x7990>
  410834:	1000a8af 	b	3faaf4 <__tlb_stride_length+0x3faaf3>
  410838:	1400a7af 	bnez	zero,3fa6f8 <__tlb_stride_length+0x3fa6f7>
  41083c:	1800a9af 	blez	zero,3faefc <__tlb_stride_length+0x3faefb>
  410840:	1c00a0af 	bgtz	zero,3f8b00 <__tlb_stride_length+0x3f8aff>
  410844:	2000a427 	addi	zero,zero,-23513
  410848:	02000624 	0x2000624
  41084c:	1102100c 	beq	t0,v0,414880 <binary_user_idle_start+0x538>
  410850:	21380000 	addi	t8,t1,0
  410854:	21304000 	addi	s0,t1,16384
  410858:	5100422c 	beqzl	t0,42110c <__bss_start+0x39d0>
  41085c:	07004014 	bltz	t8,4208b0 <__bss_start+0x3174>
  410860:	21208002 	addi	zero,t1,-32766
  410864:	4000053c 	0x4000053c
  410868:	200ba524 	addi	t3,zero,-23260
  41086c:	09f86002 	j	7e18008 <_end+0x79f21f4>
  410870:	18000624 	blez	zero,412104 <binary_user_A_start+0x728>
  410874:	ffff0010 	sdc3	$31,16(ra)
  410878:	00000000 	nop
  41087c:	09f86002 	j	7e18008 <_end+0x79f21f4>
  410880:	2000a527 	addi	zero,zero,-23257
  410884:	86ff0010 	lh	ra,16(s7)
  410888:	01002526 	0x1002526
  41088c:	04008010 	bltz	zero,3f08d0 <__tlb_stride_length+0x3f08cf>
  410890:	00000000 	nop
  410894:	0000458e 	0x458e
  410898:	03000010 	0x3000010
  41089c:	04005226 	bltz	zero,425138 <__bss_start+0x79fc>
  4108a0:	0000458e 	0x458e
  4108a4:	04005226 	bltz	zero,425140 <__bss_start+0x7a04>
  4108a8:	0300a104 	0x300a104
  4108ac:	21100000 	addi	s0,t0,0
  4108b0:	23280500 	addi	t0,t9,1280
  4108b4:	01000224 	0x1000224
  4108b8:	1000a8af 	b	3fab78 <__tlb_stride_length+0x3fab77>
  4108bc:	1400a7af 	bnez	zero,3fa77c <__tlb_stride_length+0x3fa77b>
  4108c0:	1800a9af 	blez	zero,3faf80 <__tlb_stride_length+0x3faf7f>
  4108c4:	1c00a0af 	bgtz	zero,3f8b84 <__tlb_stride_length+0x3f8b83>
  4108c8:	2000a427 	addi	zero,zero,-23513
  4108cc:	0a000624 	j	8001890 <_end+0x7bdba7c>
  4108d0:	1102100c 	beq	t0,v0,414904 <binary_user_idle_start+0x5bc>
  4108d4:	21384000 	addi	t8,t1,16384
  4108d8:	21304000 	addi	s0,t1,16384
  4108dc:	5100422c 	beqzl	t0,421190 <__bss_start+0x3a54>
  4108e0:	07004014 	bltz	t8,420934 <__bss_start+0x31f8>
  4108e4:	21208002 	addi	zero,t1,-32766
  4108e8:	4000053c 	0x4000053c
  4108ec:	200ba524 	addi	t3,zero,-23260
  4108f0:	09f86002 	j	7e18008 <_end+0x79f21f4>
  4108f4:	18000624 	blez	zero,412188 <binary_user_A_start+0x7ac>
  4108f8:	ffff0010 	sdc3	$31,16(ra)
  4108fc:	00000000 	nop
  410900:	09f86002 	j	7e18008 <_end+0x79f21f4>
  410904:	2000a527 	addi	zero,zero,-23257
  410908:	65ff0010 	0x65ff0010
  41090c:	01002526 	0x1002526
  410910:	04008010 	bltz	zero,3f0954 <__tlb_stride_length+0x3f0953>
  410914:	00000000 	nop
  410918:	0000458e 	0x458e
  41091c:	03000010 	0x3000010
  410920:	04005226 	bltz	zero,4251bc <__bss_start+0x7a80>
  410924:	0000458e 	0x458e
  410928:	04005226 	bltz	zero,4251c4 <__bss_start+0x7a88>
  41092c:	1000a8af 	b	3fabec <__tlb_stride_length+0x3fabeb>
  410930:	1400a7af 	bnez	zero,3fa7f0 <__tlb_stride_length+0x3fa7ef>
  410934:	1800a9af 	blez	zero,3faff4 <__tlb_stride_length+0x3faff3>
  410938:	1c00a0af 	bgtz	zero,3f8bf8 <__tlb_stride_length+0x3f8bf7>
  41093c:	2000a427 	addi	zero,zero,-23513
  410940:	08000624 	j	1890 <__tlb_stride_length+0x188f>
  410944:	1102100c 	beq	t0,v0,414978 <binary_user_idle_start+0x630>
  410948:	21380000 	addi	t8,t1,0
  41094c:	21304000 	addi	s0,t1,16384
  410950:	5100422c 	beqzl	t0,421204 <__bss_start+0x3ac8>
  410954:	07004014 	bltz	t8,4209a8 <__bss_start+0x326c>
  410958:	21208002 	addi	zero,t1,-32766
  41095c:	4000053c 	0x4000053c
  410960:	200ba524 	addi	t3,zero,-23260
  410964:	09f86002 	j	7e18008 <_end+0x79f21f4>
  410968:	18000624 	blez	zero,4121fc <binary_user_A_start+0x820>
  41096c:	ffff0010 	sdc3	$31,16(ra)
  410970:	00000000 	nop
  410974:	09f86002 	j	7e18008 <_end+0x79f21f4>
  410978:	2000a527 	addi	zero,zero,-23257
  41097c:	48ff0010 	mthc2	ra,0x10
  410980:	01002526 	0x1002526
  410984:	04008010 	bltz	zero,3f09c8 <__tlb_stride_length+0x3f09c7>
  410988:	00000000 	nop
  41098c:	0000458e 	0x458e
  410990:	03000010 	0x3000010
  410994:	04005226 	bltz	zero,425230 <__bss_start+0x7af4>
  410998:	0000458e 	0x458e
  41099c:	04005226 	bltz	zero,425238 <__bss_start+0x7afc>
  4109a0:	1000a8af 	b	3fac60 <__tlb_stride_length+0x3fac5f>
  4109a4:	1400a7af 	bnez	zero,3fa864 <__tlb_stride_length+0x3fa863>
  4109a8:	1800a9af 	blez	zero,3fb068 <__tlb_stride_length+0x3fb067>
  4109ac:	1c00a0af 	bgtz	zero,3f8c6c <__tlb_stride_length+0x3f8c6b>
  4109b0:	2000a427 	addi	zero,zero,-23513
  4109b4:	0a000624 	j	8001890 <_end+0x7bdba7c>
  4109b8:	1102100c 	beq	t0,v0,4149ec <binary_user_idle_start+0x6a4>
  4109bc:	21380000 	addi	t8,t1,0
  4109c0:	21304000 	addi	s0,t1,16384
  4109c4:	5100422c 	beqzl	t0,421278 <__bss_start+0x3b3c>
  4109c8:	07004014 	bltz	t8,420a1c <__bss_start+0x32e0>
  4109cc:	21208002 	addi	zero,t1,-32766
  4109d0:	4000053c 	0x4000053c
  4109d4:	200ba524 	addi	t3,zero,-23260
  4109d8:	09f86002 	j	7e18008 <_end+0x79f21f4>
  4109dc:	18000624 	blez	zero,412270 <binary_user_A_start+0x894>
  4109e0:	ffff0010 	sdc3	$31,16(ra)
  4109e4:	00000000 	nop
  4109e8:	09f86002 	j	7e18008 <_end+0x79f21f4>
  4109ec:	2000a527 	addi	zero,zero,-23257
  4109f0:	2bff0010 	slti	ra,ra,16
  4109f4:	01002526 	0x1002526
  4109f8:	04008010 	bltz	zero,3f0a3c <__tlb_stride_length+0x3f0a3b>
  4109fc:	00000000 	nop
  410a00:	0000458e 	0x458e
  410a04:	03000010 	0x3000010
  410a08:	04005226 	bltz	zero,4252a4 <__bss_start+0x7b68>
  410a0c:	0000458e 	0x458e
  410a10:	04005226 	bltz	zero,4252ac <__bss_start+0x7b70>
  410a14:	1000a8af 	b	3facd4 <__tlb_stride_length+0x3facd3>
  410a18:	1400a7af 	bnez	zero,3fa8d8 <__tlb_stride_length+0x3fa8d7>
  410a1c:	1800a9af 	blez	zero,3fb0dc <__tlb_stride_length+0x3fb0db>
  410a20:	1c00a0af 	bgtz	zero,3f8ce0 <__tlb_stride_length+0x3f8cdf>
  410a24:	2000a427 	addi	zero,zero,-23513
  410a28:	10000624 	b	4122bc <binary_user_A_start+0x8e0>
  410a2c:	1102100c 	beq	t0,v0,414a60 <binary_user_idle_start+0x718>
  410a30:	21380000 	addi	t8,t1,0
  410a34:	21304000 	addi	s0,t1,16384
  410a38:	5100422c 	beqzl	t0,4212ec <__bss_start+0x3bb0>
  410a3c:	07004014 	bltz	t8,420a90 <__bss_start+0x3354>
  410a40:	21208002 	addi	zero,t1,-32766
  410a44:	4000053c 	0x4000053c
  410a48:	200ba524 	addi	t3,zero,-23260
  410a4c:	09f86002 	j	7e18008 <_end+0x79f21f4>
  410a50:	18000624 	blez	zero,4122e4 <binary_user_A_start+0x908>
  410a54:	ffff0010 	sdc3	$31,16(ra)
  410a58:	00000000 	nop
  410a5c:	09f86002 	j	7e18008 <_end+0x79f21f4>
  410a60:	2000a527 	addi	zero,zero,-23257
  410a64:	0eff0010 	jal	bfc0040 <_end+0xbb9a22c>
  410a68:	01002526 	0x1002526
  410a6c:	04008010 	bltz	zero,3f0ab0 <__tlb_stride_length+0x3f0aaf>
  410a70:	00000000 	nop
  410a74:	0000458e 	0x458e
  410a78:	03000010 	0x3000010
  410a7c:	04005226 	bltz	zero,425318 <__bss_start+0x7bdc>
  410a80:	0000458e 	0x458e
  410a84:	04005226 	bltz	zero,425320 <__bss_start+0x7be4>
  410a88:	1000a8af 	b	3fad48 <__tlb_stride_length+0x3fad47>
  410a8c:	1400a7af 	bnez	zero,3fa94c <__tlb_stride_length+0x3fa94b>
  410a90:	1800a9af 	blez	zero,3fb150 <__tlb_stride_length+0x3fb14f>
  410a94:	01000224 	0x1000224
  410a98:	1c00a2af 	bgtz	zero,3f9558 <__tlb_stride_length+0x3f9557>
  410a9c:	2000a427 	addi	zero,zero,-23513
  410aa0:	10000624 	b	412334 <binary_user_A_start+0x958>
  410aa4:	1102100c 	beq	t0,v0,414ad8 <binary_user_idle_start+0x790>
  410aa8:	21380000 	addi	t8,t1,0
  410aac:	21304000 	addi	s0,t1,16384
  410ab0:	5100422c 	beqzl	t0,421364 <__bss_start+0x3c28>
  410ab4:	07004014 	bltz	t8,420b08 <__bss_start+0x33cc>
  410ab8:	21208002 	addi	zero,t1,-32766
  410abc:	4000053c 	0x4000053c
  410ac0:	200ba524 	addi	t3,zero,-23260
  410ac4:	09f86002 	j	7e18008 <_end+0x79f21f4>
  410ac8:	18000624 	blez	zero,41235c <binary_user_A_start+0x980>
  410acc:	ffff0010 	sdc3	$31,16(ra)
  410ad0:	00000000 	nop
  410ad4:	09f86002 	j	7e18008 <_end+0x79f21f4>
  410ad8:	2000a527 	addi	zero,zero,-23257
  410adc:	f0fe0010 	0xf0fe0010
  410ae0:	01002526 	0x1002526
  410ae4:	04005026 	bltz	zero,424b80 <__bss_start+0x7444>
  410ae8:	2000a427 	addi	zero,zero,-23513
  410aec:	03004582 	0x3004582
  410af0:	af01100c 	sw	at,4108(t8)
  410af4:	21300001 	addi	s0,t1,1
  410af8:	21304000 	addi	s0,t1,16384
  410afc:	5100422c 	beqzl	t0,4213b0 <__bss_start+0x3c74>
  410b00:	07004014 	bltz	t8,420b54 <__bss_start+0x3418>
  410b04:	21208002 	addi	zero,t1,-32766
  410b08:	4000053c 	0x4000053c
  410b0c:	200ba524 	addi	t3,zero,-23260
  410b10:	09f86002 	j	7e18008 <_end+0x79f21f4>
  410b14:	18000624 	blez	zero,4123a8 <binary_user_A_start+0x9cc>
  410b18:	ffff0010 	sdc3	$31,16(ra)
  410b1c:	00000000 	nop
  410b20:	09f86002 	j	7e18008 <_end+0x79f21f4>
  410b24:	2000a527 	addi	zero,zero,-23257
  410b28:	1a000010 	blez	s0,410b6c <aoutcode+0x648>
  410b2c:	21900002 	addi	s0,t4,2
  410b30:	04005026 	bltz	zero,424bcc <__bss_start+0x7490>
  410b34:	2000a427 	addi	zero,zero,-23513
  410b38:	0000458e 	0x458e
  410b3c:	cf01100c 	pref	0x1,4108(t8)
  410b40:	21300001 	addi	s0,t1,1
  410b44:	21304000 	addi	s0,t1,16384
  410b48:	5100422c 	beqzl	t0,4213fc <__bss_start+0x3cc0>
  410b4c:	07004014 	bltz	t8,420ba0 <__bss_start+0x3464>
  410b50:	21208002 	addi	zero,t1,-32766
  410b54:	4000053c 	0x4000053c
  410b58:	200ba524 	addi	t3,zero,-23260
  410b5c:	09f86002 	j	7e18008 <_end+0x79f21f4>
  410b60:	18000624 	blez	zero,4123f4 <binary_user_A_start+0xa18>
  410b64:	ffff0010 	sdc3	$31,16(ra)
  410b68:	00000000 	nop
  410b6c:	09f86002 	j	7e18008 <_end+0x79f21f4>
  410b70:	2000a527 	addi	zero,zero,-23257
  410b74:	07000010 	bltz	t8,410bb8 <aoutcode+0x694>
  410b78:	21900002 	addi	s0,t4,2
  410b7c:	05000010 	bltz	t0,410bc0 <aoutcode+0x69c>
  410b80:	ffff3126 	sdc3	$31,12582(ra)
  410b84:	21208002 	addi	zero,t1,-32766
  410b88:	21282002 	addi	t0,t1,8194
  410b8c:	09f86002 	j	7e18008 <_end+0x79f21f4>
  410b90:	01000624 	0x1000624
  410b94:	c2fe0010 	ll	s8,16(s7)
  410b98:	01002526 	0x1002526
  410b9c:	21208002 	addi	zero,t1,-32766
  410ba0:	4000053c 	0x4000053c
  410ba4:	3c0ba524 	lui	t3,0xa524
  410ba8:	09f86002 	j	7e18008 <_end+0x79f21f4>
  410bac:	01000624 	0x1000624
  410bb0:	8400bf8f 	lh	zero,-16497(zero)
  410bb4:	8000b48f 	lb	zero,-19313(zero)
  410bb8:	7c00b38f 	0x7c00b38f
  410bbc:	7800b28f 	ceq.b	$w10,$w22,$w0
  410bc0:	7400b18f 	jalx	2c63c <__tlb_stride_length+0x2c63b>
  410bc4:	7000b08f 	0x7000b08f
  410bc8:	0800e003 	j	3800c <__tlb_stride_length+0x3800b>
  410bcc:	8800bd27 	lwl	zero,-17113(zero)
  410bd0:	b8fe6214 	swr	s8,25108(a3)
  410bd4:	25000324 	addiu	zero,t0,804
  410bd8:	bffe0010 	cache	0x1e,16(ra)
  410bdc:	2180a000 	addi	zero,t4,-24576
  410be0:	002e0500 	0x2e0500
  410be4:	032e0500 	0x32e0500
  410be8:	2a180600 	slti	t8,s0,1536
  410bec:	01000224 	0x1000224
  410bf0:	1500e010 	bnez	t0,408c34 <page_check+0x648>
  410bf4:	0a304300 	j	8c10c00 <_end+0x87eadec>
  410bf8:	0200c228 	0x200c228
  410bfc:	16004014 	bnez	s0,420c50 <__bss_start+0x3514>
  410c00:	000085a0 	0x85a0
  410c04:	01000324 	0x1000324
  410c08:	20000524 	addi	zero,zero,1316
  410c0c:	21108300 	addi	s0,t0,-32000
  410c10:	01006324 	0x1006324
  410c14:	1000c310 	b	401858 <readn+0xc>
  410c18:	000045a0 	0x45a0
  410c1c:	fcff0010 	sdc3	$31,16(a3)
  410c20:	21108300 	addi	s0,t0,-32000
  410c24:	21180000 	addi	t8,t0,0
  410c28:	20000824 	addi	zero,zero,2084
  410c2c:	21106400 	addi	s0,t0,25600
  410c30:	01006324 	0x1006324
  410c34:	fdff6714 	sdc3	$31,26388(t7)
  410c38:	000048a0 	0x48a0
  410c3c:	2110c400 	addi	s0,t0,-15360
  410c40:	05000010 	bltz	t0,410c84 <aoutcode+0x760>
  410c44:	ffff45a0 	sdc3	$31,17824(ra)
  410c48:	ffffc724 	sdc3	$31,-14556(ra)
  410c4c:	f5ffe01c 	sdc1	$f31,-8164(t7)
  410c50:	2110c400 	addi	s0,t0,-15360
  410c54:	ffff45a0 	sdc3	$31,17824(ra)
  410c58:	0800e003 	j	3800c <__tlb_stride_length+0x3800b>
  410c5c:	2110c000 	addi	s0,t0,-16384
  410c60:	0000a280 	sll	s4,zero,0xa
  410c64:	03004014 	0x3004014
  410c68:	0100a324 	0x100a324
  410c6c:	06000010 	bltz	s0,410cb0 <aoutcode+0x78c>
  410c70:	21400000 	addi	zero,t2,0
  410c74:	21400000 	addi	zero,t2,0
  410c78:	01000825 	move	at,t0
  410c7c:	00006280 	sll	t4,zero,0xa
  410c80:	fdff4014 	sdc3	$31,16404(t7)
  410c84:	01006324 	0x1006324
  410c88:	2a10c800 	slti	s0,s0,-14336
  410c8c:	3000e014 	andi	zero,zero,0xe014
  410c90:	0b300201 	j	cc00804 <_end+0xc7da9f0>
  410c94:	2a000010 	slti	zero,s0,16
  410c98:	2338c800 	addi	t8,t9,-14336
  410c9c:	21380000 	addi	t8,t1,0
  410ca0:	21108700 	addi	s0,t0,-30976
  410ca4:	2118a700 	addi	t8,t0,-22784
  410ca8:	00006390 	0x6390
  410cac:	0100e724 	0x100e724
  410cb0:	fbff0715 	sdc2	$31,1813(ra)
  410cb4:	000043a0 	0x43a0
  410cb8:	2a100601 	slti	s0,s0,1537
  410cbc:	28004010 	slti	zero,zero,16400
  410cc0:	21180000 	addi	t8,t0,0
  410cc4:	21108800 	addi	s0,t0,-30720
  410cc8:	20000524 	addi	zero,zero,1316
  410ccc:	2320c800 	addi	zero,t9,-14336
  410cd0:	000045a0 	0x45a0
  410cd4:	01006324 	0x1006324
  410cd8:	21006410 	addi	zero,t0,25616
  410cdc:	01004224 	0x1004224
  410ce0:	fcff0010 	sdc3	$31,16(a3)
  410ce4:	000045a0 	0x45a0
  410ce8:	21180000 	addi	t8,t0,0
  410cec:	20000924 	addi	zero,zero,2340
  410cf0:	21108300 	addi	s0,t0,-32000
  410cf4:	01006324 	0x1006324
  410cf8:	fdff6714 	sdc3	$31,26388(t7)
  410cfc:	000049a0 	0x49a0
  410d00:	2a10e600 	slti	s0,s0,-6656
  410d04:	16004010 	bnez	s0,420d48 <__bss_start+0x360c>
  410d08:	21208700 	addi	zero,t1,-30976
  410d0c:	2310e600 	addi	s0,t8,-6656
  410d10:	21100201 	addi	s0,t0,513
  410d14:	2118a200 	addi	t8,t0,-24064
  410d18:	21280000 	addi	t0,t1,0
  410d1c:	2338c700 	addi	t8,t9,-14592
  410d20:	00006290 	0x6290
  410d24:	000082a0 	0x82a0
  410d28:	0100a524 	0x100a524
  410d2c:	01006324 	0x1006324
  410d30:	0b00a710 	j	c029c40 <_end+0xbc03e2c>
  410d34:	01008424 	0x1008424
  410d38:	faff0010 	sdc2	$31,16(s7)
  410d3c:	00006290 	0x6290
  410d40:	e9ffe01c 	swc2	$31,-8164(t7)
  410d44:	2a10e600 	slti	s0,s0,-6656
  410d48:	eeff0010 	swc3	$31,16(s7)
  410d4c:	00000000 	nop
  410d50:	d2ff001d 	0xd2ff001d
  410d54:	2a100601 	slti	s0,s0,1537
  410d58:	d8ff0010 	ldc2	$31,16(a3)
  410d5c:	00000000 	nop
  410d60:	0800e003 	j	3800c <__tlb_stride_length+0x3800b>
  410d64:	2110c000 	addi	s0,t0,-16384
  410d68:	1000a98f 	b	3fb3a8 <__tlb_stride_length+0x3fb3a7>
  410d6c:	1400ac8f 	bnez	zero,3fbfac <__tlb_stride_length+0x3fbfab>
  410d70:	1c00ab8f 	bgtz	zero,3fbbb0 <__tlb_stride_length+0x3fbbaf>
  410d74:	1b00aa83 	blez	t8,3fb784 <__tlb_stride_length+0x3fb783>
  410d78:	21408000 	addi	zero,t2,-32768
  410d7c:	1b00a600 	blez	t8,3fa580 <__tlb_stride_length+0x3fa57f>
  410d80:	f401c000 	sdc1	$f1,-16384(zero)
  410d84:	10180000 	beq	zero,t8,410d88 <aoutcode+0x864>
  410d88:	0a006228 	j	80188a0 <_end+0x7bf2a8c>
  410d8c:	04004010 	bltz	zero,420dd0 <__bss_start+0x3694>
  410d90:	30006224 	andi	zero,zero,0x6224
  410d94:	000002a1 	0x2a1
  410d98:	0b000010 	j	c000040 <_end+0xbbda22c>
  410d9c:	01000825 	move	at,t0
  410da0:	05006011 	bltz	t0,428de8 <_end+0x2fd4>
  410da4:	57006224 	bnezl	t8,429638 <_end+0x3824>
  410da8:	37006224 	ori	zero,t8,0x6224
  410dac:	000002a1 	0x2a1
  410db0:	03000010 	0x3000010
  410db4:	01000825 	move	at,t0
  410db8:	000002a1 	0x2a1
  410dbc:	01000825 	move	at,t0
  410dc0:	1b00a600 	blez	t8,3fa5c4 <__tlb_stride_length+0x3fa5c3>
  410dc4:	f401c000 	sdc1	$f1,-16384(zero)
  410dc8:	12280000 	beq	s1,t0,410dcc <aoutcode+0x8a8>
  410dcc:	ebffa014 	swc2	$31,-24556(ra)
  410dd0:	00000000 	nop
  410dd4:	0500e010 	bltz	t0,408e18 <page_check+0x82c>
  410dd8:	23300401 	addi	s0,t9,1025
  410ddc:	2d000224 	sltiu	zero,t0,548
  410de0:	000002a1 	0x2a1
  410de4:	01000825 	move	at,t0
  410de8:	23300401 	addi	s0,t9,1025
  410dec:	2a102601 	slti	s0,s0,9729
  410df0:	0b48c200 	j	d230800 <_end+0xce0a9ec>
  410df4:	20000224 	addi	zero,zero,548
  410df8:	3200e010 	andi	zero,s0,0xe010
  410dfc:	0b504c00 	j	d413000 <_end+0xcfed1ec>
  410e00:	31008015 	andi	zero,t0,0x8015
  410e04:	2a10c900 	slti	s0,s0,-14080
  410e08:	30000224 	andi	zero,zero,0x224
  410e0c:	2e004215 	sltiu	zero,s0,16917
  410e10:	2a10c900 	slti	s0,s0,-14080
  410e14:	ffffc624 	sdc3	$31,-14812(ra)
  410e18:	ffff2825 	sdc3	$31,10277(ra)
  410e1c:	2a10c800 	slti	s0,s0,-14336
  410e20:	08004010 	j	10040 <__tlb_stride_length+0x1003f>
  410e24:	23100601 	addi	s0,t8,1537
  410e28:	21188600 	addi	t8,t0,-31232
  410e2c:	21280000 	addi	t0,t1,0
  410e30:	30000724 	andi	zero,zero,0x724
  410e34:	000067a0 	0x67a0
  410e38:	0100a524 	0x100a524
  410e3c:	fdffa214 	sdc3	$31,-24044(t7)
  410e40:	01006324 	0x1006324
  410e44:	21188900 	addi	t8,t0,-30464
  410e48:	2d000224 	sltiu	zero,t0,548
  410e4c:	0d000010 	jal	4000040 <_end+0x3bda22c>
  410e50:	ffff62a0 	sdc3	$31,25248(ra)
  410e54:	0000aaa0 	0xaaa0
  410e58:	01006324 	0x1006324
  410e5c:	23102601 	addi	s0,t8,9729
  410e60:	fcff6214 	sdc3	$31,25108(a3)
  410e64:	0100a524 	0x100a524
  410e68:	06008011 	bltz	s0,3f0eb0 <__tlb_stride_length+0x3f0eaf>
  410e6c:	00000000 	nop
  410e70:	ffffc624 	sdc3	$31,-14812(ra)
  410e74:	0500c01c 	bltz	t0,400ee8 <sfork+0x14>
  410e78:	21380000 	addi	t8,t1,0
  410e7c:	0800e003 	j	3800c <__tlb_stride_length+0x3800b>
  410e80:	21102001 	addi	s0,t0,8193
  410e84:	fbff0010 	sdc2	$31,16(ra)
  410e88:	ffff2625 	sdc3	$31,9765(ra)
  410e8c:	21288000 	addi	t0,t1,-32768
  410e90:	21208600 	addi	zero,t1,-31232
  410e94:	0000a280 	sll	s4,zero,0xa
  410e98:	00008390 	0x8390
  410e9c:	0000a3a0 	0xa3a0
  410ea0:	000082a0 	0x82a0
  410ea4:	0100e724 	0x100e724
  410ea8:	ffffc624 	sdc3	$31,-14812(ra)
  410eac:	0100a524 	0x100a524
  410eb0:	2a10e600 	slti	s0,s0,-6656
  410eb4:	09004010 	j	4010040 <_end+0x3bea22c>
  410eb8:	ffff8424 	sdc3	$31,-31708(ra)
  410ebc:	f6ff0010 	sdc1	$f31,16(s7)
  410ec0:	0000a280 	sll	s4,zero,0xa
  410ec4:	2a10c900 	slti	s0,s0,-14080
  410ec8:	e7ff4010 	swc1	$f31,16400(ra)
  410ecc:	00000000 	nop
  410ed0:	21288600 	addi	t0,t1,-31232
  410ed4:	dfff0010 	ldc3	$31,16(ra)
  410ed8:	21180000 	addi	t8,t0,0
  410edc:	21102001 	addi	s0,t0,8193
  410ee0:	0800e003 	j	3800c <__tlb_stride_length+0x3800b>
  410ee4:	00000000 	nop
	...
  410ef4:	e0ffbd27 	sc	ra,-17113(a3)
  410ef8:	1c00bfaf 	bgtz	zero,400db8 <fork+0x138>
  410efc:	1800b2af 	blez	zero,3fd9bc <__tlb_stride_length+0x3fd9bb>
  410f00:	1400b1af 	bnez	zero,3fd5c0 <__tlb_stride_length+0x3fd5bf>
  410f04:	1000b0af 	b	3fd1c4 <__tlb_stride_length+0x3fd1c3>
  410f08:	01000224 	0x1000224
  410f0c:	1300c214 	beqz	t8,401760 <dup+0x16c>
  410f10:	2190c000 	addi	s0,t4,-16384
  410f14:	0000a280 	sll	s4,zero,0xa
  410f18:	13004014 	beqz	t8,420f6c <__bss_start+0x3830>
  410f1c:	2180a000 	addi	zero,t4,-24576
  410f20:	14000010 	bnez	zero,410f64 <aoutcode+0xa40>
  410f24:	1c00bf8f 	bgtz	zero,400d64 <fork+0xe4>
  410f28:	3800100c 	xori	zero,zero,0x100c
  410f2c:	00000482 	srl	zero,zero,0x12
  410f30:	00000382 	srl	zero,zero,0xe
  410f34:	0a000224 	j	8000890 <_end+0x7bdaa7c>
  410f38:	03006214 	0x3006214
  410f3c:	00000000 	nop
  410f40:	3800100c 	xori	zero,zero,0x100c
  410f44:	0a000424 	j	8001090 <_end+0x7bdb27c>
  410f48:	01003126 	0x1003126
  410f4c:	08005112 	j	14448 <__tlb_stride_length+0x14447>
  410f50:	01001026 	xor	v0,t0,zero
  410f54:	f4ff0010 	sdc1	$f31,16(a3)
  410f58:	00000000 	nop
  410f5c:	0500c018 	bltz	t0,400fc0 <syscall_getenvid+0x20>
  410f60:	1c00bf8f 	bgtz	zero,400da0 <fork+0x120>
  410f64:	2180a000 	addi	zero,t4,-24576
  410f68:	efff0010 	swc3	$31,16(ra)
  410f6c:	21880000 	addi	t0,t4,0
  410f70:	1c00bf8f 	bgtz	zero,400db0 <fork+0x130>
  410f74:	1800b28f 	blez	zero,3fd9b4 <__tlb_stride_length+0x3fd9b3>
  410f78:	1400b18f 	bnez	zero,3fd5b8 <__tlb_stride_length+0x3fd5b7>
  410f7c:	1000b08f 	b	3fd1bc <__tlb_stride_length+0x3fd1bb>
  410f80:	0800e003 	j	3800c <__tlb_stride_length+0x3800b>
  410f84:	2000bd27 	addi	zero,zero,-17113
  410f88:	e0ffbd27 	sc	ra,-17113(a3)
  410f8c:	1800bfaf 	blez	zero,400e4c <fork+0x1cc>
  410f90:	2400a5af 	li	zero,-23121
  410f94:	2800a6af 	slti	zero,zero,-22865
  410f98:	2c00a7af 	sltiu	zero,zero,-22609
  410f9c:	21308000 	addi	s0,t1,-32768
  410fa0:	2400a727 	li	zero,-22745
  410fa4:	1000a7af 	b	3fae64 <__tlb_stride_length+0x3fae63>
  410fa8:	4000043c 	0x4000043c
  410fac:	d0098424 	0xd0098424
  410fb0:	5400100c 	bnezl	zero,414fe4 <binary_user_idle_start+0xc9c>
  410fb4:	21280000 	addi	t0,t1,0
  410fb8:	1800bf8f 	blez	zero,400df8 <fork+0x178>
  410fbc:	0800e003 	j	3800c <__tlb_stride_length+0x3800b>
  410fc0:	2000bd27 	addi	zero,zero,-17113
  410fc4:	e0ffbd27 	sc	ra,-17113(a3)
  410fc8:	1c00bfaf 	bgtz	zero,400e88 <fork+0x208>
  410fcc:	1800b0af 	blez	zero,3fd28c <__tlb_stride_length+0x3fd28b>
  410fd0:	21188000 	addi	t8,t0,-32768
  410fd4:	2140a000 	addi	zero,t2,-24576
  410fd8:	2c00a7af 	sltiu	zero,zero,-22609
  410fdc:	2180c000 	addi	zero,t4,-16384
  410fe0:	2c00a227 	sltiu	zero,zero,-24025
  410fe4:	1000a2af 	b	3f9aa4 <__tlb_stride_length+0x3f9aa3>
  410fe8:	4000043c 	0x4000043c
  410fec:	300d8424 	andi	t5,zero,0x8424
  410ff0:	21286000 	addi	t0,t1,24576
  410ff4:	9902100c 	lwr	v0,4108(t0)
  410ff8:	21300001 	addi	s0,t1,1
  410ffc:	4000043c 	0x4000043c
  411000:	d0098424 	0xd0098424
  411004:	21280000 	addi	t0,t1,0
  411008:	21300002 	addi	s0,t1,2
  41100c:	5400100c 	bnezl	zero,415040 <binary_user_idle_start+0xcf8>
  411010:	1000a78f 	b	3fae50 <__tlb_stride_length+0x3fae4f>
  411014:	4000043c 	0x4000043c
  411018:	9902100c 	lwr	v0,4108(t0)
  41101c:	440d8424 	0x440d8424
  411020:	ffff0010 	sdc3	$31,16(ra)
	...
  411034:	00206425 	0x206425
	...
  411044:	61746166 	0x61746166
  411048:	7265206c 	0x7265206c
  41104c:	20726f72 	addi	s2,v1,28530
  411050:	6c206e69 	0x6c206e69
  411054:	72505f70 	0x72505f70
  411058:	21746e69 	addi	s4,t3,28265
	...
  411064:	58064000 	0x58064000
  411068:	60064000 	0x60064000
  41106c:	60064000 	0x60064000
  411070:	60064000 	0x60064000
  411074:	60064000 	0x60064000
  411078:	60064000 	0x60064000
  41107c:	60064000 	0x60064000
  411080:	60064000 	0x60064000
  411084:	60064000 	0x60064000
  411088:	60064000 	0x60064000
  41108c:	60064000 	0x60064000
  411090:	60064000 	0x60064000
  411094:	60064000 	0x60064000
  411098:	60064000 	0x60064000
  41109c:	60064000 	0x60064000
  4110a0:	60064000 	0x60064000
  4110a4:	60064000 	0x60064000
  4110a8:	60064000 	0x60064000
  4110ac:	60064000 	0x60064000
  4110b0:	60064000 	0x60064000
  4110b4:	60064000 	0x60064000
  4110b8:	60064000 	0x60064000
  4110bc:	60064000 	0x60064000
  4110c0:	60064000 	0x60064000
  4110c4:	60064000 	0x60064000
  4110c8:	60064000 	0x60064000
  4110cc:	60064000 	0x60064000
  4110d0:	60064000 	0x60064000
  4110d4:	60064000 	0x60064000
  4110d8:	60064000 	0x60064000
  4110dc:	60064000 	0x60064000
  4110e0:	60064000 	0x60064000
  4110e4:	60064000 	0x60064000
  4110e8:	60064000 	0x60064000
  4110ec:	60064000 	0x60064000
  4110f0:	60064000 	0x60064000
  4110f4:	60064000 	0x60064000
  4110f8:	60064000 	0x60064000
  4110fc:	60064000 	0x60064000
  411100:	60064000 	0x60064000
  411104:	60064000 	0x60064000
  411108:	60064000 	0x60064000
  41110c:	60064000 	0x60064000
  411110:	60064000 	0x60064000
  411114:	60064000 	0x60064000
  411118:	60064000 	0x60064000
  41111c:	60064000 	0x60064000
  411120:	60064000 	0x60064000
  411124:	60064000 	0x60064000
  411128:	60064000 	0x60064000
  41112c:	60064000 	0x60064000
  411130:	60064000 	0x60064000
  411134:	60064000 	0x60064000
  411138:	60064000 	0x60064000
  41113c:	60064000 	0x60064000
  411140:	60064000 	0x60064000
  411144:	60064000 	0x60064000
  411148:	60064000 	0x60064000
  41114c:	60064000 	0x60064000
  411150:	60064000 	0x60064000
  411154:	60064000 	0x60064000
  411158:	60064000 	0x60064000
  41115c:	60064000 	0x60064000
  411160:	60064000 	0x60064000
  411164:	60064000 	0x60064000
  411168:	60064000 	0x60064000
  41116c:	60064000 	0x60064000
  411170:	60064000 	0x60064000
  411174:	68034000 	0x68034000
  411178:	60064000 	0x60064000
  41117c:	60064000 	0x60064000
  411180:	60064000 	0x60064000
  411184:	60064000 	0x60064000
  411188:	60064000 	0x60064000
  41118c:	60064000 	0x60064000
  411190:	60064000 	0x60064000
  411194:	60064000 	0x60064000
  411198:	60064000 	0x60064000
  41119c:	60064000 	0x60064000
  4111a0:	ec034000 	swc3	$3,16384(zero)
  4111a4:	60064000 	0x60064000
  4111a8:	60064000 	0x60064000
  4111ac:	60064000 	0x60064000
  4111b0:	60064000 	0x60064000
  4111b4:	60064000 	0x60064000
  4111b8:	60044000 	0x60044000
  4111bc:	60064000 	0x60064000
  4111c0:	60064000 	0x60064000
  4111c4:	48054000 	mfc2	a1,$8
  4111c8:	60064000 	0x60064000
  4111cc:	60064000 	0x60064000
  4111d0:	60064000 	0x60064000
  4111d4:	60064000 	0x60064000
  4111d8:	60064000 	0x60064000
  4111dc:	60064000 	0x60064000
  4111e0:	60064000 	0x60064000
  4111e4:	60064000 	0x60064000
  4111e8:	60064000 	0x60064000
  4111ec:	f4024000 	sdc1	$f2,16384(zero)
  4111f0:	c0054000 	ll	a1,16384(zero)
  4111f4:	68034000 	0x68034000
  4111f8:	60064000 	0x60064000
  4111fc:	60064000 	0x60064000
  411200:	60064000 	0x60064000
  411204:	60064000 	0x60064000
  411208:	60064000 	0x60064000
  41120c:	60064000 	0x60064000
  411210:	60064000 	0x60064000
  411214:	60064000 	0x60064000
  411218:	60064000 	0x60064000
  41121c:	60064000 	0x60064000
  411220:	ec034000 	swc3	$3,16384(zero)
  411224:	60064000 	0x60064000
  411228:	60064000 	0x60064000
  41122c:	60064000 	0x60064000
  411230:	0c064000 	jal	190000 <__tlb_stride_length+0x18ffff>
  411234:	60064000 	0x60064000
  411238:	60044000 	0x60044000
  41123c:	60064000 	0x60064000
  411240:	60064000 	0x60064000
  411244:	d4044000 	ldc1	$f4,16384(zero)
	...
  411254:	696e6170 	0x696e6170
  411258:	74612063 	jalx	184818c <_end+0x1422378>
  41125c:	3a732520 	xori	s3,s3,0x2520
  411260:	203a6425 	addi	k0,at,25637
  411264:	00000000 	nop
  411268:	0000000a 	movz	zero,zero,zero
	...
  411274:	43434700 	c0	0x1434700
  411278:	4728203a 	bz.h	$w8,419364 <opentab+0x1d3c>
  41127c:	2029554e 	addi	t1,at,21838
  411280:	2e302e34 	sltiu	s0,s1,11828
  411284:	44282030 	0x44282030
  411288:	20584e45 	addi	t8,v0,20037
  41128c:	4b444c45 	c2	0x1444c45
  411290:	312e3420 	andi	t6,t1,0x3420
  411294:	302e3420 	andi	t6,at,0x3420
  411298:	0029302e 	0x29302e
  41129c:	43434700 	c0	0x1434700
  4112a0:	4728203a 	bz.h	$w8,41938c <opentab+0x1d64>
  4112a4:	2029554e 	addi	t1,at,21838
  4112a8:	2e302e34 	sltiu	s0,s1,11828
  4112ac:	44282030 	0x44282030
  4112b0:	20584e45 	addi	t8,v0,20037
  4112b4:	4b444c45 	c2	0x1444c45
  4112b8:	312e3420 	andi	t6,t1,0x3420
  4112bc:	302e3420 	andi	t6,at,0x3420
  4112c0:	0029302e 	0x29302e
  4112c4:	43434700 	c0	0x1434700
  4112c8:	4728203a 	bz.h	$w8,4193b4 <opentab+0x1d8c>
  4112cc:	2029554e 	addi	t1,at,21838
  4112d0:	2e302e34 	sltiu	s0,s1,11828
  4112d4:	44282030 	0x44282030
  4112d8:	20584e45 	addi	t8,v0,20037
  4112dc:	4b444c45 	c2	0x1444c45
  4112e0:	312e3420 	andi	t6,t1,0x3420
  4112e4:	302e3420 	andi	t6,at,0x3420
  4112e8:	0029302e 	0x29302e
  4112ec:	43434700 	c0	0x1434700
  4112f0:	4728203a 	bz.h	$w8,4193dc <opentab+0x1db4>
  4112f4:	2029554e 	addi	t1,at,21838
  4112f8:	2e302e34 	sltiu	s0,s1,11828
  4112fc:	44282030 	0x44282030
  411300:	20584e45 	addi	t8,v0,20037
  411304:	4b444c45 	c2	0x1444c45
  411308:	312e3420 	andi	t6,t1,0x3420
  41130c:	302e3420 	andi	t6,at,0x3420
  411310:	0029302e 	0x29302e
  411314:	b0004000 	0xb0004000
  411318:	00000180 	sll	zero,zero,0x6
  41131c:	fcffffff 	sdc3	$31,-1(a3)
	...
  411328:	18000000 	blez	zero,41132c <aoutcode+0xe08>
  41132c:	1d000000 	bgtz	t0,411330 <aoutcode+0xe0c>
  411330:	1f000000 	bgtz	t8,411334 <aoutcode+0xe10>
  411334:	e0004000 	sc	zero,16384(zero)
	...
  41134c:	1d000000 	bgtz	t0,411350 <aoutcode+0xe2c>
  411350:	1f000000 	bgtz	t8,411354 <aoutcode+0xe30>
  411354:	f4004000 	sdc1	$f0,16384(zero)
	...
  41136c:	1d000000 	bgtz	t0,411370 <aoutcode+0xe4c>
  411370:	1f000000 	bgtz	t8,411374 <aoutcode+0xe50>
  411374:	08014000 	j	50000 <__tlb_stride_length+0x4ffff>
  411378:	00000180 	sll	zero,zero,0x6
  41137c:	fcffffff 	sdc3	$31,-1(a3)
	...
  411388:	18000000 	blez	zero,41138c <aoutcode+0xe68>
  41138c:	1d000000 	bgtz	t0,411390 <aoutcode+0xe6c>
  411390:	1f000000 	bgtz	t8,411394 <aoutcode+0xe70>
  411394:	50014000 	beql	zero,at,421398 <__bss_start+0x3c5c>
  411398:	00001f80 	sll	v1,zero,0x1e
  41139c:	fcffffff 	sdc3	$31,-1(a3)
	...
  4113a8:	88000000 	lwl	zero,0(zero)
  4113ac:	1d000000 	bgtz	t0,4113b0 <aoutcode+0xe8c>
  4113b0:	1f000000 	bgtz	t8,4113b4 <aoutcode+0xe90>
  4113b4:	bc064000 	cache	0x6,16384(zero)
	...
  4113cc:	1d000000 	bgtz	t0,4113d0 <aoutcode+0xeac>
  4113d0:	1f000000 	bgtz	t8,4113d4 <aoutcode+0xeb0>
  4113d4:	3c074000 	lui	a3,0x4000
	...
  4113ec:	1d000000 	bgtz	t0,4113f0 <aoutcode+0xecc>
  4113f0:	1f000000 	bgtz	t8,4113f4 <aoutcode+0xed0>
  4113f4:	44084000 	mfc1	t0,$f8
	...
  41140c:	1d000000 	bgtz	t0,411410 <aoutcode+0xeec>
  411410:	1f000000 	bgtz	t8,411414 <aoutcode+0xef0>
  411414:	d0094000 	0xd0094000
  411418:	00000780 	sll	zero,zero,0x1e
  41141c:	fcffffff 	sdc3	$31,-1(a3)
	...
  411428:	20000000 	addi	zero,zero,0
  41142c:	1d000000 	bgtz	t0,411430 <aoutcode+0xf0c>
  411430:	1f000000 	bgtz	t8,411434 <aoutcode+0xf10>
  411434:	640a4000 	0x640a4000
  411438:	00000080 	sll	zero,zero,0x2
  41143c:	f8ffffff 	sdc2	$31,-1(a3)
	...
  411448:	20000000 	addi	zero,zero,0
  41144c:	1d000000 	bgtz	t0,411450 <aoutcode+0xf2c>
  411450:	1f000000 	bgtz	t8,411454 <aoutcode+0xf30>
  411454:	a00a4000 	sb	t2,16384(zero)
  411458:	00000180 	sll	zero,zero,0x6
  41145c:	fcffffff 	sdc3	$31,-1(a3)
	...
  411468:	20000000 	addi	zero,zero,0
  41146c:	1d000000 	bgtz	t0,411470 <aoutcode+0xf4c>
  411470:	1f000000 	bgtz	t8,411474 <aoutcode+0xf50>
  411474:	79732e00 	ori.b	$w24,$w5,0x73
  411478:	6261746d 	0x6261746d
  41147c:	74732e00 	jalx	1ccb800 <_end+0x18a59ec>
  411480:	62617472 	0x62617472
  411484:	68732e00 	0x68732e00
  411488:	74727473 	jalx	1c9d1cc <_end+0x18773b8>
  41148c:	2e006261 	sltiu	zero,s0,25185
  411490:	69676572 	0x69676572
  411494:	006f666e 	0x6f666e
  411498:	7865742e 	0x7865742e
  41149c:	722e0074 	0x722e0074
  4114a0:	7461646f 	jalx	18591bc <_end+0x14333a8>
  4114a4:	642e0061 	0x642e0061
  4114a8:	00617461 	0x617461
  4114ac:	7362732e 	0x7362732e
  4114b0:	622e0073 	0x622e0073
  4114b4:	2e007373 	sltiu	zero,s0,29555
  4114b8:	6d6d6f63 	0x6d6d6f63
  4114bc:	00746e65 	0x746e65
  4114c0:	7264702e 	0x7264702e
  4114c4:	646d2e00 	0x646d2e00
  4114c8:	67756265 	0x67756265
  4114cc:	6962612e 	0x6962612e
  4114d0:	00003233 	tltu	zero,zero,0xc8
	...
  4114fc:	1b000000 	blez	t8,411500 <aoutcode+0xfdc>
  411500:	06000070 	bltz	s0,4116c4 <aoutcode+0x11a0>
  411504:	02000000 	0x2000000
  411508:	94004000 	lhu	zero,16384(zero)
  41150c:	94000000 	lhu	zero,0(zero)
  411510:	18000000 	blez	zero,411514 <aoutcode+0xff0>
  411514:	00000000 	nop
  411518:	00000000 	nop
  41151c:	04000000 	bltz	zero,411520 <aoutcode+0xffc>
  411520:	18000000 	blez	zero,411524 <aoutcode+0x1000>
  411524:	24000000 	li	zero,0
  411528:	01000000 	0x1000000
  41152c:	06000000 	bltz	s0,411530 <aoutcode+0x100c>
  411530:	b0004000 	0xb0004000
  411534:	b0000000 	0xb0000000
  411538:	600a0000 	0x600a0000
	...
  411544:	10000000 	b	411548 <aoutcode+0x1024>
  411548:	00000000 	nop
  41154c:	2a000000 	slti	zero,s0,0
  411550:	01000000 	0x1000000
  411554:	02000000 	0x2000000
  411558:	100b4000 	beq	zero,t3,42155c <__bss_start+0x3e20>
  41155c:	100b0000 	beq	zero,t3,411560 <aoutcode+0x103c>
  411560:	36020000 	ori	v0,s0,0x0
	...
  41156c:	10000000 	b	411570 <aoutcode+0x104c>
  411570:	00000000 	nop
  411574:	32000000 	andi	zero,s0,0x0
  411578:	01000000 	0x1000000
  41157c:	03000000 	0x3000000
  411580:	00000010 	mfhi	zero
  411584:	500d0000 	beql	zero,t5,411588 <aoutcode+0x1064>
  411588:	00000000 	nop
	...
  411594:	10000000 	b	411598 <aoutcode+0x1074>
  411598:	00000000 	nop
  41159c:	38000000 	xori	zero,zero,0x0
  4115a0:	08000000 	j	0 <__tlb_stride_length-0x1>
  4115a4:	03000010 	0x3000010
  4115a8:	00000010 	mfhi	zero
  4115ac:	500d0000 	beql	zero,t5,4115b0 <aoutcode+0x108c>
  4115b0:	00000000 	nop
	...
  4115bc:	01000000 	0x1000000
  4115c0:	00000000 	nop
  4115c4:	3e000000 	0x3e000000
  4115c8:	08000000 	j	0 <__tlb_stride_length-0x1>
  4115cc:	03000000 	0x3000000
  4115d0:	00000010 	mfhi	zero
  4115d4:	500d0000 	beql	zero,t5,4115d8 <aoutcode+0x10b4>
  4115d8:	00000000 	nop
	...
  4115e4:	10000000 	b	4115e8 <aoutcode+0x10c4>
  4115e8:	00000000 	nop
  4115ec:	43000000 	c0	0x1000000
  4115f0:	01000000 	0x1000000
	...
  4115fc:	500d0000 	beql	zero,t5,411600 <aoutcode+0x10dc>
  411600:	a0000000 	sb	zero,0(zero)
	...
  41160c:	01000000 	0x1000000
  411610:	00000000 	nop
  411614:	4c000000 	lwxc1	$f0,zero(zero)
  411618:	01000000 	0x1000000
	...
  411624:	f00d0000 	0xf00d0000
  411628:	60010000 	0x60010000
	...
  411634:	04000000 	bltz	zero,411638 <aoutcode+0x1114>
  411638:	00000000 	nop
  41163c:	51000000 	beqzl	t0,411640 <aoutcode+0x111c>
  411640:	01000000 	0x1000000
	...
  41164c:	500f0000 	beql	zero,t7,411650 <aoutcode+0x112c>
  411650:	00000000 	nop
	...
  41165c:	01000000 	0x1000000
  411660:	00000000 	nop
  411664:	11000000 	beqz	t0,411668 <aoutcode+0x1144>
  411668:	03000000 	0x3000000
	...
  411674:	500f0000 	beql	zero,t7,411678 <aoutcode+0x1154>
  411678:	5f000000 	bgtzl	t8,41167c <aoutcode+0x1158>
  41167c:	00000000 	nop
  411680:	00000000 	nop
  411684:	01000000 	0x1000000
  411688:	00000000 	nop
  41168c:	01000000 	0x1000000
  411690:	02000000 	0x2000000
	...
  41169c:	b8110000 	swr	s1,0(zero)
  4116a0:	40020000 	mfc0	v0,c0_index
  4116a4:	0c000000 	jal	0 <__tlb_stride_length-0x1>
  4116a8:	13000000 	beqz	t8,4116ac <aoutcode+0x1188>
  4116ac:	04000000 	bltz	zero,4116b0 <aoutcode+0x118c>
  4116b0:	10000000 	b	4116b4 <aoutcode+0x1190>
  4116b4:	09000000 	j	4000000 <_end+0x3bda1ec>
  4116b8:	03000000 	0x3000000
	...
  4116c4:	f8130000 	sdc2	$19,0(zero)
  4116c8:	ba000000 	swr	zero,0(s0)
	...
  4116d4:	01000000 	0x1000000
	...
  4116f0:	94004000 	lhu	zero,16384(zero)
  4116f4:	00000000 	nop
  4116f8:	01000003 	0x1000003
  4116fc:	00000000 	nop
  411700:	b0004000 	0xb0004000
  411704:	00000000 	nop
  411708:	02000003 	0x2000003
  41170c:	00000000 	nop
  411710:	100b4000 	beq	zero,t3,421714 <__bss_start+0x3fd8>
  411714:	00000000 	nop
  411718:	03000003 	0x3000003
  41171c:	00000000 	nop
  411720:	00000010 	mfhi	zero
  411724:	00000000 	nop
  411728:	04000003 	bltz	zero,411738 <aoutcode+0x1214>
  41172c:	00000000 	nop
  411730:	00000010 	mfhi	zero
  411734:	00000000 	nop
  411738:	05000003 	bltz	t0,411748 <aoutcode+0x1224>
  41173c:	00000000 	nop
  411740:	00000010 	mfhi	zero
  411744:	00000000 	nop
  411748:	06000003 	bltz	s0,411758 <aoutcode+0x1234>
  41174c:	00000000 	nop
	...
  411758:	07000003 	bltz	t8,411768 <aoutcode+0x1244>
  41175c:	00000000 	nop
	...
  411768:	08000003 	j	c <__tlb_stride_length+0xb>
  41176c:	00000000 	nop
	...
  411778:	09000003 	j	400000c <_end+0x3bda1f8>
  41177c:	00000000 	nop
	...
  411788:	0a000003 	j	800000c <_end+0x7bda1f8>
  41178c:	00000000 	nop
	...
  411798:	0b000003 	j	c00000c <_end+0xbbda1f8>
  41179c:	00000000 	nop
	...
  4117a8:	0c000003 	jal	c <__tlb_stride_length+0xb>
  4117ac:	01000000 	0x1000000
	...
  4117b8:	f1ff0004 	0xf1ff0004
  4117bc:	06000000 	bltz	s0,4117c0 <aoutcode+0x129c>
  4117c0:	00000000 	nop
  4117c4:	00000000 	nop
  4117c8:	f1ff0004 	0xf1ff0004
  4117cc:	10000000 	b	4117d0 <aoutcode+0x12ac>
  4117d0:	00000000 	nop
  4117d4:	00000000 	nop
  4117d8:	f1ff0004 	0xf1ff0004
  4117dc:	18000000 	blez	zero,4117e0 <aoutcode+0x12bc>
  4117e0:	200b4000 	addi	t3,zero,16384
  4117e4:	19000000 	blez	t0,4117e8 <aoutcode+0x12c4>
  4117e8:	03000001 	movf	zero,t8,$fcc0
  4117ec:	24000000 	li	zero,0
	...
  4117f8:	f1ff0004 	0xf1ff0004
  4117fc:	2d000000 	sltiu	zero,t0,0
  411800:	d0094000 	0xd0094000
  411804:	94000000 	lhu	zero,0(zero)
  411808:	02000002 	0x2000002
  41180c:	36000000 	ori	zero,s0,0x0
  411810:	50014000 	beql	zero,at,421814 <__bss_start+0x40d8>
  411814:	6c050000 	0x6c050000
  411818:	02000012 	0x2000012
  41181c:	3f000000 	0x3f000000
  411820:	a00a4000 	sb	t2,16384(zero)
  411824:	64000000 	0x64000000
  411828:	02000012 	0x2000012
  41182c:	46000000 	add.s	$f0,$f0,$f0
  411830:	08014000 	j	50000 <__tlb_stride_length+0x4ffff>
  411834:	3c000000 	lui	zero,0x0
  411838:	02000012 	0x2000012
  41183c:	4f000000 	lwxc1	$f0,zero(t8)
  411840:	640a4000 	0x640a4000
  411844:	3c000000 	lui	zero,0x0
  411848:	02000012 	0x2000012
  41184c:	56000000 	bnezl	s0,411850 <aoutcode+0x132c>
  411850:	00000010 	mfhi	zero
  411854:	00000000 	nop
  411858:	04000010 	bltz	zero,41189c <aoutcode+0x1378>
  41185c:	5d000000 	bgtzl	t0,411860 <aoutcode+0x133c>
  411860:	f07f0010 	0xf07f0010
  411864:	00000000 	nop
  411868:	f1ff0010 	0xf1ff0010
  41186c:	61000000 	0x61000000
  411870:	44084000 	mfc1	t0,$f8
  411874:	80010000 	lb	at,0(zero)
  411878:	02000012 	0x2000012
  41187c:	6a000000 	0x6a000000
  411880:	e0004000 	sc	zero,16384(zero)
  411884:	14000000 	bnez	zero,411888 <aoutcode+0x1364>
  411888:	02000012 	0x2000012
  41188c:	75000000 	jalx	4000000 <_end+0x3bda1ec>
  411890:	b0004000 	0xb0004000
  411894:	00000000 	nop
  411898:	02000010 	0x2000010
  41189c:	7c000000 	ext	zero,zero,0x0,0x1
  4118a0:	3c074000 	lui	a3,0x4000
  4118a4:	08010000 	j	40000 <__tlb_stride_length+0x3ffff>
  4118a8:	02000012 	0x2000012
  4118ac:	88000000 	lwl	zero,0(zero)
  4118b0:	00000010 	mfhi	zero
  4118b4:	00000000 	nop
  4118b8:	f1ff0010 	0xf1ff0010
  4118bc:	94000000 	lhu	zero,0(zero)
  4118c0:	b0004000 	0xb0004000
  4118c4:	24000000 	li	zero,0
  4118c8:	02000012 	0x2000012
  4118cc:	99000000 	lwr	zero,0(t0)
  4118d0:	bc064000 	cache	0x6,16384(zero)
  4118d4:	80000000 	lb	zero,0(zero)
  4118d8:	02000012 	0x2000012
  4118dc:	a3000000 	sb	zero,0(t8)
  4118e0:	00000010 	mfhi	zero
  4118e4:	00000000 	nop
  4118e8:	f1ff0010 	0xf1ff0010
  4118ec:	aa000000 	swl	zero,0(s0)
  4118f0:	00000010 	mfhi	zero
  4118f4:	00000000 	nop
  4118f8:	f1ff0010 	0xf1ff0010
  4118fc:	af000000 	sw	zero,0(t8)
  411900:	f4004000 	sdc1	$f0,16384(zero)
  411904:	14000000 	bnez	zero,411908 <aoutcode+0x13e4>
  411908:	02000012 	0x2000012
  41190c:	b4000000 	0xb4000000
  411910:	00000010 	mfhi	zero
  411914:	00000000 	nop
  411918:	f1ff0010 	0xf1ff0010
  41191c:	2e6e6900 	sltiu	t6,s3,26880
  411920:	6f630063 	0x6f630063
  411924:	6c6f736e 	0x6c6f736e
  411928:	00632e65 	0x632e65
  41192c:	6e697270 	0x6e697270
  411930:	00632e74 	teq	v1,v1,0xb9
  411934:	46656874 	c1	0x656874
  411938:	6c617461 	0x6c617461
  41193c:	0067734d 	break	0x67,0x1cd
  411940:	6e697270 	0x6e697270
  411944:	632e6674 	0x632e6674
  411948:	6f796d00 	0x6f796d00
  41194c:	75707475 	jalx	5c1d1d4 <_end+0x57f73c0>
  411950:	706c0074 	0x706c0074
  411954:	6972505f 	0x6972505f
  411958:	5f00746e 	bgtzl	t8,42eb14 <_end+0x8d00>
  41195c:	696e6170 	0x696e6170
  411960:	72700063 	0x72700063
  411964:	73746e69 	0x73746e69
  411968:	70007274 	0x70007274
  41196c:	746e6972 	jalx	1b9a5c8 <_end+0x17747b4>
  411970:	665f0066 	0x665f0066
  411974:	61746164 	0x61746164
  411978:	70675f00 	0x70675f00
  41197c:	69725000 	0x69725000
  411980:	754e746e 	jalx	539d1b8 <_end+0x4f773a4>
  411984:	7270006d 	0x7270006d
  411988:	63746e69 	0x63746e69
  41198c:	63726168 	0x63726168
  411990:	74665f00 	jalx	1997c00 <_end+0x1571dec>
  411994:	00747865 	0x747865
  411998:	6e697250 	0x6e697250
  41199c:	72745374 	0x72745374
  4119a0:	00676e69 	0x676e69
  4119a4:	73625f5f 	udi15	k1,v0,t3,0x1d
  4119a8:	74735f73 	jalx	1cd7dcc <_end+0x18b1fb8>
  4119ac:	00747261 	0x747261
  4119b0:	6e69616d 	0x6e69616d
  4119b4:	69725000 	0x69725000
  4119b8:	6843746e 	0x6843746e
  4119bc:	5f007261 	bgtzl	t8,42e344 <_end+0x8530>
  4119c0:	74616465 	jalx	1859194 <_end+0x1433380>
  4119c4:	655f0061 	0x655f0061
  4119c8:	6800646e 	0x6800646e
  4119cc:	00746c61 	0x746c61
  4119d0:	7362665f 	udi15	k1,v0,t4,0x19
  4119d4:	00000073 	tltu	zero,zero,0x1

004119d8 <binary_user_A_size>:
  4119d8:	000014b2 	tlt	zero,zero,0x52

004119dc <binary_user_A_start>:
  4119dc:	464c457f 	c1	0x4c457f
  4119e0:	00010201 	0x10201
	...
  4119ec:	08000200 	j	800 <__tlb_stride_length+0x7ff>
  4119f0:	01000000 	0x1000000
  4119f4:	b0004000 	0xb0004000
  4119f8:	34000000 	li	zero,0x0
  4119fc:	b00f0000 	0xb00f0000
  411a00:	01100050 	0x1100050
  411a04:	20003400 	addi	zero,zero,13312
  411a08:	28000300 	slti	zero,zero,768
  411a0c:	0a000d00 	j	8003400 <_end+0x7bdd5ec>
  411a10:	00000070 	tge	zero,zero,0x1
  411a14:	94000000 	lhu	zero,0(zero)
  411a18:	94004000 	lhu	zero,16384(zero)
  411a1c:	94004000 	lhu	zero,16384(zero)
  411a20:	18000000 	blez	zero,411a24 <binary_user_A_start+0x48>
  411a24:	18000000 	blez	zero,411a28 <binary_user_A_start+0x4c>
  411a28:	04000000 	bltz	zero,411a2c <binary_user_A_start+0x50>
  411a2c:	04000000 	bltz	zero,411a30 <binary_user_A_start+0x54>
  411a30:	01000000 	0x1000000
  411a34:	94000000 	lhu	zero,0(zero)
  411a38:	94004000 	lhu	zero,16384(zero)
  411a3c:	94004000 	lhu	zero,16384(zero)
  411a40:	b20c0000 	0xb20c0000
  411a44:	b20c0000 	0xb20c0000
  411a48:	05000000 	bltz	t0,411a4c <binary_user_A_start+0x70>
  411a4c:	10000000 	b	411a50 <binary_user_A_start+0x74>
  411a50:	01000000 	0x1000000
  411a54:	500d0000 	beql	zero,t5,411a58 <binary_user_A_start+0x7c>
  411a58:	00000010 	mfhi	zero
  411a5c:	00000010 	mfhi	zero
	...
  411a68:	06000000 	bltz	s0,411a6c <binary_user_A_start+0x90>
  411a6c:	10000000 	b	411a70 <binary_user_A_start+0x94>
  411a70:	300001a0 	andi	zero,zero,0x1a0
	...
  411a84:	f07f0010 	0xf07f0010
  411a88:	00000000 	nop
  411a8c:	e8ffbd27 	swc2	$31,-17113(a3)
  411a90:	1400bfaf 	bnez	zero,401950 <write+0x74>
  411a94:	1000b0af 	b	3fdd54 <__tlb_stride_length+0x3fdd53>
  411a98:	4000103c 	0x4000103c
  411a9c:	100b0426 	beq	zero,t3,412b38 <binary_user_A_start+0x115c>
  411aa0:	9902100c 	lwr	v0,4108(t0)
  411aa4:	01000524 	0x1000524
  411aa8:	fdff0010 	sdc3	$31,16(t7)
  411aac:	100b0426 	beq	zero,t3,412b48 <binary_user_A_start+0x116c>
  411ab0:	00000000 	nop
	...
  411abc:	ff008430 	sdc3	$0,-31696(t8)
  411ac0:	0090023c 	0x90023c
  411ac4:	000044a0 	0x44a0
  411ac8:	0800e003 	j	3800c <__tlb_stride_length+0x3800b>
  411acc:	00000000 	nop
  411ad0:	0090023c 	0x90023c
  411ad4:	10004234 	b	4223a8 <__bss_start+0x4c6c>
  411ad8:	000040a0 	0x40a0
  411adc:	0800e003 	j	3800c <__tlb_stride_length+0x3800b>
  411ae0:	00000000 	nop
  411ae4:	e8ffbd27 	swc2	$31,-17113(a3)
  411ae8:	1400bfaf 	bnez	zero,4019a8 <seek+0x10>
  411aec:	1000b0af 	b	3fddac <__tlb_stride_length+0x3fddab>
  411af0:	21808000 	addi	zero,t4,-32768
  411af4:	00008480 	sll	s0,zero,0x12
  411af8:	06008010 	bltz	s0,3f1b3c <__tlb_stride_length+0x3f1b3b>
  411afc:	1400bf8f 	bnez	zero,40193c <write+0x60>
  411b00:	3800100c 	xori	zero,zero,0x100c
  411b04:	01001026 	xor	v0,t0,zero
  411b08:	00000482 	srl	zero,zero,0x12
  411b0c:	fcff8014 	sdc3	$31,-32748(a3)
  411b10:	1400bf8f 	bnez	zero,401950 <write+0x74>
  411b14:	1000b08f 	b	3fdd54 <__tlb_stride_length+0x3fdd53>
  411b18:	0800e003 	j	3800c <__tlb_stride_length+0x3800b>
  411b1c:	1800bd27 	blez	zero,400fbc <syscall_getenvid+0x1c>
  411b20:	00000000 	nop
	...
  411b2c:	78ffbd27 	st.d	$w20,2040(s7)
  411b30:	8400bfaf 	lh	zero,-16465(zero)
  411b34:	8000b4af 	lb	zero,-19281(zero)
  411b38:	7c00b3af 	lwe	zero,-153(zero)
  411b3c:	7800b2af 	0x7800b2af
  411b40:	7400b1af 	jalx	2c6bc <__tlb_stride_length+0x2c6bb>
  411b44:	7000b0af 	0x7000b0af
  411b48:	21988000 	addi	t8,t4,-32768
  411b4c:	21a0a000 	addi	zero,t5,-24576
  411b50:	2128c000 	addi	t0,t1,-16384
  411b54:	2190e000 	addi	s0,t4,-8192
  411b58:	0000a380 	sll	s4,zero,0xe
  411b5c:	0c006010 	jal	18040 <__tlb_stride_length+0x1803f>
  411b60:	2180a000 	addi	zero,t4,-24576
  411b64:	48010010 	0x48010010
  411b68:	25000224 	addiu	zero,t0,548
  411b6c:	2180a000 	addi	zero,t4,-24576
  411b70:	01001026 	xor	v0,t0,zero
  411b74:	00000282 	srl	zero,zero,0xa
  411b78:	06004010 	bltz	s0,421bbc <__bss_start+0x4480>
  411b7c:	23300502 	addi	s0,t9,1282
  411b80:	05004310 	bltz	t0,4227c4 <__bss_start+0x5088>
  411b84:	5100c22c 	beqzl	t0,402438 <pipe+0x16c>
  411b88:	faff0010 	sdc2	$31,16(s7)
  411b8c:	01001026 	xor	v0,t0,zero
  411b90:	23300502 	addi	s0,t9,1282
  411b94:	5100c22c 	beqzl	t0,402448 <pipeisclosed+0x4>
  411b98:	07004014 	bltz	t8,421bec <__bss_start+0x44b0>
  411b9c:	21208002 	addi	zero,t1,-32766
  411ba0:	4000053c 	0x4000053c
  411ba4:	200ba524 	addi	t3,zero,-23260
  411ba8:	09f86002 	j	7e18008 <_end+0x79f21f4>
  411bac:	18000624 	blez	zero,413440 <binary_user_B_start+0x5ac>
  411bb0:	ffff0010 	sdc3	$31,16(ra)
  411bb4:	00000000 	nop
  411bb8:	09f86002 	j	7e18008 <_end+0x79f21f4>
  411bbc:	21208002 	addi	zero,t1,-32766
  411bc0:	00000282 	srl	zero,zero,0xa
  411bc4:	23014010 	addi	at,t8,16400
  411bc8:	6c000224 	0x6c000224
  411bcc:	01000382 	0x1000382
  411bd0:	03006210 	0x3006210
  411bd4:	01001126 	0x1001126
  411bd8:	03000010 	0x3000010
  411bdc:	21200000 	addi	zero,t1,0
  411be0:	02001126 	0x2001126
  411be4:	01000424 	0x1000424
  411be8:	00002382 	srl	a0,zero,0xe
  411bec:	2d000224 	sltiu	zero,t0,548
  411bf0:	04006214 	bltz	zero,42a444 <_end+0x4630>
  411bf4:	21380000 	addi	t8,t1,0
  411bf8:	01003126 	0x1003126
  411bfc:	01000724 	0x1000724
  411c00:	00002382 	srl	a0,zero,0xe
  411c04:	30000224 	andi	zero,zero,0x224
  411c08:	03006214 	0x3006214
  411c0c:	20000924 	addi	zero,zero,2340
  411c10:	01003126 	0x1003126
  411c14:	30000924 	andi	zero,zero,0x924
  411c18:	00002682 	srl	a0,zero,0x1a
  411c1c:	d0ffc224 	0xd0ffc224
  411c20:	ff004230 	sdc3	$0,16944(t8)
  411c24:	0a00422c 	j	80108b0 <_end+0x7beaa9c>
  411c28:	0d004010 	jal	4010040 <_end+0x3bea22c>
  411c2c:	21400000 	addi	zero,t2,0
  411c30:	40100800 	mfc0	s0,c0_random
  411c34:	c0180800 	ll	t8,2048(zero)
  411c38:	21104300 	addi	s0,t0,17152
  411c3c:	21104600 	addi	s0,t0,17920
  411c40:	d0ff4824 	0xd0ff4824
  411c44:	01003126 	0x1003126
  411c48:	00002682 	srl	a0,zero,0x1a
  411c4c:	d0ffc224 	0xd0ffc224
  411c50:	ff004230 	sdc3	$0,16944(t8)
  411c54:	0a00422c 	j	80108b0 <_end+0x7beaa9c>
  411c58:	f6ff4014 	sdc1	$f31,16404(s7)
  411c5c:	40100800 	mfc0	s0,c0_random
  411c60:	00002382 	srl	a0,zero,0xe
  411c64:	2e000224 	sltiu	zero,s0,548
  411c68:	11006214 	beqz	t0,42a4bc <_end+0x46a8>
  411c6c:	7900622c 	0x7900622c
  411c70:	01003126 	0x1003126
  411c74:	00002292 	0x2292
  411c78:	d0ff4224 	0xd0ff4224
  411c7c:	ff004230 	sdc3	$0,16944(t8)
  411c80:	0a00422c 	j	80108b0 <_end+0x7beaa9c>
  411c84:	08004010 	j	10040 <__tlb_stride_length+0x1003f>
  411c88:	00000000 	nop
  411c8c:	01003126 	0x1003126
  411c90:	00002292 	0x2292
  411c94:	d0ff4224 	0xd0ff4224
  411c98:	ff004230 	sdc3	$0,16944(t8)
  411c9c:	0a00422c 	j	80108b0 <_end+0x7beaa9c>
  411ca0:	faff4014 	sdc2	$31,16404(s7)
  411ca4:	00000000 	nop
  411ca8:	00002382 	srl	a0,zero,0xe
  411cac:	7900622c 	0x7900622c
  411cb0:	e2004010 	sc	zero,16400(s0)
  411cb4:	80100300 	lb	s0,768(zero)
  411cb8:	4000033c 	0x4000033c
  411cbc:	400b6324 	0x400b6324
  411cc0:	21104300 	addi	s0,t0,17152
  411cc4:	0000428c 	syscall	0x10a
  411cc8:	08004000 	j	10000 <__tlb_stride_length+0xffff>
  411ccc:	00000000 	nop
  411cd0:	04008010 	bltz	zero,3f1d14 <__tlb_stride_length+0x3f1d13>
  411cd4:	00000000 	nop
  411cd8:	0000458e 	0x458e
  411cdc:	03000010 	0x3000010
  411ce0:	04005226 	bltz	zero,42657c <_end+0x768>
  411ce4:	0000458e 	0x458e
  411ce8:	04005226 	bltz	zero,426584 <_end+0x770>
  411cec:	1000a8af 	b	3fbfac <__tlb_stride_length+0x3fbfab>
  411cf0:	1400a7af 	bnez	zero,3fbbb0 <__tlb_stride_length+0x3fbbaf>
  411cf4:	1800a9af 	blez	zero,3fc3b4 <__tlb_stride_length+0x3fc3b3>
  411cf8:	1c00a0af 	bgtz	zero,3f9fb8 <__tlb_stride_length+0x3f9fb7>
  411cfc:	2000a427 	addi	zero,zero,-23513
  411d00:	02000624 	0x2000624
  411d04:	1102100c 	beq	t0,v0,415d38 <binary_user_idle_start+0x19f0>
  411d08:	21380000 	addi	t8,t1,0
  411d0c:	21304000 	addi	s0,t1,16384
  411d10:	5100422c 	beqzl	t0,4225c4 <__bss_start+0x4e88>
  411d14:	07004014 	bltz	t8,421d68 <__bss_start+0x462c>
  411d18:	21208002 	addi	zero,t1,-32766
  411d1c:	4000053c 	0x4000053c
  411d20:	200ba524 	addi	t3,zero,-23260
  411d24:	09f86002 	j	7e18008 <_end+0x79f21f4>
  411d28:	18000624 	blez	zero,4135bc <binary_user_B_start+0x728>
  411d2c:	ffff0010 	sdc3	$31,16(ra)
  411d30:	00000000 	nop
  411d34:	09f86002 	j	7e18008 <_end+0x79f21f4>
  411d38:	2000a527 	addi	zero,zero,-23257
  411d3c:	86ff0010 	lh	ra,16(s7)
  411d40:	01002526 	0x1002526
  411d44:	04008010 	bltz	zero,3f1d88 <__tlb_stride_length+0x3f1d87>
  411d48:	00000000 	nop
  411d4c:	0000458e 	0x458e
  411d50:	03000010 	0x3000010
  411d54:	04005226 	bltz	zero,4265f0 <_end+0x7dc>
  411d58:	0000458e 	0x458e
  411d5c:	04005226 	bltz	zero,4265f8 <_end+0x7e4>
  411d60:	0300a104 	0x300a104
  411d64:	21100000 	addi	s0,t0,0
  411d68:	23280500 	addi	t0,t9,1280
  411d6c:	01000224 	0x1000224
  411d70:	1000a8af 	b	3fc030 <__tlb_stride_length+0x3fc02f>
  411d74:	1400a7af 	bnez	zero,3fbc34 <__tlb_stride_length+0x3fbc33>
  411d78:	1800a9af 	blez	zero,3fc438 <__tlb_stride_length+0x3fc437>
  411d7c:	1c00a0af 	bgtz	zero,3fa03c <__tlb_stride_length+0x3fa03b>
  411d80:	2000a427 	addi	zero,zero,-23513
  411d84:	0a000624 	j	8001890 <_end+0x7bdba7c>
  411d88:	1102100c 	beq	t0,v0,415dbc <binary_user_idle_start+0x1a74>
  411d8c:	21384000 	addi	t8,t1,16384
  411d90:	21304000 	addi	s0,t1,16384
  411d94:	5100422c 	beqzl	t0,422648 <__bss_start+0x4f0c>
  411d98:	07004014 	bltz	t8,421dec <__bss_start+0x46b0>
  411d9c:	21208002 	addi	zero,t1,-32766
  411da0:	4000053c 	0x4000053c
  411da4:	200ba524 	addi	t3,zero,-23260
  411da8:	09f86002 	j	7e18008 <_end+0x79f21f4>
  411dac:	18000624 	blez	zero,413640 <binary_user_B_start+0x7ac>
  411db0:	ffff0010 	sdc3	$31,16(ra)
  411db4:	00000000 	nop
  411db8:	09f86002 	j	7e18008 <_end+0x79f21f4>
  411dbc:	2000a527 	addi	zero,zero,-23257
  411dc0:	65ff0010 	0x65ff0010
  411dc4:	01002526 	0x1002526
  411dc8:	04008010 	bltz	zero,3f1e0c <__tlb_stride_length+0x3f1e0b>
  411dcc:	00000000 	nop
  411dd0:	0000458e 	0x458e
  411dd4:	03000010 	0x3000010
  411dd8:	04005226 	bltz	zero,426674 <_end+0x860>
  411ddc:	0000458e 	0x458e
  411de0:	04005226 	bltz	zero,42667c <_end+0x868>
  411de4:	1000a8af 	b	3fc0a4 <__tlb_stride_length+0x3fc0a3>
  411de8:	1400a7af 	bnez	zero,3fbca8 <__tlb_stride_length+0x3fbca7>
  411dec:	1800a9af 	blez	zero,3fc4ac <__tlb_stride_length+0x3fc4ab>
  411df0:	1c00a0af 	bgtz	zero,3fa0b0 <__tlb_stride_length+0x3fa0af>
  411df4:	2000a427 	addi	zero,zero,-23513
  411df8:	08000624 	j	1890 <__tlb_stride_length+0x188f>
  411dfc:	1102100c 	beq	t0,v0,415e30 <binary_user_idle_start+0x1ae8>
  411e00:	21380000 	addi	t8,t1,0
  411e04:	21304000 	addi	s0,t1,16384
  411e08:	5100422c 	beqzl	t0,4226bc <__bss_start+0x4f80>
  411e0c:	07004014 	bltz	t8,421e60 <__bss_start+0x4724>
  411e10:	21208002 	addi	zero,t1,-32766
  411e14:	4000053c 	0x4000053c
  411e18:	200ba524 	addi	t3,zero,-23260
  411e1c:	09f86002 	j	7e18008 <_end+0x79f21f4>
  411e20:	18000624 	blez	zero,4136b4 <binary_user_B_start+0x820>
  411e24:	ffff0010 	sdc3	$31,16(ra)
  411e28:	00000000 	nop
  411e2c:	09f86002 	j	7e18008 <_end+0x79f21f4>
  411e30:	2000a527 	addi	zero,zero,-23257
  411e34:	48ff0010 	mthc2	ra,0x10
  411e38:	01002526 	0x1002526
  411e3c:	04008010 	bltz	zero,3f1e80 <__tlb_stride_length+0x3f1e7f>
  411e40:	00000000 	nop
  411e44:	0000458e 	0x458e
  411e48:	03000010 	0x3000010
  411e4c:	04005226 	bltz	zero,4266e8 <_end+0x8d4>
  411e50:	0000458e 	0x458e
  411e54:	04005226 	bltz	zero,4266f0 <_end+0x8dc>
  411e58:	1000a8af 	b	3fc118 <__tlb_stride_length+0x3fc117>
  411e5c:	1400a7af 	bnez	zero,3fbd1c <__tlb_stride_length+0x3fbd1b>
  411e60:	1800a9af 	blez	zero,3fc520 <__tlb_stride_length+0x3fc51f>
  411e64:	1c00a0af 	bgtz	zero,3fa124 <__tlb_stride_length+0x3fa123>
  411e68:	2000a427 	addi	zero,zero,-23513
  411e6c:	0a000624 	j	8001890 <_end+0x7bdba7c>
  411e70:	1102100c 	beq	t0,v0,415ea4 <binary_user_idle_start+0x1b5c>
  411e74:	21380000 	addi	t8,t1,0
  411e78:	21304000 	addi	s0,t1,16384
  411e7c:	5100422c 	beqzl	t0,422730 <__bss_start+0x4ff4>
  411e80:	07004014 	bltz	t8,421ed4 <__bss_start+0x4798>
  411e84:	21208002 	addi	zero,t1,-32766
  411e88:	4000053c 	0x4000053c
  411e8c:	200ba524 	addi	t3,zero,-23260
  411e90:	09f86002 	j	7e18008 <_end+0x79f21f4>
  411e94:	18000624 	blez	zero,413728 <binary_user_B_start+0x894>
  411e98:	ffff0010 	sdc3	$31,16(ra)
  411e9c:	00000000 	nop
  411ea0:	09f86002 	j	7e18008 <_end+0x79f21f4>
  411ea4:	2000a527 	addi	zero,zero,-23257
  411ea8:	2bff0010 	slti	ra,ra,16
  411eac:	01002526 	0x1002526
  411eb0:	04008010 	bltz	zero,3f1ef4 <__tlb_stride_length+0x3f1ef3>
  411eb4:	00000000 	nop
  411eb8:	0000458e 	0x458e
  411ebc:	03000010 	0x3000010
  411ec0:	04005226 	bltz	zero,42675c <_end+0x948>
  411ec4:	0000458e 	0x458e
  411ec8:	04005226 	bltz	zero,426764 <_end+0x950>
  411ecc:	1000a8af 	b	3fc18c <__tlb_stride_length+0x3fc18b>
  411ed0:	1400a7af 	bnez	zero,3fbd90 <__tlb_stride_length+0x3fbd8f>
  411ed4:	1800a9af 	blez	zero,3fc594 <__tlb_stride_length+0x3fc593>
  411ed8:	1c00a0af 	bgtz	zero,3fa198 <__tlb_stride_length+0x3fa197>
  411edc:	2000a427 	addi	zero,zero,-23513
  411ee0:	10000624 	b	413774 <binary_user_B_start+0x8e0>
  411ee4:	1102100c 	beq	t0,v0,415f18 <binary_user_idle_start+0x1bd0>
  411ee8:	21380000 	addi	t8,t1,0
  411eec:	21304000 	addi	s0,t1,16384
  411ef0:	5100422c 	beqzl	t0,4227a4 <__bss_start+0x5068>
  411ef4:	07004014 	bltz	t8,421f48 <__bss_start+0x480c>
  411ef8:	21208002 	addi	zero,t1,-32766
  411efc:	4000053c 	0x4000053c
  411f00:	200ba524 	addi	t3,zero,-23260
  411f04:	09f86002 	j	7e18008 <_end+0x79f21f4>
  411f08:	18000624 	blez	zero,41379c <binary_user_B_start+0x908>
  411f0c:	ffff0010 	sdc3	$31,16(ra)
  411f10:	00000000 	nop
  411f14:	09f86002 	j	7e18008 <_end+0x79f21f4>
  411f18:	2000a527 	addi	zero,zero,-23257
  411f1c:	0eff0010 	jal	bfc0040 <_end+0xbb9a22c>
  411f20:	01002526 	0x1002526
  411f24:	04008010 	bltz	zero,3f1f68 <__tlb_stride_length+0x3f1f67>
  411f28:	00000000 	nop
  411f2c:	0000458e 	0x458e
  411f30:	03000010 	0x3000010
  411f34:	04005226 	bltz	zero,4267d0 <_end+0x9bc>
  411f38:	0000458e 	0x458e
  411f3c:	04005226 	bltz	zero,4267d8 <_end+0x9c4>
  411f40:	1000a8af 	b	3fc200 <__tlb_stride_length+0x3fc1ff>
  411f44:	1400a7af 	bnez	zero,3fbe04 <__tlb_stride_length+0x3fbe03>
  411f48:	1800a9af 	blez	zero,3fc608 <__tlb_stride_length+0x3fc607>
  411f4c:	01000224 	0x1000224
  411f50:	1c00a2af 	bgtz	zero,3faa10 <__tlb_stride_length+0x3faa0f>
  411f54:	2000a427 	addi	zero,zero,-23513
  411f58:	10000624 	b	4137ec <binary_user_B_start+0x958>
  411f5c:	1102100c 	beq	t0,v0,415f90 <binary_user_idle_start+0x1c48>
  411f60:	21380000 	addi	t8,t1,0
  411f64:	21304000 	addi	s0,t1,16384
  411f68:	5100422c 	beqzl	t0,42281c <__bss_start+0x50e0>
  411f6c:	07004014 	bltz	t8,421fc0 <__bss_start+0x4884>
  411f70:	21208002 	addi	zero,t1,-32766
  411f74:	4000053c 	0x4000053c
  411f78:	200ba524 	addi	t3,zero,-23260
  411f7c:	09f86002 	j	7e18008 <_end+0x79f21f4>
  411f80:	18000624 	blez	zero,413814 <binary_user_B_start+0x980>
  411f84:	ffff0010 	sdc3	$31,16(ra)
  411f88:	00000000 	nop
  411f8c:	09f86002 	j	7e18008 <_end+0x79f21f4>
  411f90:	2000a527 	addi	zero,zero,-23257
  411f94:	f0fe0010 	0xf0fe0010
  411f98:	01002526 	0x1002526
  411f9c:	04005026 	bltz	zero,426038 <_end+0x224>
  411fa0:	2000a427 	addi	zero,zero,-23513
  411fa4:	03004582 	0x3004582
  411fa8:	af01100c 	sw	at,4108(t8)
  411fac:	21300001 	addi	s0,t1,1
  411fb0:	21304000 	addi	s0,t1,16384
  411fb4:	5100422c 	beqzl	t0,422868 <__bss_start+0x512c>
  411fb8:	07004014 	bltz	t8,42200c <__bss_start+0x48d0>
  411fbc:	21208002 	addi	zero,t1,-32766
  411fc0:	4000053c 	0x4000053c
  411fc4:	200ba524 	addi	t3,zero,-23260
  411fc8:	09f86002 	j	7e18008 <_end+0x79f21f4>
  411fcc:	18000624 	blez	zero,413860 <binary_user_B_start+0x9cc>
  411fd0:	ffff0010 	sdc3	$31,16(ra)
  411fd4:	00000000 	nop
  411fd8:	09f86002 	j	7e18008 <_end+0x79f21f4>
  411fdc:	2000a527 	addi	zero,zero,-23257
  411fe0:	1a000010 	blez	s0,412024 <binary_user_A_start+0x648>
  411fe4:	21900002 	addi	s0,t4,2
  411fe8:	04005026 	bltz	zero,426084 <_end+0x270>
  411fec:	2000a427 	addi	zero,zero,-23513
  411ff0:	0000458e 	0x458e
  411ff4:	cf01100c 	pref	0x1,4108(t8)
  411ff8:	21300001 	addi	s0,t1,1
  411ffc:	21304000 	addi	s0,t1,16384
  412000:	5100422c 	beqzl	t0,4228b4 <__bss_start+0x5178>
  412004:	07004014 	bltz	t8,422058 <__bss_start+0x491c>
  412008:	21208002 	addi	zero,t1,-32766
  41200c:	4000053c 	0x4000053c
  412010:	200ba524 	addi	t3,zero,-23260
  412014:	09f86002 	j	7e18008 <_end+0x79f21f4>
  412018:	18000624 	blez	zero,4138ac <binary_user_B_start+0xa18>
  41201c:	ffff0010 	sdc3	$31,16(ra)
  412020:	00000000 	nop
  412024:	09f86002 	j	7e18008 <_end+0x79f21f4>
  412028:	2000a527 	addi	zero,zero,-23257
  41202c:	07000010 	bltz	t8,412070 <binary_user_A_start+0x694>
  412030:	21900002 	addi	s0,t4,2
  412034:	05000010 	bltz	t0,412078 <binary_user_A_start+0x69c>
  412038:	ffff3126 	sdc3	$31,12582(ra)
  41203c:	21208002 	addi	zero,t1,-32766
  412040:	21282002 	addi	t0,t1,8194
  412044:	09f86002 	j	7e18008 <_end+0x79f21f4>
  412048:	01000624 	0x1000624
  41204c:	c2fe0010 	ll	s8,16(s7)
  412050:	01002526 	0x1002526
  412054:	21208002 	addi	zero,t1,-32766
  412058:	4000053c 	0x4000053c
  41205c:	3c0ba524 	lui	t3,0xa524
  412060:	09f86002 	j	7e18008 <_end+0x79f21f4>
  412064:	01000624 	0x1000624
  412068:	8400bf8f 	lh	zero,-16497(zero)
  41206c:	8000b48f 	lb	zero,-19313(zero)
  412070:	7c00b38f 	0x7c00b38f
  412074:	7800b28f 	ceq.b	$w10,$w22,$w0
  412078:	7400b18f 	jalx	2c63c <__tlb_stride_length+0x2c63b>
  41207c:	7000b08f 	0x7000b08f
  412080:	0800e003 	j	3800c <__tlb_stride_length+0x3800b>
  412084:	8800bd27 	lwl	zero,-17113(zero)
  412088:	b8fe6214 	swr	s8,25108(a3)
  41208c:	25000324 	addiu	zero,t0,804
  412090:	bffe0010 	cache	0x1e,16(ra)
  412094:	2180a000 	addi	zero,t4,-24576
  412098:	002e0500 	0x2e0500
  41209c:	032e0500 	0x32e0500
  4120a0:	2a180600 	slti	t8,s0,1536
  4120a4:	01000224 	0x1000224
  4120a8:	1500e010 	bnez	t0,40a0ec <walk_path+0xbc>
  4120ac:	0a304300 	j	8c10c00 <_end+0x87eadec>
  4120b0:	0200c228 	0x200c228
  4120b4:	16004014 	bnez	s0,422108 <__bss_start+0x49cc>
  4120b8:	000085a0 	0x85a0
  4120bc:	01000324 	0x1000324
  4120c0:	20000524 	addi	zero,zero,1316
  4120c4:	21108300 	addi	s0,t0,-32000
  4120c8:	01006324 	0x1006324
  4120cc:	1000c310 	b	402d10 <spawn+0x128>
  4120d0:	000045a0 	0x45a0
  4120d4:	fcff0010 	sdc3	$31,16(a3)
  4120d8:	21108300 	addi	s0,t0,-32000
  4120dc:	21180000 	addi	t8,t0,0
  4120e0:	20000824 	addi	zero,zero,2084
  4120e4:	21106400 	addi	s0,t0,25600
  4120e8:	01006324 	0x1006324
  4120ec:	fdff6714 	sdc3	$31,26388(t7)
  4120f0:	000048a0 	0x48a0
  4120f4:	2110c400 	addi	s0,t0,-15360
  4120f8:	05000010 	bltz	t0,41213c <binary_user_A_start+0x760>
  4120fc:	ffff45a0 	sdc3	$31,17824(ra)
  412100:	ffffc724 	sdc3	$31,-14556(ra)
  412104:	f5ffe01c 	sdc1	$f31,-8164(t7)
  412108:	2110c400 	addi	s0,t0,-15360
  41210c:	ffff45a0 	sdc3	$31,17824(ra)
  412110:	0800e003 	j	3800c <__tlb_stride_length+0x3800b>
  412114:	2110c000 	addi	s0,t0,-16384
  412118:	0000a280 	sll	s4,zero,0xa
  41211c:	03004014 	0x3004014
  412120:	0100a324 	0x100a324
  412124:	06000010 	bltz	s0,412168 <binary_user_A_start+0x78c>
  412128:	21400000 	addi	zero,t2,0
  41212c:	21400000 	addi	zero,t2,0
  412130:	01000825 	move	at,t0
  412134:	00006280 	sll	t4,zero,0xa
  412138:	fdff4014 	sdc3	$31,16404(t7)
  41213c:	01006324 	0x1006324
  412140:	2a10c800 	slti	s0,s0,-14336
  412144:	3000e014 	andi	zero,zero,0xe014
  412148:	0b300201 	j	cc00804 <_end+0xc7da9f0>
  41214c:	2a000010 	slti	zero,s0,16
  412150:	2338c800 	addi	t8,t9,-14336
  412154:	21380000 	addi	t8,t1,0
  412158:	21108700 	addi	s0,t0,-30976
  41215c:	2118a700 	addi	t8,t0,-22784
  412160:	00006390 	0x6390
  412164:	0100e724 	0x100e724
  412168:	fbff0715 	sdc2	$31,1813(ra)
  41216c:	000043a0 	0x43a0
  412170:	2a100601 	slti	s0,s0,1537
  412174:	28004010 	slti	zero,zero,16400
  412178:	21180000 	addi	t8,t0,0
  41217c:	21108800 	addi	s0,t0,-30720
  412180:	20000524 	addi	zero,zero,1316
  412184:	2320c800 	addi	zero,t9,-14336
  412188:	000045a0 	0x45a0
  41218c:	01006324 	0x1006324
  412190:	21006410 	addi	zero,t0,25616
  412194:	01004224 	0x1004224
  412198:	fcff0010 	sdc3	$31,16(a3)
  41219c:	000045a0 	0x45a0
  4121a0:	21180000 	addi	t8,t0,0
  4121a4:	20000924 	addi	zero,zero,2340
  4121a8:	21108300 	addi	s0,t0,-32000
  4121ac:	01006324 	0x1006324
  4121b0:	fdff6714 	sdc3	$31,26388(t7)
  4121b4:	000049a0 	0x49a0
  4121b8:	2a10e600 	slti	s0,s0,-6656
  4121bc:	16004010 	bnez	s0,422200 <__bss_start+0x4ac4>
  4121c0:	21208700 	addi	zero,t1,-30976
  4121c4:	2310e600 	addi	s0,t8,-6656
  4121c8:	21100201 	addi	s0,t0,513
  4121cc:	2118a200 	addi	t8,t0,-24064
  4121d0:	21280000 	addi	t0,t1,0
  4121d4:	2338c700 	addi	t8,t9,-14592
  4121d8:	00006290 	0x6290
  4121dc:	000082a0 	0x82a0
  4121e0:	0100a524 	0x100a524
  4121e4:	01006324 	0x1006324
  4121e8:	0b00a710 	j	c029c40 <_end+0xbc03e2c>
  4121ec:	01008424 	0x1008424
  4121f0:	faff0010 	sdc2	$31,16(s7)
  4121f4:	00006290 	0x6290
  4121f8:	e9ffe01c 	swc2	$31,-8164(t7)
  4121fc:	2a10e600 	slti	s0,s0,-6656
  412200:	eeff0010 	swc3	$31,16(s7)
  412204:	00000000 	nop
  412208:	d2ff001d 	0xd2ff001d
  41220c:	2a100601 	slti	s0,s0,1537
  412210:	d8ff0010 	ldc2	$31,16(a3)
  412214:	00000000 	nop
  412218:	0800e003 	j	3800c <__tlb_stride_length+0x3800b>
  41221c:	2110c000 	addi	s0,t0,-16384
  412220:	1000a98f 	b	3fc860 <__tlb_stride_length+0x3fc85f>
  412224:	1400ac8f 	bnez	zero,3fd464 <__tlb_stride_length+0x3fd463>
  412228:	1c00ab8f 	bgtz	zero,3fd068 <__tlb_stride_length+0x3fd067>
  41222c:	1b00aa83 	blez	t8,3fcc3c <__tlb_stride_length+0x3fcc3b>
  412230:	21408000 	addi	zero,t2,-32768
  412234:	1b00a600 	blez	t8,3fba38 <__tlb_stride_length+0x3fba37>
  412238:	f401c000 	sdc1	$f1,-16384(zero)
  41223c:	10180000 	beq	zero,t8,412240 <binary_user_A_start+0x864>
  412240:	0a006228 	j	80188a0 <_end+0x7bf2a8c>
  412244:	04004010 	bltz	zero,422288 <__bss_start+0x4b4c>
  412248:	30006224 	andi	zero,zero,0x6224
  41224c:	000002a1 	0x2a1
  412250:	0b000010 	j	c000040 <_end+0xbbda22c>
  412254:	01000825 	move	at,t0
  412258:	05006011 	bltz	t0,42a2a0 <_end+0x448c>
  41225c:	57006224 	bnezl	t8,42aaf0 <_end+0x4cdc>
  412260:	37006224 	ori	zero,t8,0x6224
  412264:	000002a1 	0x2a1
  412268:	03000010 	0x3000010
  41226c:	01000825 	move	at,t0
  412270:	000002a1 	0x2a1
  412274:	01000825 	move	at,t0
  412278:	1b00a600 	blez	t8,3fba7c <__tlb_stride_length+0x3fba7b>
  41227c:	f401c000 	sdc1	$f1,-16384(zero)
  412280:	12280000 	beq	s1,t0,412284 <binary_user_A_start+0x8a8>
  412284:	ebffa014 	swc2	$31,-24556(ra)
  412288:	00000000 	nop
  41228c:	0500e010 	bltz	t0,40a2d0 <file_truncate+0x64>
  412290:	23300401 	addi	s0,t9,1025
  412294:	2d000224 	sltiu	zero,t0,548
  412298:	000002a1 	0x2a1
  41229c:	01000825 	move	at,t0
  4122a0:	23300401 	addi	s0,t9,1025
  4122a4:	2a102601 	slti	s0,s0,9729
  4122a8:	0b48c200 	j	d230800 <_end+0xce0a9ec>
  4122ac:	20000224 	addi	zero,zero,548
  4122b0:	3200e010 	andi	zero,s0,0xe010
  4122b4:	0b504c00 	j	d413000 <_end+0xcfed1ec>
  4122b8:	31008015 	andi	zero,t0,0x8015
  4122bc:	2a10c900 	slti	s0,s0,-14080
  4122c0:	30000224 	andi	zero,zero,0x224
  4122c4:	2e004215 	sltiu	zero,s0,16917
  4122c8:	2a10c900 	slti	s0,s0,-14080
  4122cc:	ffffc624 	sdc3	$31,-14812(ra)
  4122d0:	ffff2825 	sdc3	$31,10277(ra)
  4122d4:	2a10c800 	slti	s0,s0,-14336
  4122d8:	08004010 	j	10040 <__tlb_stride_length+0x1003f>
  4122dc:	23100601 	addi	s0,t8,1537
  4122e0:	21188600 	addi	t8,t0,-31232
  4122e4:	21280000 	addi	t0,t1,0
  4122e8:	30000724 	andi	zero,zero,0x724
  4122ec:	000067a0 	0x67a0
  4122f0:	0100a524 	0x100a524
  4122f4:	fdffa214 	sdc3	$31,-24044(t7)
  4122f8:	01006324 	0x1006324
  4122fc:	21188900 	addi	t8,t0,-30464
  412300:	2d000224 	sltiu	zero,t0,548
  412304:	0d000010 	jal	4000040 <_end+0x3bda22c>
  412308:	ffff62a0 	sdc3	$31,25248(ra)
  41230c:	0000aaa0 	0xaaa0
  412310:	01006324 	0x1006324
  412314:	23102601 	addi	s0,t8,9729
  412318:	fcff6214 	sdc3	$31,25108(a3)
  41231c:	0100a524 	0x100a524
  412320:	06008011 	bltz	s0,3f2368 <__tlb_stride_length+0x3f2367>
  412324:	00000000 	nop
  412328:	ffffc624 	sdc3	$31,-14812(ra)
  41232c:	0500c01c 	bltz	t0,4023a0 <pipe+0xd4>
  412330:	21380000 	addi	t8,t1,0
  412334:	0800e003 	j	3800c <__tlb_stride_length+0x3800b>
  412338:	21102001 	addi	s0,t0,8193
  41233c:	fbff0010 	sdc2	$31,16(ra)
  412340:	ffff2625 	sdc3	$31,9765(ra)
  412344:	21288000 	addi	t0,t1,-32768
  412348:	21208600 	addi	zero,t1,-31232
  41234c:	0000a280 	sll	s4,zero,0xa
  412350:	00008390 	0x8390
  412354:	0000a3a0 	0xa3a0
  412358:	000082a0 	0x82a0
  41235c:	0100e724 	0x100e724
  412360:	ffffc624 	sdc3	$31,-14812(ra)
  412364:	0100a524 	0x100a524
  412368:	2a10e600 	slti	s0,s0,-6656
  41236c:	09004010 	j	4010040 <_end+0x3bea22c>
  412370:	ffff8424 	sdc3	$31,-31708(ra)
  412374:	f6ff0010 	sdc1	$f31,16(s7)
  412378:	0000a280 	sll	s4,zero,0xa
  41237c:	2a10c900 	slti	s0,s0,-14080
  412380:	e7ff4010 	swc1	$f31,16400(ra)
  412384:	00000000 	nop
  412388:	21288600 	addi	t0,t1,-31232
  41238c:	dfff0010 	ldc3	$31,16(ra)
  412390:	21180000 	addi	t8,t0,0
  412394:	21102001 	addi	s0,t0,8193
  412398:	0800e003 	j	3800c <__tlb_stride_length+0x3800b>
  41239c:	00000000 	nop
	...
  4123ac:	e0ffbd27 	sc	ra,-17113(a3)
  4123b0:	1c00bfaf 	bgtz	zero,402270 <piperead+0x6c>
  4123b4:	1800b2af 	blez	zero,3fee74 <__tlb_stride_length+0x3fee73>
  4123b8:	1400b1af 	bnez	zero,3fea78 <__tlb_stride_length+0x3fea77>
  4123bc:	1000b0af 	b	3fe67c <__tlb_stride_length+0x3fe67b>
  4123c0:	01000224 	0x1000224
  4123c4:	1300c214 	beqz	t8,402c18 <spawn+0x30>
  4123c8:	2190c000 	addi	s0,t4,-16384
  4123cc:	0000a280 	sll	s4,zero,0xa
  4123d0:	13004014 	beqz	t8,422424 <__bss_start+0x4ce8>
  4123d4:	2180a000 	addi	zero,t4,-24576
  4123d8:	14000010 	bnez	zero,41241c <binary_user_A_start+0xa40>
  4123dc:	1c00bf8f 	bgtz	zero,40221c <piperead+0x18>
  4123e0:	3800100c 	xori	zero,zero,0x100c
  4123e4:	00000482 	srl	zero,zero,0x12
  4123e8:	00000382 	srl	zero,zero,0xe
  4123ec:	0a000224 	j	8000890 <_end+0x7bdaa7c>
  4123f0:	03006214 	0x3006214
  4123f4:	00000000 	nop
  4123f8:	3800100c 	xori	zero,zero,0x100c
  4123fc:	0a000424 	j	8001090 <_end+0x7bdb27c>
  412400:	01003126 	0x1003126
  412404:	08005112 	j	14448 <__tlb_stride_length+0x14447>
  412408:	01001026 	xor	v0,t0,zero
  41240c:	f4ff0010 	sdc1	$f31,16(a3)
  412410:	00000000 	nop
  412414:	0500c018 	bltz	t0,402478 <pipeisclosed+0x34>
  412418:	1c00bf8f 	bgtz	zero,402258 <piperead+0x54>
  41241c:	2180a000 	addi	zero,t4,-24576
  412420:	efff0010 	swc3	$31,16(ra)
  412424:	21880000 	addi	t0,t4,0
  412428:	1c00bf8f 	bgtz	zero,402268 <piperead+0x64>
  41242c:	1800b28f 	blez	zero,3fee6c <__tlb_stride_length+0x3fee6b>
  412430:	1400b18f 	bnez	zero,3fea70 <__tlb_stride_length+0x3fea6f>
  412434:	1000b08f 	b	3fe674 <__tlb_stride_length+0x3fe673>
  412438:	0800e003 	j	3800c <__tlb_stride_length+0x3800b>
  41243c:	2000bd27 	addi	zero,zero,-17113
  412440:	e0ffbd27 	sc	ra,-17113(a3)
  412444:	1800bfaf 	blez	zero,402304 <pipe+0x38>
  412448:	2400a5af 	li	zero,-23121
  41244c:	2800a6af 	slti	zero,zero,-22865
  412450:	2c00a7af 	sltiu	zero,zero,-22609
  412454:	21308000 	addi	s0,t1,-32768
  412458:	2400a727 	li	zero,-22745
  41245c:	1000a7af 	b	3fc31c <__tlb_stride_length+0x3fc31b>
  412460:	4000043c 	0x4000043c
  412464:	d0098424 	0xd0098424
  412468:	5400100c 	bnezl	zero,41649c <binary_user_idle_start+0x2154>
  41246c:	21280000 	addi	t0,t1,0
  412470:	1800bf8f 	blez	zero,4022b0 <piperead+0xac>
  412474:	0800e003 	j	3800c <__tlb_stride_length+0x3800b>
  412478:	2000bd27 	addi	zero,zero,-17113
  41247c:	e0ffbd27 	sc	ra,-17113(a3)
  412480:	1c00bfaf 	bgtz	zero,402340 <pipe+0x74>
  412484:	1800b0af 	blez	zero,3fe744 <__tlb_stride_length+0x3fe743>
  412488:	21188000 	addi	t8,t0,-32768
  41248c:	2140a000 	addi	zero,t2,-24576
  412490:	2c00a7af 	sltiu	zero,zero,-22609
  412494:	2180c000 	addi	zero,t4,-16384
  412498:	2c00a227 	sltiu	zero,zero,-24025
  41249c:	1000a2af 	b	3faf5c <__tlb_stride_length+0x3faf5b>
  4124a0:	4000043c 	0x4000043c
  4124a4:	300d8424 	andi	t5,zero,0x8424
  4124a8:	21286000 	addi	t0,t1,24576
  4124ac:	9902100c 	lwr	v0,4108(t0)
  4124b0:	21300001 	addi	s0,t1,1
  4124b4:	4000043c 	0x4000043c
  4124b8:	d0098424 	0xd0098424
  4124bc:	21280000 	addi	t0,t1,0
  4124c0:	21300002 	addi	s0,t1,2
  4124c4:	5400100c 	bnezl	zero,4164f8 <binary_user_idle_start+0x21b0>
  4124c8:	1000a78f 	b	3fc308 <__tlb_stride_length+0x3fc307>
  4124cc:	4000043c 	0x4000043c
  4124d0:	9902100c 	lwr	v0,4108(t0)
  4124d4:	440d8424 	0x440d8424
  4124d8:	ffff0010 	sdc3	$31,16(ra)
	...
  4124ec:	00206425 	0x206425
	...
  4124fc:	61746166 	0x61746166
  412500:	7265206c 	0x7265206c
  412504:	20726f72 	addi	s2,v1,28530
  412508:	6c206e69 	0x6c206e69
  41250c:	72505f70 	0x72505f70
  412510:	21746e69 	addi	s4,t3,28265
	...
  41251c:	58064000 	0x58064000
  412520:	60064000 	0x60064000
  412524:	60064000 	0x60064000
  412528:	60064000 	0x60064000
  41252c:	60064000 	0x60064000
  412530:	60064000 	0x60064000
  412534:	60064000 	0x60064000
  412538:	60064000 	0x60064000
  41253c:	60064000 	0x60064000
  412540:	60064000 	0x60064000
  412544:	60064000 	0x60064000
  412548:	60064000 	0x60064000
  41254c:	60064000 	0x60064000
  412550:	60064000 	0x60064000
  412554:	60064000 	0x60064000
  412558:	60064000 	0x60064000
  41255c:	60064000 	0x60064000
  412560:	60064000 	0x60064000
  412564:	60064000 	0x60064000
  412568:	60064000 	0x60064000
  41256c:	60064000 	0x60064000
  412570:	60064000 	0x60064000
  412574:	60064000 	0x60064000
  412578:	60064000 	0x60064000
  41257c:	60064000 	0x60064000
  412580:	60064000 	0x60064000
  412584:	60064000 	0x60064000
  412588:	60064000 	0x60064000
  41258c:	60064000 	0x60064000
  412590:	60064000 	0x60064000
  412594:	60064000 	0x60064000
  412598:	60064000 	0x60064000
  41259c:	60064000 	0x60064000
  4125a0:	60064000 	0x60064000
  4125a4:	60064000 	0x60064000
  4125a8:	60064000 	0x60064000
  4125ac:	60064000 	0x60064000
  4125b0:	60064000 	0x60064000
  4125b4:	60064000 	0x60064000
  4125b8:	60064000 	0x60064000
  4125bc:	60064000 	0x60064000
  4125c0:	60064000 	0x60064000
  4125c4:	60064000 	0x60064000
  4125c8:	60064000 	0x60064000
  4125cc:	60064000 	0x60064000
  4125d0:	60064000 	0x60064000
  4125d4:	60064000 	0x60064000
  4125d8:	60064000 	0x60064000
  4125dc:	60064000 	0x60064000
  4125e0:	60064000 	0x60064000
  4125e4:	60064000 	0x60064000
  4125e8:	60064000 	0x60064000
  4125ec:	60064000 	0x60064000
  4125f0:	60064000 	0x60064000
  4125f4:	60064000 	0x60064000
  4125f8:	60064000 	0x60064000
  4125fc:	60064000 	0x60064000
  412600:	60064000 	0x60064000
  412604:	60064000 	0x60064000
  412608:	60064000 	0x60064000
  41260c:	60064000 	0x60064000
  412610:	60064000 	0x60064000
  412614:	60064000 	0x60064000
  412618:	60064000 	0x60064000
  41261c:	60064000 	0x60064000
  412620:	60064000 	0x60064000
  412624:	60064000 	0x60064000
  412628:	60064000 	0x60064000
  41262c:	68034000 	0x68034000
  412630:	60064000 	0x60064000
  412634:	60064000 	0x60064000
  412638:	60064000 	0x60064000
  41263c:	60064000 	0x60064000
  412640:	60064000 	0x60064000
  412644:	60064000 	0x60064000
  412648:	60064000 	0x60064000
  41264c:	60064000 	0x60064000
  412650:	60064000 	0x60064000
  412654:	60064000 	0x60064000
  412658:	ec034000 	swc3	$3,16384(zero)
  41265c:	60064000 	0x60064000
  412660:	60064000 	0x60064000
  412664:	60064000 	0x60064000
  412668:	60064000 	0x60064000
  41266c:	60064000 	0x60064000
  412670:	60044000 	0x60044000
  412674:	60064000 	0x60064000
  412678:	60064000 	0x60064000
  41267c:	48054000 	mfc2	a1,$8
  412680:	60064000 	0x60064000
  412684:	60064000 	0x60064000
  412688:	60064000 	0x60064000
  41268c:	60064000 	0x60064000
  412690:	60064000 	0x60064000
  412694:	60064000 	0x60064000
  412698:	60064000 	0x60064000
  41269c:	60064000 	0x60064000
  4126a0:	60064000 	0x60064000
  4126a4:	f4024000 	sdc1	$f2,16384(zero)
  4126a8:	c0054000 	ll	a1,16384(zero)
  4126ac:	68034000 	0x68034000
  4126b0:	60064000 	0x60064000
  4126b4:	60064000 	0x60064000
  4126b8:	60064000 	0x60064000
  4126bc:	60064000 	0x60064000
  4126c0:	60064000 	0x60064000
  4126c4:	60064000 	0x60064000
  4126c8:	60064000 	0x60064000
  4126cc:	60064000 	0x60064000
  4126d0:	60064000 	0x60064000
  4126d4:	60064000 	0x60064000
  4126d8:	ec034000 	swc3	$3,16384(zero)
  4126dc:	60064000 	0x60064000
  4126e0:	60064000 	0x60064000
  4126e4:	60064000 	0x60064000
  4126e8:	0c064000 	jal	190000 <__tlb_stride_length+0x18ffff>
  4126ec:	60064000 	0x60064000
  4126f0:	60044000 	0x60044000
  4126f4:	60064000 	0x60064000
  4126f8:	60064000 	0x60064000
  4126fc:	d4044000 	ldc1	$f4,16384(zero)
	...
  41270c:	696e6170 	0x696e6170
  412710:	74612063 	jalx	184818c <_end+0x1422378>
  412714:	3a732520 	xori	s3,s3,0x2520
  412718:	203a6425 	addi	k0,at,25637
  41271c:	00000000 	nop
  412720:	0000000a 	movz	zero,zero,zero
	...
  41272c:	43434700 	c0	0x1434700
  412730:	4728203a 	bz.h	$w8,41a81c <opentab+0x31f4>
  412734:	2029554e 	addi	t1,at,21838
  412738:	2e302e34 	sltiu	s0,s1,11828
  41273c:	44282030 	0x44282030
  412740:	20584e45 	addi	t8,v0,20037
  412744:	4b444c45 	c2	0x1444c45
  412748:	312e3420 	andi	t6,t1,0x3420
  41274c:	302e3420 	andi	t6,at,0x3420
  412750:	0029302e 	0x29302e
  412754:	43434700 	c0	0x1434700
  412758:	4728203a 	bz.h	$w8,41a844 <opentab+0x321c>
  41275c:	2029554e 	addi	t1,at,21838
  412760:	2e302e34 	sltiu	s0,s1,11828
  412764:	44282030 	0x44282030
  412768:	20584e45 	addi	t8,v0,20037
  41276c:	4b444c45 	c2	0x1444c45
  412770:	312e3420 	andi	t6,t1,0x3420
  412774:	302e3420 	andi	t6,at,0x3420
  412778:	0029302e 	0x29302e
  41277c:	43434700 	c0	0x1434700
  412780:	4728203a 	bz.h	$w8,41a86c <opentab+0x3244>
  412784:	2029554e 	addi	t1,at,21838
  412788:	2e302e34 	sltiu	s0,s1,11828
  41278c:	44282030 	0x44282030
  412790:	20584e45 	addi	t8,v0,20037
  412794:	4b444c45 	c2	0x1444c45
  412798:	312e3420 	andi	t6,t1,0x3420
  41279c:	302e3420 	andi	t6,at,0x3420
  4127a0:	0029302e 	0x29302e
  4127a4:	43434700 	c0	0x1434700
  4127a8:	4728203a 	bz.h	$w8,41a894 <opentab+0x326c>
  4127ac:	2029554e 	addi	t1,at,21838
  4127b0:	2e302e34 	sltiu	s0,s1,11828
  4127b4:	44282030 	0x44282030
  4127b8:	20584e45 	addi	t8,v0,20037
  4127bc:	4b444c45 	c2	0x1444c45
  4127c0:	312e3420 	andi	t6,t1,0x3420
  4127c4:	302e3420 	andi	t6,at,0x3420
  4127c8:	0029302e 	0x29302e
  4127cc:	b0004000 	0xb0004000
  4127d0:	00000180 	sll	zero,zero,0x6
  4127d4:	fcffffff 	sdc3	$31,-1(a3)
	...
  4127e0:	18000000 	blez	zero,4127e4 <binary_user_A_start+0xe08>
  4127e4:	1d000000 	bgtz	t0,4127e8 <binary_user_A_start+0xe0c>
  4127e8:	1f000000 	bgtz	t8,4127ec <binary_user_A_start+0xe10>
  4127ec:	e0004000 	sc	zero,16384(zero)
	...
  412804:	1d000000 	bgtz	t0,412808 <binary_user_A_start+0xe2c>
  412808:	1f000000 	bgtz	t8,41280c <binary_user_A_start+0xe30>
  41280c:	f4004000 	sdc1	$f0,16384(zero)
	...
  412824:	1d000000 	bgtz	t0,412828 <binary_user_A_start+0xe4c>
  412828:	1f000000 	bgtz	t8,41282c <binary_user_A_start+0xe50>
  41282c:	08014000 	j	50000 <__tlb_stride_length+0x4ffff>
  412830:	00000180 	sll	zero,zero,0x6
  412834:	fcffffff 	sdc3	$31,-1(a3)
	...
  412840:	18000000 	blez	zero,412844 <binary_user_A_start+0xe68>
  412844:	1d000000 	bgtz	t0,412848 <binary_user_A_start+0xe6c>
  412848:	1f000000 	bgtz	t8,41284c <binary_user_A_start+0xe70>
  41284c:	50014000 	beql	zero,at,422850 <__bss_start+0x5114>
  412850:	00001f80 	sll	v1,zero,0x1e
  412854:	fcffffff 	sdc3	$31,-1(a3)
	...
  412860:	88000000 	lwl	zero,0(zero)
  412864:	1d000000 	bgtz	t0,412868 <binary_user_A_start+0xe8c>
  412868:	1f000000 	bgtz	t8,41286c <binary_user_A_start+0xe90>
  41286c:	bc064000 	cache	0x6,16384(zero)
	...
  412884:	1d000000 	bgtz	t0,412888 <binary_user_A_start+0xeac>
  412888:	1f000000 	bgtz	t8,41288c <binary_user_A_start+0xeb0>
  41288c:	3c074000 	lui	a3,0x4000
	...
  4128a4:	1d000000 	bgtz	t0,4128a8 <binary_user_A_start+0xecc>
  4128a8:	1f000000 	bgtz	t8,4128ac <binary_user_A_start+0xed0>
  4128ac:	44084000 	mfc1	t0,$f8
	...
  4128c4:	1d000000 	bgtz	t0,4128c8 <binary_user_A_start+0xeec>
  4128c8:	1f000000 	bgtz	t8,4128cc <binary_user_A_start+0xef0>
  4128cc:	d0094000 	0xd0094000
  4128d0:	00000780 	sll	zero,zero,0x1e
  4128d4:	fcffffff 	sdc3	$31,-1(a3)
	...
  4128e0:	20000000 	addi	zero,zero,0
  4128e4:	1d000000 	bgtz	t0,4128e8 <binary_user_A_start+0xf0c>
  4128e8:	1f000000 	bgtz	t8,4128ec <binary_user_A_start+0xf10>
  4128ec:	640a4000 	0x640a4000
  4128f0:	00000080 	sll	zero,zero,0x2
  4128f4:	f8ffffff 	sdc2	$31,-1(a3)
	...
  412900:	20000000 	addi	zero,zero,0
  412904:	1d000000 	bgtz	t0,412908 <binary_user_A_start+0xf2c>
  412908:	1f000000 	bgtz	t8,41290c <binary_user_A_start+0xf30>
  41290c:	a00a4000 	sb	t2,16384(zero)
  412910:	00000180 	sll	zero,zero,0x6
  412914:	fcffffff 	sdc3	$31,-1(a3)
	...
  412920:	20000000 	addi	zero,zero,0
  412924:	1d000000 	bgtz	t0,412928 <binary_user_A_start+0xf4c>
  412928:	1f000000 	bgtz	t8,41292c <binary_user_A_start+0xf50>
  41292c:	79732e00 	ori.b	$w24,$w5,0x73
  412930:	6261746d 	0x6261746d
  412934:	74732e00 	jalx	1ccb800 <_end+0x18a59ec>
  412938:	62617472 	0x62617472
  41293c:	68732e00 	0x68732e00
  412940:	74727473 	jalx	1c9d1cc <_end+0x18773b8>
  412944:	2e006261 	sltiu	zero,s0,25185
  412948:	69676572 	0x69676572
  41294c:	006f666e 	0x6f666e
  412950:	7865742e 	0x7865742e
  412954:	722e0074 	0x722e0074
  412958:	7461646f 	jalx	18591bc <_end+0x14333a8>
  41295c:	642e0061 	0x642e0061
  412960:	00617461 	0x617461
  412964:	7362732e 	0x7362732e
  412968:	622e0073 	0x622e0073
  41296c:	2e007373 	sltiu	zero,s0,29555
  412970:	6d6d6f63 	0x6d6d6f63
  412974:	00746e65 	0x746e65
  412978:	7264702e 	0x7264702e
  41297c:	646d2e00 	0x646d2e00
  412980:	67756265 	0x67756265
  412984:	6962612e 	0x6962612e
  412988:	00003233 	tltu	zero,zero,0xc8
	...
  4129b4:	1b000000 	blez	t8,4129b8 <binary_user_A_start+0xfdc>
  4129b8:	06000070 	bltz	s0,412b7c <binary_user_A_start+0x11a0>
  4129bc:	02000000 	0x2000000
  4129c0:	94004000 	lhu	zero,16384(zero)
  4129c4:	94000000 	lhu	zero,0(zero)
  4129c8:	18000000 	blez	zero,4129cc <binary_user_A_start+0xff0>
  4129cc:	00000000 	nop
  4129d0:	00000000 	nop
  4129d4:	04000000 	bltz	zero,4129d8 <binary_user_A_start+0xffc>
  4129d8:	18000000 	blez	zero,4129dc <binary_user_A_start+0x1000>
  4129dc:	24000000 	li	zero,0
  4129e0:	01000000 	0x1000000
  4129e4:	06000000 	bltz	s0,4129e8 <binary_user_A_start+0x100c>
  4129e8:	b0004000 	0xb0004000
  4129ec:	b0000000 	0xb0000000
  4129f0:	600a0000 	0x600a0000
	...
  4129fc:	10000000 	b	412a00 <binary_user_A_start+0x1024>
  412a00:	00000000 	nop
  412a04:	2a000000 	slti	zero,s0,0
  412a08:	01000000 	0x1000000
  412a0c:	02000000 	0x2000000
  412a10:	100b4000 	beq	zero,t3,422a14 <__bss_start+0x52d8>
  412a14:	100b0000 	beq	zero,t3,412a18 <binary_user_A_start+0x103c>
  412a18:	36020000 	ori	v0,s0,0x0
	...
  412a24:	10000000 	b	412a28 <binary_user_A_start+0x104c>
  412a28:	00000000 	nop
  412a2c:	32000000 	andi	zero,s0,0x0
  412a30:	01000000 	0x1000000
  412a34:	03000000 	0x3000000
  412a38:	00000010 	mfhi	zero
  412a3c:	500d0000 	beql	zero,t5,412a40 <binary_user_A_start+0x1064>
  412a40:	00000000 	nop
	...
  412a4c:	10000000 	b	412a50 <binary_user_A_start+0x1074>
  412a50:	00000000 	nop
  412a54:	38000000 	xori	zero,zero,0x0
  412a58:	08000000 	j	0 <__tlb_stride_length-0x1>
  412a5c:	03000010 	0x3000010
  412a60:	00000010 	mfhi	zero
  412a64:	500d0000 	beql	zero,t5,412a68 <binary_user_A_start+0x108c>
  412a68:	00000000 	nop
	...
  412a74:	01000000 	0x1000000
  412a78:	00000000 	nop
  412a7c:	3e000000 	0x3e000000
  412a80:	08000000 	j	0 <__tlb_stride_length-0x1>
  412a84:	03000000 	0x3000000
  412a88:	00000010 	mfhi	zero
  412a8c:	500d0000 	beql	zero,t5,412a90 <binary_user_A_start+0x10b4>
  412a90:	00000000 	nop
	...
  412a9c:	10000000 	b	412aa0 <binary_user_A_start+0x10c4>
  412aa0:	00000000 	nop
  412aa4:	43000000 	c0	0x1000000
  412aa8:	01000000 	0x1000000
	...
  412ab4:	500d0000 	beql	zero,t5,412ab8 <binary_user_A_start+0x10dc>
  412ab8:	a0000000 	sb	zero,0(zero)
	...
  412ac4:	01000000 	0x1000000
  412ac8:	00000000 	nop
  412acc:	4c000000 	lwxc1	$f0,zero(zero)
  412ad0:	01000000 	0x1000000
	...
  412adc:	f00d0000 	0xf00d0000
  412ae0:	60010000 	0x60010000
	...
  412aec:	04000000 	bltz	zero,412af0 <binary_user_A_start+0x1114>
  412af0:	00000000 	nop
  412af4:	51000000 	beqzl	t0,412af8 <binary_user_A_start+0x111c>
  412af8:	01000000 	0x1000000
	...
  412b04:	500f0000 	beql	zero,t7,412b08 <binary_user_A_start+0x112c>
  412b08:	00000000 	nop
	...
  412b14:	01000000 	0x1000000
  412b18:	00000000 	nop
  412b1c:	11000000 	beqz	t0,412b20 <binary_user_A_start+0x1144>
  412b20:	03000000 	0x3000000
	...
  412b2c:	500f0000 	beql	zero,t7,412b30 <binary_user_A_start+0x1154>
  412b30:	5f000000 	bgtzl	t8,412b34 <binary_user_A_start+0x1158>
  412b34:	00000000 	nop
  412b38:	00000000 	nop
  412b3c:	01000000 	0x1000000
  412b40:	00000000 	nop
  412b44:	01000000 	0x1000000
  412b48:	02000000 	0x2000000
	...
  412b54:	b8110000 	swr	s1,0(zero)
  412b58:	40020000 	mfc0	v0,c0_index
  412b5c:	0c000000 	jal	0 <__tlb_stride_length-0x1>
  412b60:	13000000 	beqz	t8,412b64 <binary_user_A_start+0x1188>
  412b64:	04000000 	bltz	zero,412b68 <binary_user_A_start+0x118c>
  412b68:	10000000 	b	412b6c <binary_user_A_start+0x1190>
  412b6c:	09000000 	j	4000000 <_end+0x3bda1ec>
  412b70:	03000000 	0x3000000
	...
  412b7c:	f8130000 	sdc2	$19,0(zero)
  412b80:	ba000000 	swr	zero,0(s0)
	...
  412b8c:	01000000 	0x1000000
	...
  412ba8:	94004000 	lhu	zero,16384(zero)
  412bac:	00000000 	nop
  412bb0:	01000003 	0x1000003
  412bb4:	00000000 	nop
  412bb8:	b0004000 	0xb0004000
  412bbc:	00000000 	nop
  412bc0:	02000003 	0x2000003
  412bc4:	00000000 	nop
  412bc8:	100b4000 	beq	zero,t3,422bcc <__bss_start+0x5490>
  412bcc:	00000000 	nop
  412bd0:	03000003 	0x3000003
  412bd4:	00000000 	nop
  412bd8:	00000010 	mfhi	zero
  412bdc:	00000000 	nop
  412be0:	04000003 	bltz	zero,412bf0 <binary_user_A_start+0x1214>
  412be4:	00000000 	nop
  412be8:	00000010 	mfhi	zero
  412bec:	00000000 	nop
  412bf0:	05000003 	bltz	t0,412c00 <binary_user_A_start+0x1224>
  412bf4:	00000000 	nop
  412bf8:	00000010 	mfhi	zero
  412bfc:	00000000 	nop
  412c00:	06000003 	bltz	s0,412c10 <binary_user_A_start+0x1234>
  412c04:	00000000 	nop
	...
  412c10:	07000003 	bltz	t8,412c20 <binary_user_A_start+0x1244>
  412c14:	00000000 	nop
	...
  412c20:	08000003 	j	c <__tlb_stride_length+0xb>
  412c24:	00000000 	nop
	...
  412c30:	09000003 	j	400000c <_end+0x3bda1f8>
  412c34:	00000000 	nop
	...
  412c40:	0a000003 	j	800000c <_end+0x7bda1f8>
  412c44:	00000000 	nop
	...
  412c50:	0b000003 	j	c00000c <_end+0xbbda1f8>
  412c54:	00000000 	nop
	...
  412c60:	0c000003 	jal	c <__tlb_stride_length+0xb>
  412c64:	01000000 	0x1000000
	...
  412c70:	f1ff0004 	0xf1ff0004
  412c74:	06000000 	bltz	s0,412c78 <binary_user_A_start+0x129c>
  412c78:	00000000 	nop
  412c7c:	00000000 	nop
  412c80:	f1ff0004 	0xf1ff0004
  412c84:	10000000 	b	412c88 <binary_user_A_start+0x12ac>
  412c88:	00000000 	nop
  412c8c:	00000000 	nop
  412c90:	f1ff0004 	0xf1ff0004
  412c94:	18000000 	blez	zero,412c98 <binary_user_A_start+0x12bc>
  412c98:	200b4000 	addi	t3,zero,16384
  412c9c:	19000000 	blez	t0,412ca0 <binary_user_A_start+0x12c4>
  412ca0:	03000001 	movf	zero,t8,$fcc0
  412ca4:	24000000 	li	zero,0
	...
  412cb0:	f1ff0004 	0xf1ff0004
  412cb4:	2d000000 	sltiu	zero,t0,0
  412cb8:	d0094000 	0xd0094000
  412cbc:	94000000 	lhu	zero,0(zero)
  412cc0:	02000002 	0x2000002
  412cc4:	36000000 	ori	zero,s0,0x0
  412cc8:	50014000 	beql	zero,at,422ccc <__bss_start+0x5590>
  412ccc:	6c050000 	0x6c050000
  412cd0:	02000012 	0x2000012
  412cd4:	3f000000 	0x3f000000
  412cd8:	a00a4000 	sb	t2,16384(zero)
  412cdc:	64000000 	0x64000000
  412ce0:	02000012 	0x2000012
  412ce4:	46000000 	add.s	$f0,$f0,$f0
  412ce8:	08014000 	j	50000 <__tlb_stride_length+0x4ffff>
  412cec:	3c000000 	lui	zero,0x0
  412cf0:	02000012 	0x2000012
  412cf4:	4f000000 	lwxc1	$f0,zero(t8)
  412cf8:	640a4000 	0x640a4000
  412cfc:	3c000000 	lui	zero,0x0
  412d00:	02000012 	0x2000012
  412d04:	56000000 	bnezl	s0,412d08 <binary_user_A_start+0x132c>
  412d08:	00000010 	mfhi	zero
  412d0c:	00000000 	nop
  412d10:	04000010 	bltz	zero,412d54 <binary_user_A_start+0x1378>
  412d14:	5d000000 	bgtzl	t0,412d18 <binary_user_A_start+0x133c>
  412d18:	f07f0010 	0xf07f0010
  412d1c:	00000000 	nop
  412d20:	f1ff0010 	0xf1ff0010
  412d24:	61000000 	0x61000000
  412d28:	44084000 	mfc1	t0,$f8
  412d2c:	80010000 	lb	at,0(zero)
  412d30:	02000012 	0x2000012
  412d34:	6a000000 	0x6a000000
  412d38:	e0004000 	sc	zero,16384(zero)
  412d3c:	14000000 	bnez	zero,412d40 <binary_user_A_start+0x1364>
  412d40:	02000012 	0x2000012
  412d44:	75000000 	jalx	4000000 <_end+0x3bda1ec>
  412d48:	b0004000 	0xb0004000
  412d4c:	00000000 	nop
  412d50:	02000010 	0x2000010
  412d54:	7c000000 	ext	zero,zero,0x0,0x1
  412d58:	3c074000 	lui	a3,0x4000
  412d5c:	08010000 	j	40000 <__tlb_stride_length+0x3ffff>
  412d60:	02000012 	0x2000012
  412d64:	88000000 	lwl	zero,0(zero)
  412d68:	00000010 	mfhi	zero
  412d6c:	00000000 	nop
  412d70:	f1ff0010 	0xf1ff0010
  412d74:	94000000 	lhu	zero,0(zero)
  412d78:	b0004000 	0xb0004000
  412d7c:	24000000 	li	zero,0
  412d80:	02000012 	0x2000012
  412d84:	99000000 	lwr	zero,0(t0)
  412d88:	bc064000 	cache	0x6,16384(zero)
  412d8c:	80000000 	lb	zero,0(zero)
  412d90:	02000012 	0x2000012
  412d94:	a3000000 	sb	zero,0(t8)
  412d98:	00000010 	mfhi	zero
  412d9c:	00000000 	nop
  412da0:	f1ff0010 	0xf1ff0010
  412da4:	aa000000 	swl	zero,0(s0)
  412da8:	00000010 	mfhi	zero
  412dac:	00000000 	nop
  412db0:	f1ff0010 	0xf1ff0010
  412db4:	af000000 	sw	zero,0(t8)
  412db8:	f4004000 	sdc1	$f0,16384(zero)
  412dbc:	14000000 	bnez	zero,412dc0 <binary_user_A_start+0x13e4>
  412dc0:	02000012 	0x2000012
  412dc4:	b4000000 	0xb4000000
  412dc8:	00000010 	mfhi	zero
  412dcc:	00000000 	nop
  412dd0:	f1ff0010 	0xf1ff0010
  412dd4:	2e6e6900 	sltiu	t6,s3,26880
  412dd8:	6f630063 	0x6f630063
  412ddc:	6c6f736e 	0x6c6f736e
  412de0:	00632e65 	0x632e65
  412de4:	6e697270 	0x6e697270
  412de8:	00632e74 	teq	v1,v1,0xb9
  412dec:	46656874 	c1	0x656874
  412df0:	6c617461 	0x6c617461
  412df4:	0067734d 	break	0x67,0x1cd
  412df8:	6e697270 	0x6e697270
  412dfc:	632e6674 	0x632e6674
  412e00:	6f796d00 	0x6f796d00
  412e04:	75707475 	jalx	5c1d1d4 <_end+0x57f73c0>
  412e08:	706c0074 	0x706c0074
  412e0c:	6972505f 	0x6972505f
  412e10:	5f00746e 	bgtzl	t8,42ffcc <_end+0xa1b8>
  412e14:	696e6170 	0x696e6170
  412e18:	72700063 	0x72700063
  412e1c:	73746e69 	0x73746e69
  412e20:	70007274 	0x70007274
  412e24:	746e6972 	jalx	1b9a5c8 <_end+0x17747b4>
  412e28:	665f0066 	0x665f0066
  412e2c:	61746164 	0x61746164
  412e30:	70675f00 	0x70675f00
  412e34:	69725000 	0x69725000
  412e38:	754e746e 	jalx	539d1b8 <_end+0x4f773a4>
  412e3c:	7270006d 	0x7270006d
  412e40:	63746e69 	0x63746e69
  412e44:	63726168 	0x63726168
  412e48:	74665f00 	jalx	1997c00 <_end+0x1571dec>
  412e4c:	00747865 	0x747865
  412e50:	6e697250 	0x6e697250
  412e54:	72745374 	0x72745374
  412e58:	00676e69 	0x676e69
  412e5c:	73625f5f 	udi15	k1,v0,t3,0x1d
  412e60:	74735f73 	jalx	1cd7dcc <_end+0x18b1fb8>
  412e64:	00747261 	0x747261
  412e68:	6e69616d 	0x6e69616d
  412e6c:	69725000 	0x69725000
  412e70:	6843746e 	0x6843746e
  412e74:	5f007261 	bgtzl	t8,42f7fc <_end+0x99e8>
  412e78:	74616465 	jalx	1859194 <_end+0x1433380>
  412e7c:	655f0061 	0x655f0061
  412e80:	6800646e 	0x6800646e
  412e84:	00746c61 	0x746c61
  412e88:	7362665f 	udi15	k1,v0,t4,0x19
  412e8c:	00000073 	tltu	zero,zero,0x1

00412e90 <binary_user_B_size>:
  412e90:	000014b2 	tlt	zero,zero,0x52

00412e94 <binary_user_B_start>:
  412e94:	464c457f 	c1	0x4c457f
  412e98:	00010201 	0x10201
	...
  412ea4:	08000200 	j	800 <__tlb_stride_length+0x7ff>
  412ea8:	01000000 	0x1000000
  412eac:	b0004000 	0xb0004000
  412eb0:	34000000 	li	zero,0x0
  412eb4:	b00f0000 	0xb00f0000
  412eb8:	01100050 	0x1100050
  412ebc:	20003400 	addi	zero,zero,13312
  412ec0:	28000300 	slti	zero,zero,768
  412ec4:	0a000d00 	j	8003400 <_end+0x7bdd5ec>
  412ec8:	00000070 	tge	zero,zero,0x1
  412ecc:	94000000 	lhu	zero,0(zero)
  412ed0:	94004000 	lhu	zero,16384(zero)
  412ed4:	94004000 	lhu	zero,16384(zero)
  412ed8:	18000000 	blez	zero,412edc <binary_user_B_start+0x48>
  412edc:	18000000 	blez	zero,412ee0 <binary_user_B_start+0x4c>
  412ee0:	04000000 	bltz	zero,412ee4 <binary_user_B_start+0x50>
  412ee4:	04000000 	bltz	zero,412ee8 <binary_user_B_start+0x54>
  412ee8:	01000000 	0x1000000
  412eec:	94000000 	lhu	zero,0(zero)
  412ef0:	94004000 	lhu	zero,16384(zero)
  412ef4:	94004000 	lhu	zero,16384(zero)
  412ef8:	b20c0000 	0xb20c0000
  412efc:	b20c0000 	0xb20c0000
  412f00:	05000000 	bltz	t0,412f04 <binary_user_B_start+0x70>
  412f04:	10000000 	b	412f08 <binary_user_B_start+0x74>
  412f08:	01000000 	0x1000000
  412f0c:	500d0000 	beql	zero,t5,412f10 <binary_user_B_start+0x7c>
  412f10:	00000010 	mfhi	zero
  412f14:	00000010 	mfhi	zero
	...
  412f20:	06000000 	bltz	s0,412f24 <binary_user_B_start+0x90>
  412f24:	10000000 	b	412f28 <binary_user_B_start+0x94>
  412f28:	300001a0 	andi	zero,zero,0x1a0
	...
  412f3c:	f07f0010 	0xf07f0010
  412f40:	00000000 	nop
  412f44:	e8ffbd27 	swc2	$31,-17113(a3)
  412f48:	1400bfaf 	bnez	zero,402e08 <spawnl+0xc>
  412f4c:	1000b0af 	b	3ff20c <__tlb_stride_length+0x3ff20b>
  412f50:	4000103c 	0x4000103c
  412f54:	100b0426 	beq	zero,t3,413ff0 <binary_user_B_start+0x115c>
  412f58:	9902100c 	lwr	v0,4108(t0)
  412f5c:	02000524 	0x2000524
  412f60:	fdff0010 	sdc3	$31,16(t7)
  412f64:	100b0426 	beq	zero,t3,414000 <binary_user_B_start+0x116c>
  412f68:	00000000 	nop
	...
  412f74:	ff008430 	sdc3	$0,-31696(t8)
  412f78:	0090023c 	0x90023c
  412f7c:	000044a0 	0x44a0
  412f80:	0800e003 	j	3800c <__tlb_stride_length+0x3800b>
  412f84:	00000000 	nop
  412f88:	0090023c 	0x90023c
  412f8c:	10004234 	b	423860 <__bss_start+0x6124>
  412f90:	000040a0 	0x40a0
  412f94:	0800e003 	j	3800c <__tlb_stride_length+0x3800b>
  412f98:	00000000 	nop
  412f9c:	e8ffbd27 	swc2	$31,-17113(a3)
  412fa0:	1400bfaf 	bnez	zero,402e60 <cons_write>
  412fa4:	1000b0af 	b	3ff264 <__tlb_stride_length+0x3ff263>
  412fa8:	21808000 	addi	zero,t4,-32768
  412fac:	00008480 	sll	s0,zero,0x12
  412fb0:	06008010 	bltz	s0,3f2ff4 <__tlb_stride_length+0x3f2ff3>
  412fb4:	1400bf8f 	bnez	zero,402df4 <spawn+0x20c>
  412fb8:	3800100c 	xori	zero,zero,0x100c
  412fbc:	01001026 	xor	v0,t0,zero
  412fc0:	00000482 	srl	zero,zero,0x12
  412fc4:	fcff8014 	sdc3	$31,-32748(a3)
  412fc8:	1400bf8f 	bnez	zero,402e08 <spawnl+0xc>
  412fcc:	1000b08f 	b	3ff20c <__tlb_stride_length+0x3ff20b>
  412fd0:	0800e003 	j	3800c <__tlb_stride_length+0x3800b>
  412fd4:	1800bd27 	blez	zero,402474 <pipeisclosed+0x30>
  412fd8:	00000000 	nop
	...
  412fe4:	78ffbd27 	st.d	$w20,2040(s7)
  412fe8:	8400bfaf 	lh	zero,-16465(zero)
  412fec:	8000b4af 	lb	zero,-19281(zero)
  412ff0:	7c00b3af 	lwe	zero,-153(zero)
  412ff4:	7800b2af 	0x7800b2af
  412ff8:	7400b1af 	jalx	2c6bc <__tlb_stride_length+0x2c6bb>
  412ffc:	7000b0af 	0x7000b0af
  413000:	21988000 	addi	t8,t4,-32768
  413004:	21a0a000 	addi	zero,t5,-24576
  413008:	2128c000 	addi	t0,t1,-16384
  41300c:	2190e000 	addi	s0,t4,-8192
  413010:	0000a380 	sll	s4,zero,0xe
  413014:	0c006010 	jal	18040 <__tlb_stride_length+0x1803f>
  413018:	2180a000 	addi	zero,t4,-24576
  41301c:	48010010 	0x48010010
  413020:	25000224 	addiu	zero,t0,548
  413024:	2180a000 	addi	zero,t4,-24576
  413028:	01001026 	xor	v0,t0,zero
  41302c:	00000282 	srl	zero,zero,0xa
  413030:	06004010 	bltz	s0,423074 <__bss_start+0x5938>
  413034:	23300502 	addi	s0,t9,1282
  413038:	05004310 	bltz	t0,423c7c <__bss_start+0x6540>
  41303c:	5100c22c 	beqzl	t0,4038f0 <env_run+0x38>
  413040:	faff0010 	sdc2	$31,16(s7)
  413044:	01001026 	xor	v0,t0,zero
  413048:	23300502 	addi	s0,t9,1282
  41304c:	5100c22c 	beqzl	t0,403900 <env_run+0x48>
  413050:	07004014 	bltz	t8,4230a4 <__bss_start+0x5968>
  413054:	21208002 	addi	zero,t1,-32766
  413058:	4000053c 	0x4000053c
  41305c:	200ba524 	addi	t3,zero,-23260
  413060:	09f86002 	j	7e18008 <_end+0x79f21f4>
  413064:	18000624 	blez	zero,4148f8 <binary_user_idle_start+0x5b0>
  413068:	ffff0010 	sdc3	$31,16(ra)
  41306c:	00000000 	nop
  413070:	09f86002 	j	7e18008 <_end+0x79f21f4>
  413074:	21208002 	addi	zero,t1,-32766
  413078:	00000282 	srl	zero,zero,0xa
  41307c:	23014010 	addi	at,t8,16400
  413080:	6c000224 	0x6c000224
  413084:	01000382 	0x1000382
  413088:	03006210 	0x3006210
  41308c:	01001126 	0x1001126
  413090:	03000010 	0x3000010
  413094:	21200000 	addi	zero,t1,0
  413098:	02001126 	0x2001126
  41309c:	01000424 	0x1000424
  4130a0:	00002382 	srl	a0,zero,0xe
  4130a4:	2d000224 	sltiu	zero,t0,548
  4130a8:	04006214 	bltz	zero,42b8fc <_end+0x5ae8>
  4130ac:	21380000 	addi	t8,t1,0
  4130b0:	01003126 	0x1003126
  4130b4:	01000724 	0x1000724
  4130b8:	00002382 	srl	a0,zero,0xe
  4130bc:	30000224 	andi	zero,zero,0x224
  4130c0:	03006214 	0x3006214
  4130c4:	20000924 	addi	zero,zero,2340
  4130c8:	01003126 	0x1003126
  4130cc:	30000924 	andi	zero,zero,0x924
  4130d0:	00002682 	srl	a0,zero,0x1a
  4130d4:	d0ffc224 	0xd0ffc224
  4130d8:	ff004230 	sdc3	$0,16944(t8)
  4130dc:	0a00422c 	j	80108b0 <_end+0x7beaa9c>
  4130e0:	0d004010 	jal	4010040 <_end+0x3bea22c>
  4130e4:	21400000 	addi	zero,t2,0
  4130e8:	40100800 	mfc0	s0,c0_random
  4130ec:	c0180800 	ll	t8,2048(zero)
  4130f0:	21104300 	addi	s0,t0,17152
  4130f4:	21104600 	addi	s0,t0,17920
  4130f8:	d0ff4824 	0xd0ff4824
  4130fc:	01003126 	0x1003126
  413100:	00002682 	srl	a0,zero,0x1a
  413104:	d0ffc224 	0xd0ffc224
  413108:	ff004230 	sdc3	$0,16944(t8)
  41310c:	0a00422c 	j	80108b0 <_end+0x7beaa9c>
  413110:	f6ff4014 	sdc1	$f31,16404(s7)
  413114:	40100800 	mfc0	s0,c0_random
  413118:	00002382 	srl	a0,zero,0xe
  41311c:	2e000224 	sltiu	zero,s0,548
  413120:	11006214 	beqz	t0,42b974 <_end+0x5b60>
  413124:	7900622c 	0x7900622c
  413128:	01003126 	0x1003126
  41312c:	00002292 	0x2292
  413130:	d0ff4224 	0xd0ff4224
  413134:	ff004230 	sdc3	$0,16944(t8)
  413138:	0a00422c 	j	80108b0 <_end+0x7beaa9c>
  41313c:	08004010 	j	10040 <__tlb_stride_length+0x1003f>
  413140:	00000000 	nop
  413144:	01003126 	0x1003126
  413148:	00002292 	0x2292
  41314c:	d0ff4224 	0xd0ff4224
  413150:	ff004230 	sdc3	$0,16944(t8)
  413154:	0a00422c 	j	80108b0 <_end+0x7beaa9c>
  413158:	faff4014 	sdc2	$31,16404(s7)
  41315c:	00000000 	nop
  413160:	00002382 	srl	a0,zero,0xe
  413164:	7900622c 	0x7900622c
  413168:	e2004010 	sc	zero,16400(s0)
  41316c:	80100300 	lb	s0,768(zero)
  413170:	4000033c 	0x4000033c
  413174:	400b6324 	0x400b6324
  413178:	21104300 	addi	s0,t0,17152
  41317c:	0000428c 	syscall	0x10a
  413180:	08004000 	j	10000 <__tlb_stride_length+0xffff>
  413184:	00000000 	nop
  413188:	04008010 	bltz	zero,3f31cc <__tlb_stride_length+0x3f31cb>
  41318c:	00000000 	nop
  413190:	0000458e 	0x458e
  413194:	03000010 	0x3000010
  413198:	04005226 	bltz	zero,427a34 <_end+0x1c20>
  41319c:	0000458e 	0x458e
  4131a0:	04005226 	bltz	zero,427a3c <_end+0x1c28>
  4131a4:	1000a8af 	b	3fd464 <__tlb_stride_length+0x3fd463>
  4131a8:	1400a7af 	bnez	zero,3fd068 <__tlb_stride_length+0x3fd067>
  4131ac:	1800a9af 	blez	zero,3fd86c <__tlb_stride_length+0x3fd86b>
  4131b0:	1c00a0af 	bgtz	zero,3fb470 <__tlb_stride_length+0x3fb46f>
  4131b4:	2000a427 	addi	zero,zero,-23513
  4131b8:	02000624 	0x2000624
  4131bc:	1102100c 	beq	t0,v0,4171f0 <binary_user_idle_start+0x2ea8>
  4131c0:	21380000 	addi	t8,t1,0
  4131c4:	21304000 	addi	s0,t1,16384
  4131c8:	5100422c 	beqzl	t0,423a7c <__bss_start+0x6340>
  4131cc:	07004014 	bltz	t8,423220 <__bss_start+0x5ae4>
  4131d0:	21208002 	addi	zero,t1,-32766
  4131d4:	4000053c 	0x4000053c
  4131d8:	200ba524 	addi	t3,zero,-23260
  4131dc:	09f86002 	j	7e18008 <_end+0x79f21f4>
  4131e0:	18000624 	blez	zero,414a74 <binary_user_idle_start+0x72c>
  4131e4:	ffff0010 	sdc3	$31,16(ra)
  4131e8:	00000000 	nop
  4131ec:	09f86002 	j	7e18008 <_end+0x79f21f4>
  4131f0:	2000a527 	addi	zero,zero,-23257
  4131f4:	86ff0010 	lh	ra,16(s7)
  4131f8:	01002526 	0x1002526
  4131fc:	04008010 	bltz	zero,3f3240 <__tlb_stride_length+0x3f323f>
  413200:	00000000 	nop
  413204:	0000458e 	0x458e
  413208:	03000010 	0x3000010
  41320c:	04005226 	bltz	zero,427aa8 <_end+0x1c94>
  413210:	0000458e 	0x458e
  413214:	04005226 	bltz	zero,427ab0 <_end+0x1c9c>
  413218:	0300a104 	0x300a104
  41321c:	21100000 	addi	s0,t0,0
  413220:	23280500 	addi	t0,t9,1280
  413224:	01000224 	0x1000224
  413228:	1000a8af 	b	3fd4e8 <__tlb_stride_length+0x3fd4e7>
  41322c:	1400a7af 	bnez	zero,3fd0ec <__tlb_stride_length+0x3fd0eb>
  413230:	1800a9af 	blez	zero,3fd8f0 <__tlb_stride_length+0x3fd8ef>
  413234:	1c00a0af 	bgtz	zero,3fb4f4 <__tlb_stride_length+0x3fb4f3>
  413238:	2000a427 	addi	zero,zero,-23513
  41323c:	0a000624 	j	8001890 <_end+0x7bdba7c>
  413240:	1102100c 	beq	t0,v0,417274 <binary_user_idle_start+0x2f2c>
  413244:	21384000 	addi	t8,t1,16384
  413248:	21304000 	addi	s0,t1,16384
  41324c:	5100422c 	beqzl	t0,423b00 <__bss_start+0x63c4>
  413250:	07004014 	bltz	t8,4232a4 <__bss_start+0x5b68>
  413254:	21208002 	addi	zero,t1,-32766
  413258:	4000053c 	0x4000053c
  41325c:	200ba524 	addi	t3,zero,-23260
  413260:	09f86002 	j	7e18008 <_end+0x79f21f4>
  413264:	18000624 	blez	zero,414af8 <binary_user_idle_start+0x7b0>
  413268:	ffff0010 	sdc3	$31,16(ra)
  41326c:	00000000 	nop
  413270:	09f86002 	j	7e18008 <_end+0x79f21f4>
  413274:	2000a527 	addi	zero,zero,-23257
  413278:	65ff0010 	0x65ff0010
  41327c:	01002526 	0x1002526
  413280:	04008010 	bltz	zero,3f32c4 <__tlb_stride_length+0x3f32c3>
  413284:	00000000 	nop
  413288:	0000458e 	0x458e
  41328c:	03000010 	0x3000010
  413290:	04005226 	bltz	zero,427b2c <_end+0x1d18>
  413294:	0000458e 	0x458e
  413298:	04005226 	bltz	zero,427b34 <_end+0x1d20>
  41329c:	1000a8af 	b	3fd55c <__tlb_stride_length+0x3fd55b>
  4132a0:	1400a7af 	bnez	zero,3fd160 <__tlb_stride_length+0x3fd15f>
  4132a4:	1800a9af 	blez	zero,3fd964 <__tlb_stride_length+0x3fd963>
  4132a8:	1c00a0af 	bgtz	zero,3fb568 <__tlb_stride_length+0x3fb567>
  4132ac:	2000a427 	addi	zero,zero,-23513
  4132b0:	08000624 	j	1890 <__tlb_stride_length+0x188f>
  4132b4:	1102100c 	beq	t0,v0,4172e8 <binary_user_idle_start+0x2fa0>
  4132b8:	21380000 	addi	t8,t1,0
  4132bc:	21304000 	addi	s0,t1,16384
  4132c0:	5100422c 	beqzl	t0,423b74 <__bss_start+0x6438>
  4132c4:	07004014 	bltz	t8,423318 <__bss_start+0x5bdc>
  4132c8:	21208002 	addi	zero,t1,-32766
  4132cc:	4000053c 	0x4000053c
  4132d0:	200ba524 	addi	t3,zero,-23260
  4132d4:	09f86002 	j	7e18008 <_end+0x79f21f4>
  4132d8:	18000624 	blez	zero,414b6c <binary_user_idle_start+0x824>
  4132dc:	ffff0010 	sdc3	$31,16(ra)
  4132e0:	00000000 	nop
  4132e4:	09f86002 	j	7e18008 <_end+0x79f21f4>
  4132e8:	2000a527 	addi	zero,zero,-23257
  4132ec:	48ff0010 	mthc2	ra,0x10
  4132f0:	01002526 	0x1002526
  4132f4:	04008010 	bltz	zero,3f3338 <__tlb_stride_length+0x3f3337>
  4132f8:	00000000 	nop
  4132fc:	0000458e 	0x458e
  413300:	03000010 	0x3000010
  413304:	04005226 	bltz	zero,427ba0 <_end+0x1d8c>
  413308:	0000458e 	0x458e
  41330c:	04005226 	bltz	zero,427ba8 <_end+0x1d94>
  413310:	1000a8af 	b	3fd5d0 <__tlb_stride_length+0x3fd5cf>
  413314:	1400a7af 	bnez	zero,3fd1d4 <__tlb_stride_length+0x3fd1d3>
  413318:	1800a9af 	blez	zero,3fd9d8 <__tlb_stride_length+0x3fd9d7>
  41331c:	1c00a0af 	bgtz	zero,3fb5dc <__tlb_stride_length+0x3fb5db>
  413320:	2000a427 	addi	zero,zero,-23513
  413324:	0a000624 	j	8001890 <_end+0x7bdba7c>
  413328:	1102100c 	beq	t0,v0,41735c <binary_user_idle_start+0x3014>
  41332c:	21380000 	addi	t8,t1,0
  413330:	21304000 	addi	s0,t1,16384
  413334:	5100422c 	beqzl	t0,423be8 <__bss_start+0x64ac>
  413338:	07004014 	bltz	t8,42338c <__bss_start+0x5c50>
  41333c:	21208002 	addi	zero,t1,-32766
  413340:	4000053c 	0x4000053c
  413344:	200ba524 	addi	t3,zero,-23260
  413348:	09f86002 	j	7e18008 <_end+0x79f21f4>
  41334c:	18000624 	blez	zero,414be0 <binary_user_idle_start+0x898>
  413350:	ffff0010 	sdc3	$31,16(ra)
  413354:	00000000 	nop
  413358:	09f86002 	j	7e18008 <_end+0x79f21f4>
  41335c:	2000a527 	addi	zero,zero,-23257
  413360:	2bff0010 	slti	ra,ra,16
  413364:	01002526 	0x1002526
  413368:	04008010 	bltz	zero,3f33ac <__tlb_stride_length+0x3f33ab>
  41336c:	00000000 	nop
  413370:	0000458e 	0x458e
  413374:	03000010 	0x3000010
  413378:	04005226 	bltz	zero,427c14 <_end+0x1e00>
  41337c:	0000458e 	0x458e
  413380:	04005226 	bltz	zero,427c1c <_end+0x1e08>
  413384:	1000a8af 	b	3fd644 <__tlb_stride_length+0x3fd643>
  413388:	1400a7af 	bnez	zero,3fd248 <__tlb_stride_length+0x3fd247>
  41338c:	1800a9af 	blez	zero,3fda4c <__tlb_stride_length+0x3fda4b>
  413390:	1c00a0af 	bgtz	zero,3fb650 <__tlb_stride_length+0x3fb64f>
  413394:	2000a427 	addi	zero,zero,-23513
  413398:	10000624 	b	414c2c <binary_user_idle_start+0x8e4>
  41339c:	1102100c 	beq	t0,v0,4173d0 <binary_user_idle_start+0x3088>
  4133a0:	21380000 	addi	t8,t1,0
  4133a4:	21304000 	addi	s0,t1,16384
  4133a8:	5100422c 	beqzl	t0,423c5c <__bss_start+0x6520>
  4133ac:	07004014 	bltz	t8,423400 <__bss_start+0x5cc4>
  4133b0:	21208002 	addi	zero,t1,-32766
  4133b4:	4000053c 	0x4000053c
  4133b8:	200ba524 	addi	t3,zero,-23260
  4133bc:	09f86002 	j	7e18008 <_end+0x79f21f4>
  4133c0:	18000624 	blez	zero,414c54 <binary_user_idle_start+0x90c>
  4133c4:	ffff0010 	sdc3	$31,16(ra)
  4133c8:	00000000 	nop
  4133cc:	09f86002 	j	7e18008 <_end+0x79f21f4>
  4133d0:	2000a527 	addi	zero,zero,-23257
  4133d4:	0eff0010 	jal	bfc0040 <_end+0xbb9a22c>
  4133d8:	01002526 	0x1002526
  4133dc:	04008010 	bltz	zero,3f3420 <__tlb_stride_length+0x3f341f>
  4133e0:	00000000 	nop
  4133e4:	0000458e 	0x458e
  4133e8:	03000010 	0x3000010
  4133ec:	04005226 	bltz	zero,427c88 <_end+0x1e74>
  4133f0:	0000458e 	0x458e
  4133f4:	04005226 	bltz	zero,427c90 <_end+0x1e7c>
  4133f8:	1000a8af 	b	3fd6b8 <__tlb_stride_length+0x3fd6b7>
  4133fc:	1400a7af 	bnez	zero,3fd2bc <__tlb_stride_length+0x3fd2bb>
  413400:	1800a9af 	blez	zero,3fdac0 <__tlb_stride_length+0x3fdabf>
  413404:	01000224 	0x1000224
  413408:	1c00a2af 	bgtz	zero,3fbec8 <__tlb_stride_length+0x3fbec7>
  41340c:	2000a427 	addi	zero,zero,-23513
  413410:	10000624 	b	414ca4 <binary_user_idle_start+0x95c>
  413414:	1102100c 	beq	t0,v0,417448 <binary_user_idle_start+0x3100>
  413418:	21380000 	addi	t8,t1,0
  41341c:	21304000 	addi	s0,t1,16384
  413420:	5100422c 	beqzl	t0,423cd4 <__bss_start+0x6598>
  413424:	07004014 	bltz	t8,423478 <__bss_start+0x5d3c>
  413428:	21208002 	addi	zero,t1,-32766
  41342c:	4000053c 	0x4000053c
  413430:	200ba524 	addi	t3,zero,-23260
  413434:	09f86002 	j	7e18008 <_end+0x79f21f4>
  413438:	18000624 	blez	zero,414ccc <binary_user_idle_start+0x984>
  41343c:	ffff0010 	sdc3	$31,16(ra)
  413440:	00000000 	nop
  413444:	09f86002 	j	7e18008 <_end+0x79f21f4>
  413448:	2000a527 	addi	zero,zero,-23257
  41344c:	f0fe0010 	0xf0fe0010
  413450:	01002526 	0x1002526
  413454:	04005026 	bltz	zero,4274f0 <_end+0x16dc>
  413458:	2000a427 	addi	zero,zero,-23513
  41345c:	03004582 	0x3004582
  413460:	af01100c 	sw	at,4108(t8)
  413464:	21300001 	addi	s0,t1,1
  413468:	21304000 	addi	s0,t1,16384
  41346c:	5100422c 	beqzl	t0,423d20 <__bss_start+0x65e4>
  413470:	07004014 	bltz	t8,4234c4 <__bss_start+0x5d88>
  413474:	21208002 	addi	zero,t1,-32766
  413478:	4000053c 	0x4000053c
  41347c:	200ba524 	addi	t3,zero,-23260
  413480:	09f86002 	j	7e18008 <_end+0x79f21f4>
  413484:	18000624 	blez	zero,414d18 <binary_user_idle_start+0x9d0>
  413488:	ffff0010 	sdc3	$31,16(ra)
  41348c:	00000000 	nop
  413490:	09f86002 	j	7e18008 <_end+0x79f21f4>
  413494:	2000a527 	addi	zero,zero,-23257
  413498:	1a000010 	blez	s0,4134dc <binary_user_B_start+0x648>
  41349c:	21900002 	addi	s0,t4,2
  4134a0:	04005026 	bltz	zero,42753c <_end+0x1728>
  4134a4:	2000a427 	addi	zero,zero,-23513
  4134a8:	0000458e 	0x458e
  4134ac:	cf01100c 	pref	0x1,4108(t8)
  4134b0:	21300001 	addi	s0,t1,1
  4134b4:	21304000 	addi	s0,t1,16384
  4134b8:	5100422c 	beqzl	t0,423d6c <__bss_start+0x6630>
  4134bc:	07004014 	bltz	t8,423510 <__bss_start+0x5dd4>
  4134c0:	21208002 	addi	zero,t1,-32766
  4134c4:	4000053c 	0x4000053c
  4134c8:	200ba524 	addi	t3,zero,-23260
  4134cc:	09f86002 	j	7e18008 <_end+0x79f21f4>
  4134d0:	18000624 	blez	zero,414d64 <binary_user_idle_start+0xa1c>
  4134d4:	ffff0010 	sdc3	$31,16(ra)
  4134d8:	00000000 	nop
  4134dc:	09f86002 	j	7e18008 <_end+0x79f21f4>
  4134e0:	2000a527 	addi	zero,zero,-23257
  4134e4:	07000010 	bltz	t8,413528 <binary_user_B_start+0x694>
  4134e8:	21900002 	addi	s0,t4,2
  4134ec:	05000010 	bltz	t0,413530 <binary_user_B_start+0x69c>
  4134f0:	ffff3126 	sdc3	$31,12582(ra)
  4134f4:	21208002 	addi	zero,t1,-32766
  4134f8:	21282002 	addi	t0,t1,8194
  4134fc:	09f86002 	j	7e18008 <_end+0x79f21f4>
  413500:	01000624 	0x1000624
  413504:	c2fe0010 	ll	s8,16(s7)
  413508:	01002526 	0x1002526
  41350c:	21208002 	addi	zero,t1,-32766
  413510:	4000053c 	0x4000053c
  413514:	3c0ba524 	lui	t3,0xa524
  413518:	09f86002 	j	7e18008 <_end+0x79f21f4>
  41351c:	01000624 	0x1000624
  413520:	8400bf8f 	lh	zero,-16497(zero)
  413524:	8000b48f 	lb	zero,-19313(zero)
  413528:	7c00b38f 	0x7c00b38f
  41352c:	7800b28f 	ceq.b	$w10,$w22,$w0
  413530:	7400b18f 	jalx	2c63c <__tlb_stride_length+0x2c63b>
  413534:	7000b08f 	0x7000b08f
  413538:	0800e003 	j	3800c <__tlb_stride_length+0x3800b>
  41353c:	8800bd27 	lwl	zero,-17113(zero)
  413540:	b8fe6214 	swr	s8,25108(a3)
  413544:	25000324 	addiu	zero,t0,804
  413548:	bffe0010 	cache	0x1e,16(ra)
  41354c:	2180a000 	addi	zero,t4,-24576
  413550:	002e0500 	0x2e0500
  413554:	032e0500 	0x32e0500
  413558:	2a180600 	slti	t8,s0,1536
  41355c:	01000224 	0x1000224
  413560:	1500e010 	bnez	t0,40b5a4 <NOPAGE+0x10>
  413564:	0a304300 	j	8c10c00 <_end+0x87eadec>
  413568:	0200c228 	0x200c228
  41356c:	16004014 	bnez	s0,4235c0 <__bss_start+0x5e84>
  413570:	000085a0 	0x85a0
  413574:	01000324 	0x1000324
  413578:	20000524 	addi	zero,zero,1316
  41357c:	21108300 	addi	s0,t0,-32000
  413580:	01006324 	0x1006324
  413584:	1000c310 	b	4041c8 <PrintNum+0x120>
  413588:	000045a0 	0x45a0
  41358c:	fcff0010 	sdc3	$31,16(a3)
  413590:	21108300 	addi	s0,t0,-32000
  413594:	21180000 	addi	t8,t0,0
  413598:	20000824 	addi	zero,zero,2084
  41359c:	21106400 	addi	s0,t0,25600
  4135a0:	01006324 	0x1006324
  4135a4:	fdff6714 	sdc3	$31,26388(t7)
  4135a8:	000048a0 	0x48a0
  4135ac:	2110c400 	addi	s0,t0,-15360
  4135b0:	05000010 	bltz	t0,4135f4 <binary_user_B_start+0x760>
  4135b4:	ffff45a0 	sdc3	$31,17824(ra)
  4135b8:	ffffc724 	sdc3	$31,-14556(ra)
  4135bc:	f5ffe01c 	sdc1	$f31,-8164(t7)
  4135c0:	2110c400 	addi	s0,t0,-15360
  4135c4:	ffff45a0 	sdc3	$31,17824(ra)
  4135c8:	0800e003 	j	3800c <__tlb_stride_length+0x3800b>
  4135cc:	2110c000 	addi	s0,t0,-16384
  4135d0:	0000a280 	sll	s4,zero,0xa
  4135d4:	03004014 	0x3004014
  4135d8:	0100a324 	0x100a324
  4135dc:	06000010 	bltz	s0,413620 <binary_user_B_start+0x78c>
  4135e0:	21400000 	addi	zero,t2,0
  4135e4:	21400000 	addi	zero,t2,0
  4135e8:	01000825 	move	at,t0
  4135ec:	00006280 	sll	t4,zero,0xa
  4135f0:	fdff4014 	sdc3	$31,16404(t7)
  4135f4:	01006324 	0x1006324
  4135f8:	2a10c800 	slti	s0,s0,-14336
  4135fc:	3000e014 	andi	zero,zero,0xe014
  413600:	0b300201 	j	cc00804 <_end+0xc7da9f0>
  413604:	2a000010 	slti	zero,s0,16
  413608:	2338c800 	addi	t8,t9,-14336
  41360c:	21380000 	addi	t8,t1,0
  413610:	21108700 	addi	s0,t0,-30976
  413614:	2118a700 	addi	t8,t0,-22784
  413618:	00006390 	0x6390
  41361c:	0100e724 	0x100e724
  413620:	fbff0715 	sdc2	$31,1813(ra)
  413624:	000043a0 	0x43a0
  413628:	2a100601 	slti	s0,s0,1537
  41362c:	28004010 	slti	zero,zero,16400
  413630:	21180000 	addi	t8,t0,0
  413634:	21108800 	addi	s0,t0,-30720
  413638:	20000524 	addi	zero,zero,1316
  41363c:	2320c800 	addi	zero,t9,-14336
  413640:	000045a0 	0x45a0
  413644:	01006324 	0x1006324
  413648:	21006410 	addi	zero,t0,25616
  41364c:	01004224 	0x1004224
  413650:	fcff0010 	sdc3	$31,16(a3)
  413654:	000045a0 	0x45a0
  413658:	21180000 	addi	t8,t0,0
  41365c:	20000924 	addi	zero,zero,2340
  413660:	21108300 	addi	s0,t0,-32000
  413664:	01006324 	0x1006324
  413668:	fdff6714 	sdc3	$31,26388(t7)
  41366c:	000049a0 	0x49a0
  413670:	2a10e600 	slti	s0,s0,-6656
  413674:	16004010 	bnez	s0,4236b8 <__bss_start+0x5f7c>
  413678:	21208700 	addi	zero,t1,-30976
  41367c:	2310e600 	addi	s0,t8,-6656
  413680:	21100201 	addi	s0,t0,513
  413684:	2118a200 	addi	t8,t0,-24064
  413688:	21280000 	addi	t0,t1,0
  41368c:	2338c700 	addi	t8,t9,-14592
  413690:	00006290 	0x6290
  413694:	000082a0 	0x82a0
  413698:	0100a524 	0x100a524
  41369c:	01006324 	0x1006324
  4136a0:	0b00a710 	j	c029c40 <_end+0xbc03e2c>
  4136a4:	01008424 	0x1008424
  4136a8:	faff0010 	sdc2	$31,16(s7)
  4136ac:	00006290 	0x6290
  4136b0:	e9ffe01c 	swc2	$31,-8164(t7)
  4136b4:	2a10e600 	slti	s0,s0,-6656
  4136b8:	eeff0010 	swc3	$31,16(s7)
  4136bc:	00000000 	nop
  4136c0:	d2ff001d 	0xd2ff001d
  4136c4:	2a100601 	slti	s0,s0,1537
  4136c8:	d8ff0010 	ldc2	$31,16(a3)
  4136cc:	00000000 	nop
  4136d0:	0800e003 	j	3800c <__tlb_stride_length+0x3800b>
  4136d4:	2110c000 	addi	s0,t0,-16384
  4136d8:	1000a98f 	b	3fdd18 <__tlb_stride_length+0x3fdd17>
  4136dc:	1400ac8f 	bnez	zero,3fe91c <__tlb_stride_length+0x3fe91b>
  4136e0:	1c00ab8f 	bgtz	zero,3fe520 <__tlb_stride_length+0x3fe51f>
  4136e4:	1b00aa83 	blez	t8,3fe0f4 <__tlb_stride_length+0x3fe0f3>
  4136e8:	21408000 	addi	zero,t2,-32768
  4136ec:	1b00a600 	blez	t8,3fcef0 <__tlb_stride_length+0x3fceef>
  4136f0:	f401c000 	sdc1	$f1,-16384(zero)
  4136f4:	10180000 	beq	zero,t8,4136f8 <binary_user_B_start+0x864>
  4136f8:	0a006228 	j	80188a0 <_end+0x7bf2a8c>
  4136fc:	04004010 	bltz	zero,423740 <__bss_start+0x6004>
  413700:	30006224 	andi	zero,zero,0x6224
  413704:	000002a1 	0x2a1
  413708:	0b000010 	j	c000040 <_end+0xbbda22c>
  41370c:	01000825 	move	at,t0
  413710:	05006011 	bltz	t0,42b758 <_end+0x5944>
  413714:	57006224 	bnezl	t8,42bfa8 <_end+0x6194>
  413718:	37006224 	ori	zero,t8,0x6224
  41371c:	000002a1 	0x2a1
  413720:	03000010 	0x3000010
  413724:	01000825 	move	at,t0
  413728:	000002a1 	0x2a1
  41372c:	01000825 	move	at,t0
  413730:	1b00a600 	blez	t8,3fcf34 <__tlb_stride_length+0x3fcf33>
  413734:	f401c000 	sdc1	$f1,-16384(zero)
  413738:	12280000 	beq	s1,t0,41373c <binary_user_B_start+0x8a8>
  41373c:	ebffa014 	swc2	$31,-24556(ra)
  413740:	00000000 	nop
  413744:	0500e010 	bltz	t0,40b788 <handle_tlb+0x68>
  413748:	23300401 	addi	s0,t9,1025
  41374c:	2d000224 	sltiu	zero,t0,548
  413750:	000002a1 	0x2a1
  413754:	01000825 	move	at,t0
  413758:	23300401 	addi	s0,t9,1025
  41375c:	2a102601 	slti	s0,s0,9729
  413760:	0b48c200 	j	d230800 <_end+0xce0a9ec>
  413764:	20000224 	addi	zero,zero,548
  413768:	3200e010 	andi	zero,s0,0xe010
  41376c:	0b504c00 	j	d413000 <_end+0xcfed1ec>
  413770:	31008015 	andi	zero,t0,0x8015
  413774:	2a10c900 	slti	s0,s0,-14080
  413778:	30000224 	andi	zero,zero,0x224
  41377c:	2e004215 	sltiu	zero,s0,16917
  413780:	2a10c900 	slti	s0,s0,-14080
  413784:	ffffc624 	sdc3	$31,-14812(ra)
  413788:	ffff2825 	sdc3	$31,10277(ra)
  41378c:	2a10c800 	slti	s0,s0,-14336
  413790:	08004010 	j	10040 <__tlb_stride_length+0x1003f>
  413794:	23100601 	addi	s0,t8,1537
  413798:	21188600 	addi	t8,t0,-31232
  41379c:	21280000 	addi	t0,t1,0
  4137a0:	30000724 	andi	zero,zero,0x724
  4137a4:	000067a0 	0x67a0
  4137a8:	0100a524 	0x100a524
  4137ac:	fdffa214 	sdc3	$31,-24044(t7)
  4137b0:	01006324 	0x1006324
  4137b4:	21188900 	addi	t8,t0,-30464
  4137b8:	2d000224 	sltiu	zero,t0,548
  4137bc:	0d000010 	jal	4000040 <_end+0x3bda22c>
  4137c0:	ffff62a0 	sdc3	$31,25248(ra)
  4137c4:	0000aaa0 	0xaaa0
  4137c8:	01006324 	0x1006324
  4137cc:	23102601 	addi	s0,t8,9729
  4137d0:	fcff6214 	sdc3	$31,25108(a3)
  4137d4:	0100a524 	0x100a524
  4137d8:	06008011 	bltz	s0,3f3820 <__tlb_stride_length+0x3f381f>
  4137dc:	00000000 	nop
  4137e0:	ffffc624 	sdc3	$31,-14812(ra)
  4137e4:	0500c01c 	bltz	t0,403858 <env_destroy+0x14>
  4137e8:	21380000 	addi	t8,t1,0
  4137ec:	0800e003 	j	3800c <__tlb_stride_length+0x3800b>
  4137f0:	21102001 	addi	s0,t0,8193
  4137f4:	fbff0010 	sdc2	$31,16(ra)
  4137f8:	ffff2625 	sdc3	$31,9765(ra)
  4137fc:	21288000 	addi	t0,t1,-32768
  413800:	21208600 	addi	zero,t1,-31232
  413804:	0000a280 	sll	s4,zero,0xa
  413808:	00008390 	0x8390
  41380c:	0000a3a0 	0xa3a0
  413810:	000082a0 	0x82a0
  413814:	0100e724 	0x100e724
  413818:	ffffc624 	sdc3	$31,-14812(ra)
  41381c:	0100a524 	0x100a524
  413820:	2a10e600 	slti	s0,s0,-6656
  413824:	09004010 	j	4010040 <_end+0x3bea22c>
  413828:	ffff8424 	sdc3	$31,-31708(ra)
  41382c:	f6ff0010 	sdc1	$f31,16(s7)
  413830:	0000a280 	sll	s4,zero,0xa
  413834:	2a10c900 	slti	s0,s0,-14080
  413838:	e7ff4010 	swc1	$f31,16400(ra)
  41383c:	00000000 	nop
  413840:	21288600 	addi	t0,t1,-31232
  413844:	dfff0010 	ldc3	$31,16(ra)
  413848:	21180000 	addi	t8,t0,0
  41384c:	21102001 	addi	s0,t0,8193
  413850:	0800e003 	j	3800c <__tlb_stride_length+0x3800b>
  413854:	00000000 	nop
	...
  413864:	e0ffbd27 	sc	ra,-17113(a3)
  413868:	1c00bfaf 	bgtz	zero,403728 <env_free+0xa0>
  41386c:	1800b2af 	blez	zero,40032c <user_PrintNum>
  413870:	1400b1af 	bnez	zero,3fff30 <__tlb_stride_length+0x3fff2f>
  413874:	1000b0af 	b	3ffb34 <__tlb_stride_length+0x3ffb33>
  413878:	01000224 	0x1000224
  41387c:	1300c214 	beqz	t8,4040d0 <PrintNum+0x28>
  413880:	2190c000 	addi	s0,t4,-16384
  413884:	0000a280 	sll	s4,zero,0xa
  413888:	13004014 	beqz	t8,4238dc <__bss_start+0x61a0>
  41388c:	2180a000 	addi	zero,t4,-24576
  413890:	14000010 	bnez	zero,4138d4 <binary_user_B_start+0xa40>
  413894:	1c00bf8f 	bgtz	zero,4036d4 <env_free+0x4c>
  413898:	3800100c 	xori	zero,zero,0x100c
  41389c:	00000482 	srl	zero,zero,0x12
  4138a0:	00000382 	srl	zero,zero,0xe
  4138a4:	0a000224 	j	8000890 <_end+0x7bdaa7c>
  4138a8:	03006214 	0x3006214
  4138ac:	00000000 	nop
  4138b0:	3800100c 	xori	zero,zero,0x100c
  4138b4:	0a000424 	j	8001090 <_end+0x7bdb27c>
  4138b8:	01003126 	0x1003126
  4138bc:	08005112 	j	14448 <__tlb_stride_length+0x14447>
  4138c0:	01001026 	xor	v0,t0,zero
  4138c4:	f4ff0010 	sdc1	$f31,16(a3)
  4138c8:	00000000 	nop
  4138cc:	0500c018 	bltz	t0,403930 <env_run+0x78>
  4138d0:	1c00bf8f 	bgtz	zero,403710 <env_free+0x88>
  4138d4:	2180a000 	addi	zero,t4,-24576
  4138d8:	efff0010 	swc3	$31,16(ra)
  4138dc:	21880000 	addi	t0,t4,0
  4138e0:	1c00bf8f 	bgtz	zero,403720 <env_free+0x98>
  4138e4:	1800b28f 	blez	zero,400324 <user_PrintString+0x108>
  4138e8:	1400b18f 	bnez	zero,3fff28 <__tlb_stride_length+0x3fff27>
  4138ec:	1000b08f 	b	3ffb2c <__tlb_stride_length+0x3ffb2b>
  4138f0:	0800e003 	j	3800c <__tlb_stride_length+0x3800b>
  4138f4:	2000bd27 	addi	zero,zero,-17113
  4138f8:	e0ffbd27 	sc	ra,-17113(a3)
  4138fc:	1800bfaf 	blez	zero,4037bc <env_free+0x134>
  413900:	2400a5af 	li	zero,-23121
  413904:	2800a6af 	slti	zero,zero,-22865
  413908:	2c00a7af 	sltiu	zero,zero,-22609
  41390c:	21308000 	addi	s0,t1,-32768
  413910:	2400a727 	li	zero,-22745
  413914:	1000a7af 	b	3fd7d4 <__tlb_stride_length+0x3fd7d3>
  413918:	4000043c 	0x4000043c
  41391c:	d0098424 	0xd0098424
  413920:	5400100c 	bnezl	zero,417954 <opentab+0x32c>
  413924:	21280000 	addi	t0,t1,0
  413928:	1800bf8f 	blez	zero,403768 <env_free+0xe0>
  41392c:	0800e003 	j	3800c <__tlb_stride_length+0x3800b>
  413930:	2000bd27 	addi	zero,zero,-17113
  413934:	e0ffbd27 	sc	ra,-17113(a3)
  413938:	1c00bfaf 	bgtz	zero,4037f8 <env_free+0x170>
  41393c:	1800b0af 	blez	zero,3ffbfc <__tlb_stride_length+0x3ffbfb>
  413940:	21188000 	addi	t8,t0,-32768
  413944:	2140a000 	addi	zero,t2,-24576
  413948:	2c00a7af 	sltiu	zero,zero,-22609
  41394c:	2180c000 	addi	zero,t4,-16384
  413950:	2c00a227 	sltiu	zero,zero,-24025
  413954:	1000a2af 	b	3fc414 <__tlb_stride_length+0x3fc413>
  413958:	4000043c 	0x4000043c
  41395c:	300d8424 	andi	t5,zero,0x8424
  413960:	21286000 	addi	t0,t1,24576
  413964:	9902100c 	lwr	v0,4108(t0)
  413968:	21300001 	addi	s0,t1,1
  41396c:	4000043c 	0x4000043c
  413970:	d0098424 	0xd0098424
  413974:	21280000 	addi	t0,t1,0
  413978:	21300002 	addi	s0,t1,2
  41397c:	5400100c 	bnezl	zero,4179b0 <opentab+0x388>
  413980:	1000a78f 	b	3fd7c0 <__tlb_stride_length+0x3fd7bf>
  413984:	4000043c 	0x4000043c
  413988:	9902100c 	lwr	v0,4108(t0)
  41398c:	440d8424 	0x440d8424
  413990:	ffff0010 	sdc3	$31,16(ra)
	...
  4139a4:	00206425 	0x206425
	...
  4139b4:	61746166 	0x61746166
  4139b8:	7265206c 	0x7265206c
  4139bc:	20726f72 	addi	s2,v1,28530
  4139c0:	6c206e69 	0x6c206e69
  4139c4:	72505f70 	0x72505f70
  4139c8:	21746e69 	addi	s4,t3,28265
	...
  4139d4:	58064000 	0x58064000
  4139d8:	60064000 	0x60064000
  4139dc:	60064000 	0x60064000
  4139e0:	60064000 	0x60064000
  4139e4:	60064000 	0x60064000
  4139e8:	60064000 	0x60064000
  4139ec:	60064000 	0x60064000
  4139f0:	60064000 	0x60064000
  4139f4:	60064000 	0x60064000
  4139f8:	60064000 	0x60064000
  4139fc:	60064000 	0x60064000
  413a00:	60064000 	0x60064000
  413a04:	60064000 	0x60064000
  413a08:	60064000 	0x60064000
  413a0c:	60064000 	0x60064000
  413a10:	60064000 	0x60064000
  413a14:	60064000 	0x60064000
  413a18:	60064000 	0x60064000
  413a1c:	60064000 	0x60064000
  413a20:	60064000 	0x60064000
  413a24:	60064000 	0x60064000
  413a28:	60064000 	0x60064000
  413a2c:	60064000 	0x60064000
  413a30:	60064000 	0x60064000
  413a34:	60064000 	0x60064000
  413a38:	60064000 	0x60064000
  413a3c:	60064000 	0x60064000
  413a40:	60064000 	0x60064000
  413a44:	60064000 	0x60064000
  413a48:	60064000 	0x60064000
  413a4c:	60064000 	0x60064000
  413a50:	60064000 	0x60064000
  413a54:	60064000 	0x60064000
  413a58:	60064000 	0x60064000
  413a5c:	60064000 	0x60064000
  413a60:	60064000 	0x60064000
  413a64:	60064000 	0x60064000
  413a68:	60064000 	0x60064000
  413a6c:	60064000 	0x60064000
  413a70:	60064000 	0x60064000
  413a74:	60064000 	0x60064000
  413a78:	60064000 	0x60064000
  413a7c:	60064000 	0x60064000
  413a80:	60064000 	0x60064000
  413a84:	60064000 	0x60064000
  413a88:	60064000 	0x60064000
  413a8c:	60064000 	0x60064000
  413a90:	60064000 	0x60064000
  413a94:	60064000 	0x60064000
  413a98:	60064000 	0x60064000
  413a9c:	60064000 	0x60064000
  413aa0:	60064000 	0x60064000
  413aa4:	60064000 	0x60064000
  413aa8:	60064000 	0x60064000
  413aac:	60064000 	0x60064000
  413ab0:	60064000 	0x60064000
  413ab4:	60064000 	0x60064000
  413ab8:	60064000 	0x60064000
  413abc:	60064000 	0x60064000
  413ac0:	60064000 	0x60064000
  413ac4:	60064000 	0x60064000
  413ac8:	60064000 	0x60064000
  413acc:	60064000 	0x60064000
  413ad0:	60064000 	0x60064000
  413ad4:	60064000 	0x60064000
  413ad8:	60064000 	0x60064000
  413adc:	60064000 	0x60064000
  413ae0:	60064000 	0x60064000
  413ae4:	68034000 	0x68034000
  413ae8:	60064000 	0x60064000
  413aec:	60064000 	0x60064000
  413af0:	60064000 	0x60064000
  413af4:	60064000 	0x60064000
  413af8:	60064000 	0x60064000
  413afc:	60064000 	0x60064000
  413b00:	60064000 	0x60064000
  413b04:	60064000 	0x60064000
  413b08:	60064000 	0x60064000
  413b0c:	60064000 	0x60064000
  413b10:	ec034000 	swc3	$3,16384(zero)
  413b14:	60064000 	0x60064000
  413b18:	60064000 	0x60064000
  413b1c:	60064000 	0x60064000
  413b20:	60064000 	0x60064000
  413b24:	60064000 	0x60064000
  413b28:	60044000 	0x60044000
  413b2c:	60064000 	0x60064000
  413b30:	60064000 	0x60064000
  413b34:	48054000 	mfc2	a1,$8
  413b38:	60064000 	0x60064000
  413b3c:	60064000 	0x60064000
  413b40:	60064000 	0x60064000
  413b44:	60064000 	0x60064000
  413b48:	60064000 	0x60064000
  413b4c:	60064000 	0x60064000
  413b50:	60064000 	0x60064000
  413b54:	60064000 	0x60064000
  413b58:	60064000 	0x60064000
  413b5c:	f4024000 	sdc1	$f2,16384(zero)
  413b60:	c0054000 	ll	a1,16384(zero)
  413b64:	68034000 	0x68034000
  413b68:	60064000 	0x60064000
  413b6c:	60064000 	0x60064000
  413b70:	60064000 	0x60064000
  413b74:	60064000 	0x60064000
  413b78:	60064000 	0x60064000
  413b7c:	60064000 	0x60064000
  413b80:	60064000 	0x60064000
  413b84:	60064000 	0x60064000
  413b88:	60064000 	0x60064000
  413b8c:	60064000 	0x60064000
  413b90:	ec034000 	swc3	$3,16384(zero)
  413b94:	60064000 	0x60064000
  413b98:	60064000 	0x60064000
  413b9c:	60064000 	0x60064000
  413ba0:	0c064000 	jal	190000 <__tlb_stride_length+0x18ffff>
  413ba4:	60064000 	0x60064000
  413ba8:	60044000 	0x60044000
  413bac:	60064000 	0x60064000
  413bb0:	60064000 	0x60064000
  413bb4:	d4044000 	ldc1	$f4,16384(zero)
	...
  413bc4:	696e6170 	0x696e6170
  413bc8:	74612063 	jalx	184818c <_end+0x1422378>
  413bcc:	3a732520 	xori	s3,s3,0x2520
  413bd0:	203a6425 	addi	k0,at,25637
  413bd4:	00000000 	nop
  413bd8:	0000000a 	movz	zero,zero,zero
	...
  413be4:	43434700 	c0	0x1434700
  413be8:	4728203a 	bz.h	$w8,41bcd4 <theFatalMsg+0xc4>
  413bec:	2029554e 	addi	t1,at,21838
  413bf0:	2e302e34 	sltiu	s0,s1,11828
  413bf4:	44282030 	0x44282030
  413bf8:	20584e45 	addi	t8,v0,20037
  413bfc:	4b444c45 	c2	0x1444c45
  413c00:	312e3420 	andi	t6,t1,0x3420
  413c04:	302e3420 	andi	t6,at,0x3420
  413c08:	0029302e 	0x29302e
  413c0c:	43434700 	c0	0x1434700
  413c10:	4728203a 	bz.h	$w8,41bcfc <theFatalMsg+0xec>
  413c14:	2029554e 	addi	t1,at,21838
  413c18:	2e302e34 	sltiu	s0,s1,11828
  413c1c:	44282030 	0x44282030
  413c20:	20584e45 	addi	t8,v0,20037
  413c24:	4b444c45 	c2	0x1444c45
  413c28:	312e3420 	andi	t6,t1,0x3420
  413c2c:	302e3420 	andi	t6,at,0x3420
  413c30:	0029302e 	0x29302e
  413c34:	43434700 	c0	0x1434700
  413c38:	4728203a 	bz.h	$w8,41bd24 <theFatalMsg+0x114>
  413c3c:	2029554e 	addi	t1,at,21838
  413c40:	2e302e34 	sltiu	s0,s1,11828
  413c44:	44282030 	0x44282030
  413c48:	20584e45 	addi	t8,v0,20037
  413c4c:	4b444c45 	c2	0x1444c45
  413c50:	312e3420 	andi	t6,t1,0x3420
  413c54:	302e3420 	andi	t6,at,0x3420
  413c58:	0029302e 	0x29302e
  413c5c:	43434700 	c0	0x1434700
  413c60:	4728203a 	bz.h	$w8,41bd4c <theFatalMsg+0x13c>
  413c64:	2029554e 	addi	t1,at,21838
  413c68:	2e302e34 	sltiu	s0,s1,11828
  413c6c:	44282030 	0x44282030
  413c70:	20584e45 	addi	t8,v0,20037
  413c74:	4b444c45 	c2	0x1444c45
  413c78:	312e3420 	andi	t6,t1,0x3420
  413c7c:	302e3420 	andi	t6,at,0x3420
  413c80:	0029302e 	0x29302e
  413c84:	b0004000 	0xb0004000
  413c88:	00000180 	sll	zero,zero,0x6
  413c8c:	fcffffff 	sdc3	$31,-1(a3)
	...
  413c98:	18000000 	blez	zero,413c9c <binary_user_B_start+0xe08>
  413c9c:	1d000000 	bgtz	t0,413ca0 <binary_user_B_start+0xe0c>
  413ca0:	1f000000 	bgtz	t8,413ca4 <binary_user_B_start+0xe10>
  413ca4:	e0004000 	sc	zero,16384(zero)
	...
  413cbc:	1d000000 	bgtz	t0,413cc0 <binary_user_B_start+0xe2c>
  413cc0:	1f000000 	bgtz	t8,413cc4 <binary_user_B_start+0xe30>
  413cc4:	f4004000 	sdc1	$f0,16384(zero)
	...
  413cdc:	1d000000 	bgtz	t0,413ce0 <binary_user_B_start+0xe4c>
  413ce0:	1f000000 	bgtz	t8,413ce4 <binary_user_B_start+0xe50>
  413ce4:	08014000 	j	50000 <__tlb_stride_length+0x4ffff>
  413ce8:	00000180 	sll	zero,zero,0x6
  413cec:	fcffffff 	sdc3	$31,-1(a3)
	...
  413cf8:	18000000 	blez	zero,413cfc <binary_user_B_start+0xe68>
  413cfc:	1d000000 	bgtz	t0,413d00 <binary_user_B_start+0xe6c>
  413d00:	1f000000 	bgtz	t8,413d04 <binary_user_B_start+0xe70>
  413d04:	50014000 	beql	zero,at,423d08 <__bss_start+0x65cc>
  413d08:	00001f80 	sll	v1,zero,0x1e
  413d0c:	fcffffff 	sdc3	$31,-1(a3)
	...
  413d18:	88000000 	lwl	zero,0(zero)
  413d1c:	1d000000 	bgtz	t0,413d20 <binary_user_B_start+0xe8c>
  413d20:	1f000000 	bgtz	t8,413d24 <binary_user_B_start+0xe90>
  413d24:	bc064000 	cache	0x6,16384(zero)
	...
  413d3c:	1d000000 	bgtz	t0,413d40 <binary_user_B_start+0xeac>
  413d40:	1f000000 	bgtz	t8,413d44 <binary_user_B_start+0xeb0>
  413d44:	3c074000 	lui	a3,0x4000
	...
  413d5c:	1d000000 	bgtz	t0,413d60 <binary_user_B_start+0xecc>
  413d60:	1f000000 	bgtz	t8,413d64 <binary_user_B_start+0xed0>
  413d64:	44084000 	mfc1	t0,$f8
	...
  413d7c:	1d000000 	bgtz	t0,413d80 <binary_user_B_start+0xeec>
  413d80:	1f000000 	bgtz	t8,413d84 <binary_user_B_start+0xef0>
  413d84:	d0094000 	0xd0094000
  413d88:	00000780 	sll	zero,zero,0x1e
  413d8c:	fcffffff 	sdc3	$31,-1(a3)
	...
  413d98:	20000000 	addi	zero,zero,0
  413d9c:	1d000000 	bgtz	t0,413da0 <binary_user_B_start+0xf0c>
  413da0:	1f000000 	bgtz	t8,413da4 <binary_user_B_start+0xf10>
  413da4:	640a4000 	0x640a4000
  413da8:	00000080 	sll	zero,zero,0x2
  413dac:	f8ffffff 	sdc2	$31,-1(a3)
	...
  413db8:	20000000 	addi	zero,zero,0
  413dbc:	1d000000 	bgtz	t0,413dc0 <binary_user_B_start+0xf2c>
  413dc0:	1f000000 	bgtz	t8,413dc4 <binary_user_B_start+0xf30>
  413dc4:	a00a4000 	sb	t2,16384(zero)
  413dc8:	00000180 	sll	zero,zero,0x6
  413dcc:	fcffffff 	sdc3	$31,-1(a3)
	...
  413dd8:	20000000 	addi	zero,zero,0
  413ddc:	1d000000 	bgtz	t0,413de0 <binary_user_B_start+0xf4c>
  413de0:	1f000000 	bgtz	t8,413de4 <binary_user_B_start+0xf50>
  413de4:	79732e00 	ori.b	$w24,$w5,0x73
  413de8:	6261746d 	0x6261746d
  413dec:	74732e00 	jalx	1ccb800 <_end+0x18a59ec>
  413df0:	62617472 	0x62617472
  413df4:	68732e00 	0x68732e00
  413df8:	74727473 	jalx	1c9d1cc <_end+0x18773b8>
  413dfc:	2e006261 	sltiu	zero,s0,25185
  413e00:	69676572 	0x69676572
  413e04:	006f666e 	0x6f666e
  413e08:	7865742e 	0x7865742e
  413e0c:	722e0074 	0x722e0074
  413e10:	7461646f 	jalx	18591bc <_end+0x14333a8>
  413e14:	642e0061 	0x642e0061
  413e18:	00617461 	0x617461
  413e1c:	7362732e 	0x7362732e
  413e20:	622e0073 	0x622e0073
  413e24:	2e007373 	sltiu	zero,s0,29555
  413e28:	6d6d6f63 	0x6d6d6f63
  413e2c:	00746e65 	0x746e65
  413e30:	7264702e 	0x7264702e
  413e34:	646d2e00 	0x646d2e00
  413e38:	67756265 	0x67756265
  413e3c:	6962612e 	0x6962612e
  413e40:	00003233 	tltu	zero,zero,0xc8
	...
  413e6c:	1b000000 	blez	t8,413e70 <binary_user_B_start+0xfdc>
  413e70:	06000070 	bltz	s0,414034 <binary_user_B_start+0x11a0>
  413e74:	02000000 	0x2000000
  413e78:	94004000 	lhu	zero,16384(zero)
  413e7c:	94000000 	lhu	zero,0(zero)
  413e80:	18000000 	blez	zero,413e84 <binary_user_B_start+0xff0>
  413e84:	00000000 	nop
  413e88:	00000000 	nop
  413e8c:	04000000 	bltz	zero,413e90 <binary_user_B_start+0xffc>
  413e90:	18000000 	blez	zero,413e94 <binary_user_B_start+0x1000>
  413e94:	24000000 	li	zero,0
  413e98:	01000000 	0x1000000
  413e9c:	06000000 	bltz	s0,413ea0 <binary_user_B_start+0x100c>
  413ea0:	b0004000 	0xb0004000
  413ea4:	b0000000 	0xb0000000
  413ea8:	600a0000 	0x600a0000
	...
  413eb4:	10000000 	b	413eb8 <binary_user_B_start+0x1024>
  413eb8:	00000000 	nop
  413ebc:	2a000000 	slti	zero,s0,0
  413ec0:	01000000 	0x1000000
  413ec4:	02000000 	0x2000000
  413ec8:	100b4000 	beq	zero,t3,423ecc <__bss_start+0x6790>
  413ecc:	100b0000 	beq	zero,t3,413ed0 <binary_user_B_start+0x103c>
  413ed0:	36020000 	ori	v0,s0,0x0
	...
  413edc:	10000000 	b	413ee0 <binary_user_B_start+0x104c>
  413ee0:	00000000 	nop
  413ee4:	32000000 	andi	zero,s0,0x0
  413ee8:	01000000 	0x1000000
  413eec:	03000000 	0x3000000
  413ef0:	00000010 	mfhi	zero
  413ef4:	500d0000 	beql	zero,t5,413ef8 <binary_user_B_start+0x1064>
  413ef8:	00000000 	nop
	...
  413f04:	10000000 	b	413f08 <binary_user_B_start+0x1074>
  413f08:	00000000 	nop
  413f0c:	38000000 	xori	zero,zero,0x0
  413f10:	08000000 	j	0 <__tlb_stride_length-0x1>
  413f14:	03000010 	0x3000010
  413f18:	00000010 	mfhi	zero
  413f1c:	500d0000 	beql	zero,t5,413f20 <binary_user_B_start+0x108c>
  413f20:	00000000 	nop
	...
  413f2c:	01000000 	0x1000000
  413f30:	00000000 	nop
  413f34:	3e000000 	0x3e000000
  413f38:	08000000 	j	0 <__tlb_stride_length-0x1>
  413f3c:	03000000 	0x3000000
  413f40:	00000010 	mfhi	zero
  413f44:	500d0000 	beql	zero,t5,413f48 <binary_user_B_start+0x10b4>
  413f48:	00000000 	nop
	...
  413f54:	10000000 	b	413f58 <binary_user_B_start+0x10c4>
  413f58:	00000000 	nop
  413f5c:	43000000 	c0	0x1000000
  413f60:	01000000 	0x1000000
	...
  413f6c:	500d0000 	beql	zero,t5,413f70 <binary_user_B_start+0x10dc>
  413f70:	a0000000 	sb	zero,0(zero)
	...
  413f7c:	01000000 	0x1000000
  413f80:	00000000 	nop
  413f84:	4c000000 	lwxc1	$f0,zero(zero)
  413f88:	01000000 	0x1000000
	...
  413f94:	f00d0000 	0xf00d0000
  413f98:	60010000 	0x60010000
	...
  413fa4:	04000000 	bltz	zero,413fa8 <binary_user_B_start+0x1114>
  413fa8:	00000000 	nop
  413fac:	51000000 	beqzl	t0,413fb0 <binary_user_B_start+0x111c>
  413fb0:	01000000 	0x1000000
	...
  413fbc:	500f0000 	beql	zero,t7,413fc0 <binary_user_B_start+0x112c>
  413fc0:	00000000 	nop
	...
  413fcc:	01000000 	0x1000000
  413fd0:	00000000 	nop
  413fd4:	11000000 	beqz	t0,413fd8 <binary_user_B_start+0x1144>
  413fd8:	03000000 	0x3000000
	...
  413fe4:	500f0000 	beql	zero,t7,413fe8 <binary_user_B_start+0x1154>
  413fe8:	5f000000 	bgtzl	t8,413fec <binary_user_B_start+0x1158>
  413fec:	00000000 	nop
  413ff0:	00000000 	nop
  413ff4:	01000000 	0x1000000
  413ff8:	00000000 	nop
  413ffc:	01000000 	0x1000000
  414000:	02000000 	0x2000000
	...
  41400c:	b8110000 	swr	s1,0(zero)
  414010:	40020000 	mfc0	v0,c0_index
  414014:	0c000000 	jal	0 <__tlb_stride_length-0x1>
  414018:	13000000 	beqz	t8,41401c <binary_user_B_start+0x1188>
  41401c:	04000000 	bltz	zero,414020 <binary_user_B_start+0x118c>
  414020:	10000000 	b	414024 <binary_user_B_start+0x1190>
  414024:	09000000 	j	4000000 <_end+0x3bda1ec>
  414028:	03000000 	0x3000000
	...
  414034:	f8130000 	sdc2	$19,0(zero)
  414038:	ba000000 	swr	zero,0(s0)
	...
  414044:	01000000 	0x1000000
	...
  414060:	94004000 	lhu	zero,16384(zero)
  414064:	00000000 	nop
  414068:	01000003 	0x1000003
  41406c:	00000000 	nop
  414070:	b0004000 	0xb0004000
  414074:	00000000 	nop
  414078:	02000003 	0x2000003
  41407c:	00000000 	nop
  414080:	100b4000 	beq	zero,t3,424084 <__bss_start+0x6948>
  414084:	00000000 	nop
  414088:	03000003 	0x3000003
  41408c:	00000000 	nop
  414090:	00000010 	mfhi	zero
  414094:	00000000 	nop
  414098:	04000003 	bltz	zero,4140a8 <binary_user_B_start+0x1214>
  41409c:	00000000 	nop
  4140a0:	00000010 	mfhi	zero
  4140a4:	00000000 	nop
  4140a8:	05000003 	bltz	t0,4140b8 <binary_user_B_start+0x1224>
  4140ac:	00000000 	nop
  4140b0:	00000010 	mfhi	zero
  4140b4:	00000000 	nop
  4140b8:	06000003 	bltz	s0,4140c8 <binary_user_B_start+0x1234>
  4140bc:	00000000 	nop
	...
  4140c8:	07000003 	bltz	t8,4140d8 <binary_user_B_start+0x1244>
  4140cc:	00000000 	nop
	...
  4140d8:	08000003 	j	c <__tlb_stride_length+0xb>
  4140dc:	00000000 	nop
	...
  4140e8:	09000003 	j	400000c <_end+0x3bda1f8>
  4140ec:	00000000 	nop
	...
  4140f8:	0a000003 	j	800000c <_end+0x7bda1f8>
  4140fc:	00000000 	nop
	...
  414108:	0b000003 	j	c00000c <_end+0xbbda1f8>
  41410c:	00000000 	nop
	...
  414118:	0c000003 	jal	c <__tlb_stride_length+0xb>
  41411c:	01000000 	0x1000000
	...
  414128:	f1ff0004 	0xf1ff0004
  41412c:	06000000 	bltz	s0,414130 <binary_user_B_start+0x129c>
  414130:	00000000 	nop
  414134:	00000000 	nop
  414138:	f1ff0004 	0xf1ff0004
  41413c:	10000000 	b	414140 <binary_user_B_start+0x12ac>
  414140:	00000000 	nop
  414144:	00000000 	nop
  414148:	f1ff0004 	0xf1ff0004
  41414c:	18000000 	blez	zero,414150 <binary_user_B_start+0x12bc>
  414150:	200b4000 	addi	t3,zero,16384
  414154:	19000000 	blez	t0,414158 <binary_user_B_start+0x12c4>
  414158:	03000001 	movf	zero,t8,$fcc0
  41415c:	24000000 	li	zero,0
	...
  414168:	f1ff0004 	0xf1ff0004
  41416c:	2d000000 	sltiu	zero,t0,0
  414170:	d0094000 	0xd0094000
  414174:	94000000 	lhu	zero,0(zero)
  414178:	02000002 	0x2000002
  41417c:	36000000 	ori	zero,s0,0x0
  414180:	50014000 	beql	zero,at,424184 <__bss_start+0x6a48>
  414184:	6c050000 	0x6c050000
  414188:	02000012 	0x2000012
  41418c:	3f000000 	0x3f000000
  414190:	a00a4000 	sb	t2,16384(zero)
  414194:	64000000 	0x64000000
  414198:	02000012 	0x2000012
  41419c:	46000000 	add.s	$f0,$f0,$f0
  4141a0:	08014000 	j	50000 <__tlb_stride_length+0x4ffff>
  4141a4:	3c000000 	lui	zero,0x0
  4141a8:	02000012 	0x2000012
  4141ac:	4f000000 	lwxc1	$f0,zero(t8)
  4141b0:	640a4000 	0x640a4000
  4141b4:	3c000000 	lui	zero,0x0
  4141b8:	02000012 	0x2000012
  4141bc:	56000000 	bnezl	s0,4141c0 <binary_user_B_start+0x132c>
  4141c0:	00000010 	mfhi	zero
  4141c4:	00000000 	nop
  4141c8:	04000010 	bltz	zero,41420c <binary_user_B_start+0x1378>
  4141cc:	5d000000 	bgtzl	t0,4141d0 <binary_user_B_start+0x133c>
  4141d0:	f07f0010 	0xf07f0010
  4141d4:	00000000 	nop
  4141d8:	f1ff0010 	0xf1ff0010
  4141dc:	61000000 	0x61000000
  4141e0:	44084000 	mfc1	t0,$f8
  4141e4:	80010000 	lb	at,0(zero)
  4141e8:	02000012 	0x2000012
  4141ec:	6a000000 	0x6a000000
  4141f0:	e0004000 	sc	zero,16384(zero)
  4141f4:	14000000 	bnez	zero,4141f8 <binary_user_B_start+0x1364>
  4141f8:	02000012 	0x2000012
  4141fc:	75000000 	jalx	4000000 <_end+0x3bda1ec>
  414200:	b0004000 	0xb0004000
  414204:	00000000 	nop
  414208:	02000010 	0x2000010
  41420c:	7c000000 	ext	zero,zero,0x0,0x1
  414210:	3c074000 	lui	a3,0x4000
  414214:	08010000 	j	40000 <__tlb_stride_length+0x3ffff>
  414218:	02000012 	0x2000012
  41421c:	88000000 	lwl	zero,0(zero)
  414220:	00000010 	mfhi	zero
  414224:	00000000 	nop
  414228:	f1ff0010 	0xf1ff0010
  41422c:	94000000 	lhu	zero,0(zero)
  414230:	b0004000 	0xb0004000
  414234:	24000000 	li	zero,0
  414238:	02000012 	0x2000012
  41423c:	99000000 	lwr	zero,0(t0)
  414240:	bc064000 	cache	0x6,16384(zero)
  414244:	80000000 	lb	zero,0(zero)
  414248:	02000012 	0x2000012
  41424c:	a3000000 	sb	zero,0(t8)
  414250:	00000010 	mfhi	zero
  414254:	00000000 	nop
  414258:	f1ff0010 	0xf1ff0010
  41425c:	aa000000 	swl	zero,0(s0)
  414260:	00000010 	mfhi	zero
  414264:	00000000 	nop
  414268:	f1ff0010 	0xf1ff0010
  41426c:	af000000 	sw	zero,0(t8)
  414270:	f4004000 	sdc1	$f0,16384(zero)
  414274:	14000000 	bnez	zero,414278 <binary_user_B_start+0x13e4>
  414278:	02000012 	0x2000012
  41427c:	b4000000 	0xb4000000
  414280:	00000010 	mfhi	zero
  414284:	00000000 	nop
  414288:	f1ff0010 	0xf1ff0010
  41428c:	2e6e6900 	sltiu	t6,s3,26880
  414290:	6f630063 	0x6f630063
  414294:	6c6f736e 	0x6c6f736e
  414298:	00632e65 	0x632e65
  41429c:	6e697270 	0x6e697270
  4142a0:	00632e74 	teq	v1,v1,0xb9
  4142a4:	46656874 	c1	0x656874
  4142a8:	6c617461 	0x6c617461
  4142ac:	0067734d 	break	0x67,0x1cd
  4142b0:	6e697270 	0x6e697270
  4142b4:	632e6674 	0x632e6674
  4142b8:	6f796d00 	0x6f796d00
  4142bc:	75707475 	jalx	5c1d1d4 <_end+0x57f73c0>
  4142c0:	706c0074 	0x706c0074
  4142c4:	6972505f 	0x6972505f
  4142c8:	5f00746e 	bgtzl	t8,431484 <_end+0xb670>
  4142cc:	696e6170 	0x696e6170
  4142d0:	72700063 	0x72700063
  4142d4:	73746e69 	0x73746e69
  4142d8:	70007274 	0x70007274
  4142dc:	746e6972 	jalx	1b9a5c8 <_end+0x17747b4>
  4142e0:	665f0066 	0x665f0066
  4142e4:	61746164 	0x61746164
  4142e8:	70675f00 	0x70675f00
  4142ec:	69725000 	0x69725000
  4142f0:	754e746e 	jalx	539d1b8 <_end+0x4f773a4>
  4142f4:	7270006d 	0x7270006d
  4142f8:	63746e69 	0x63746e69
  4142fc:	63726168 	0x63726168
  414300:	74665f00 	jalx	1997c00 <_end+0x1571dec>
  414304:	00747865 	0x747865
  414308:	6e697250 	0x6e697250
  41430c:	72745374 	0x72745374
  414310:	00676e69 	0x676e69
  414314:	73625f5f 	udi15	k1,v0,t3,0x1d
  414318:	74735f73 	jalx	1cd7dcc <_end+0x18b1fb8>
  41431c:	00747261 	0x747261
  414320:	6e69616d 	0x6e69616d
  414324:	69725000 	0x69725000
  414328:	6843746e 	0x6843746e
  41432c:	5f007261 	bgtzl	t8,430cb4 <_end+0xaea0>
  414330:	74616465 	jalx	1859194 <_end+0x1433380>
  414334:	655f0061 	0x655f0061
  414338:	6800646e 	0x6800646e
  41433c:	00746c61 	0x746c61
  414340:	7362665f 	udi15	k1,v0,t4,0x19
  414344:	00000073 	tltu	zero,zero,0x1

00414348 <binary_user_idle_start>:
  414348:	464c457f 	c1	0x4c457f
  41434c:	00010201 	0x10201
	...
  414358:	08000200 	j	800 <__tlb_stride_length+0x7ff>
  41435c:	01000000 	0x1000000
  414360:	00400000 	0x400000
  414364:	00000034 	teq	zero,zero
  414368:	b00f0000 	0xb00f0000
  41436c:	01100050 	0x1100050
  414370:	00203400 	0x203400
  414374:	28000001 	slti	zero,zero,1
  414378:	0a000d00 	j	8003400 <_end+0x7bdd5ec>
  41437c:	00000001 	movf	zero,zero,$fcc0
  414380:	00000054 	0x54
  414384:	00400000 	0x400000
  414388:	00000000 	nop
  41438c:	00000024 	and	zero,zero,zero
  414390:	00000024 	and	zero,zero,zero
	...
  41439c:	8fa40000 	lw	a0,0(sp)
  4143a0:	8fa50004 	lw	a1,4(sp)
  4143a4:	0c1002bc 	jal	400af0 <user_bcopy+0x34>
  4143a8:	00000000 	nop
	...
  4143b4:	8fa4008c 	lw	a0,140(sp)
  4143b8:	3c090040 	lui	t1,0x40
  4143bc:	8d296010 	lw	t1,24592(t1)
  4143c0:	0120f809 	jalr	t1
  4143c4:	00000000 	nop
  4143c8:	8fa30088 	lw	v1,136(sp)
  4143cc:	00600013 	mtlo	v1
  4143d0:	8fa20084 	lw	v0,132(sp)
  4143d4:	8fa30094 	lw	v1,148(sp)
  4143d8:	00400011 	mthi	v0
  4143dc:	40837000 	mtc0	v1,c0_epc
  4143e0:	8fbf007c 	lw	ra,124(sp)
  4143e4:	8fbe0078 	lw	s8,120(sp)
  4143e8:	8fbc0070 	lw	gp,112(sp)
  4143ec:	8fb90064 	lw	t9,100(sp)
  4143f0:	8fb80060 	lw	t8,96(sp)
  4143f4:	8fb7005c 	lw	s7,92(sp)
  4143f8:	8fb60058 	lw	s6,88(sp)
  4143fc:	8fb50054 	lw	s5,84(sp)
  414400:	8fb40050 	lw	s4,80(sp)
  414404:	8fb3004c 	lw	s3,76(sp)
  414408:	8fb20048 	lw	s2,72(sp)
  41440c:	8fb10044 	lw	s1,68(sp)
  414410:	8fb00040 	lw	s0,64(sp)
  414414:	8faf003c 	lw	t7,60(sp)
  414418:	8fae0038 	lw	t6,56(sp)
  41441c:	8fad0034 	lw	t5,52(sp)
  414420:	8fac0030 	lw	t4,48(sp)
  414424:	8fab002c 	lw	t3,44(sp)
  414428:	8faa0028 	lw	t2,40(sp)
  41442c:	8fa90024 	lw	t1,36(sp)
  414430:	8fa80020 	lw	t0,32(sp)
  414434:	8fa7001c 	lw	a3,28(sp)
  414438:	8fa60018 	lw	a2,24(sp)
  41443c:	8fa50014 	lw	a1,20(sp)
  414440:	8fa40010 	lw	a0,16(sp)
  414444:	8fa3000c 	lw	v1,12(sp)
  414448:	8fa20008 	lw	v0,8(sp)
  41444c:	8fa10004 	lw	at,4(sp)
  414450:	8fba0094 	lw	k0,148(sp)
  414454:	03400008 	jr	k0
  414458:	8fbd0074 	lw	sp,116(sp)
  41445c:	afa40000 	sw	a0,0(sp)
  414460:	afa50004 	sw	a1,4(sp)
  414464:	afa60008 	sw	a2,8(sp)
  414468:	afa7000c 	sw	a3,12(sp)
  41446c:	0000000c 	syscall
  414470:	03e00008 	jr	ra
  414474:	00000000 	nop
  414478:	27bdffe8 	addiu	sp,sp,-24
  41447c:	afbf0014 	sw	ra,20(sp)
  414480:	afb00010 	sw	s0,16(sp)
  414484:	3c100040 	lui	s0,0x40
  414488:	26106270 	addiu	s0,s0,25200
  41448c:	0c100068 	jal	4001a0 <user_PrintChar>
  414490:	02002025 	move	a0,s0
  414494:	1000fffd 	b	41448c <binary_user_idle_start+0x144>
  414498:	00000000 	nop
  41449c:	24020001 	li	v0,1
  4144a0:	50c2000e 	beql	a2,v0,4144dc <binary_user_idle_start+0x194>
  4144a4:	90a20000 	lbu	v0,0(a1)
  4144a8:	18c00022 	blez	a2,414534 <binary_user_idle_start+0x1ec>
  4144ac:	00000000 	nop
  4144b0:	27bdffd8 	addiu	sp,sp,-40
  4144b4:	afbf0024 	sw	ra,36(sp)
  4144b8:	afb30020 	sw	s3,32(sp)
  4144bc:	afb2001c 	sw	s2,28(sp)
  4144c0:	afb10018 	sw	s1,24(sp)
  4144c4:	afb00014 	sw	s0,20(sp)
  4144c8:	00c09025 	move	s2,a2
  4144cc:	00a08025 	move	s0,a1
  4144d0:	00008825 	move	s1,zero
  4144d4:	10000008 	b	4144f8 <binary_user_idle_start+0x1b0>
  4144d8:	2413000a 	li	s3,10
  4144dc:	1440fff4 	bnez	v0,4144b0 <binary_user_idle_start+0x168>
  4144e0:	00000000 	nop
  4144e4:	03e00008 	jr	ra
  4144e8:	00000000 	nop
  4144ec:	0232102a 	slt	v0,s1,s2
  4144f0:	1040000a 	beqz	v0,41451c <binary_user_idle_start+0x1d4>
  4144f4:	26100001 	addiu	s0,s0,1
  4144f8:	0c1003fe 	jal	400ff8 <syscall_yield+0x28>
  4144fc:	92040000 	lbu	a0,0(s0)
  414500:	92020000 	lbu	v0,0(s0)
  414504:	5453fff9 	bnel	v0,s3,4144ec <binary_user_idle_start+0x1a4>
  414508:	26310001 	addiu	s1,s1,1
  41450c:	0c1003fe 	jal	400ff8 <syscall_yield+0x28>
  414510:	02602025 	move	a0,s3
  414514:	1000fff5 	b	4144ec <binary_user_idle_start+0x1a4>
  414518:	26310001 	addiu	s1,s1,1
  41451c:	8fbf0024 	lw	ra,36(sp)
  414520:	8fb30020 	lw	s3,32(sp)
  414524:	8fb2001c 	lw	s2,28(sp)
  414528:	8fb10018 	lw	s1,24(sp)
  41452c:	8fb00014 	lw	s0,20(sp)
  414530:	27bd0028 	addiu	sp,sp,40
  414534:	03e00008 	jr	ra
  414538:	00000000 	nop
  41453c:	27bdffe0 	addiu	sp,sp,-32
  414540:	afbf001c 	sw	ra,28(sp)
  414544:	afa50024 	sw	a1,36(sp)
  414548:	afa60028 	sw	a2,40(sp)
  41454c:	afa7002c 	sw	a3,44(sp)
  414550:	27a70024 	addiu	a3,sp,36
  414554:	afa70010 	sw	a3,16(sp)
  414558:	00803025 	move	a2,a0
  41455c:	00002825 	move	a1,zero
  414560:	3c040040 	lui	a0,0x40
  414564:	0c10015a 	jal	400568 <user_lp_Print+0x98>
  414568:	24840100 	addiu	a0,a0,256
  41456c:	8fbf001c 	lw	ra,28(sp)
  414570:	03e00008 	jr	ra
  414574:	27bd0020 	addiu	sp,sp,32
  414578:	27bdffe0 	addiu	sp,sp,-32
  41457c:	afbf001c 	sw	ra,28(sp)
  414580:	afb00018 	sw	s0,24(sp)
  414584:	00c08025 	move	s0,a2
  414588:	afa7002c 	sw	a3,44(sp)
  41458c:	27a2002c 	addiu	v0,sp,44
  414590:	afa20010 	sw	v0,16(sp)
  414594:	00a03025 	move	a2,a1
  414598:	00802825 	move	a1,a0
  41459c:	3c040040 	lui	a0,0x40
  4145a0:	0c100068 	jal	4001a0 <user_PrintChar>
  4145a4:	24846278 	addiu	a0,a0,25208
  4145a8:	8fa70010 	lw	a3,16(sp)
  4145ac:	02003025 	move	a2,s0
  4145b0:	00002825 	move	a1,zero
  4145b4:	3c040040 	lui	a0,0x40
  4145b8:	0c10015a 	jal	400568 <user_lp_Print+0x98>
  4145bc:	24840100 	addiu	a0,a0,256
  4145c0:	3c040040 	lui	a0,0x40
  4145c4:	0c100068 	jal	4001a0 <user_PrintChar>
  4145c8:	24846538 	addiu	a0,a0,25912
  4145cc:	1000ffff 	b	4145cc <binary_user_idle_start+0x284>
  4145d0:	00000000 	nop
  4145d4:	0006102a 	slt	v0,zero,a2
  4145d8:	24030001 	li	v1,1
  4145dc:	00c2180b 	movn	v1,a2,v0
  4145e0:	14e0000f 	bnez	a3,414620 <binary_user_idle_start+0x2d8>
  4145e4:	00601025 	move	v0,v1
  4145e8:	2463ffff 	addiu	v1,v1,-1
  4145ec:	5860000a 	blezl	v1,414618 <binary_user_idle_start+0x2d0>
  4145f0:	00822021 	addu	a0,a0,v0
  4145f4:	00801825 	move	v1,a0
  4145f8:	2447ffff 	addiu	a3,v0,-1
  4145fc:	00873821 	addu	a3,a0,a3
  414600:	24060020 	li	a2,32
  414604:	a0660000 	sb	a2,0(v1)
  414608:	24630001 	addiu	v1,v1,1
  41460c:	5467fffe 	bnel	v1,a3,414608 <binary_user_idle_start+0x2c0>
  414610:	a0660000 	sb	a2,0(v1)
  414614:	00822021 	addu	a0,a0,v0
  414618:	03e00008 	jr	ra
  41461c:	a085ffff 	sb	a1,-1(a0)
  414620:	28630002 	slti	v1,v1,2
  414624:	14600008 	bnez	v1,414648 <binary_user_idle_start+0x300>
  414628:	a0850000 	sb	a1,0(a0)
  41462c:	24830001 	addiu	v1,a0,1
  414630:	00822021 	addu	a0,a0,v0
  414634:	24050020 	li	a1,32
  414638:	a0650000 	sb	a1,0(v1)
  41463c:	24630001 	addiu	v1,v1,1
  414640:	5483fffe 	bnel	a0,v1,41463c <binary_user_idle_start+0x2f4>
  414644:	a0650000 	sb	a1,0(v1)
  414648:	03e00008 	jr	ra
  41464c:	00000000 	nop
  414650:	90a20000 	lbu	v0,0(a1)
  414654:	10400039 	beqz	v0,41473c <binary_user_idle_start+0x3f4>
  414658:	24a30001 	addiu	v1,a1,1
  41465c:	00a04825 	move	t1,a1
  414660:	00655023 	subu	t2,v1,a1
  414664:	24630001 	addiu	v1,v1,1
  414668:	906bffff 	lbu	t3,-1(v1)
  41466c:	1560fffc 	bnez	t3,414660 <binary_user_idle_start+0x318>
  414670:	01404025 	move	t0,t2
  414674:	00ca102a 	slt	v0,a2,t2
  414678:	0142300b 	movn	a2,t2,v0
  41467c:	14e00019 	bnez	a3,4146e4 <binary_user_idle_start+0x39c>
  414680:	00c01025 	move	v0,a2
  414684:	00ca1823 	subu	v1,a2,t2
  414688:	18600009 	blez	v1,4146b0 <binary_user_idle_start+0x368>
  41468c:	0062302a 	slt	a2,v1,v0
  414690:	00803825 	move	a3,a0
  414694:	00834821 	addu	t1,a0,v1
  414698:	24060020 	li	a2,32
  41469c:	a0e60000 	sb	a2,0(a3)
  4146a0:	24e70001 	addiu	a3,a3,1
  4146a4:	54e9fffe 	bnel	a3,t1,4146a0 <binary_user_idle_start+0x358>
  4146a8:	a0e60000 	sb	a2,0(a3)
  4146ac:	0062302a 	slt	a2,v1,v0
  4146b0:	10c0000a 	beqz	a2,4146dc <binary_user_idle_start+0x394>
  4146b4:	00623023 	subu	a2,v1,v0
  4146b8:	00c84021 	addu	t0,a2,t0
  4146bc:	00a82821 	addu	a1,a1,t0
  4146c0:	00831821 	addu	v1,a0,v1
  4146c4:	00822021 	addu	a0,a0,v0
  4146c8:	90a70000 	lbu	a3,0(a1)
  4146cc:	a0670000 	sb	a3,0(v1)
  4146d0:	24630001 	addiu	v1,v1,1
  4146d4:	1464fffc 	bne	v1,a0,4146c8 <binary_user_idle_start+0x380>
  4146d8:	24a50001 	addiu	a1,a1,1
  4146dc:	03e00008 	jr	ra
  4146e0:	00000000 	nop
  4146e4:	19400008 	blez	t2,414708 <binary_user_idle_start+0x3c0>
  4146e8:	01201825 	move	v1,t1
  4146ec:	00803825 	move	a3,a0
  4146f0:	00aa2821 	addu	a1,a1,t2
  4146f4:	90690000 	lbu	t1,0(v1)
  4146f8:	a0e90000 	sb	t1,0(a3)
  4146fc:	24630001 	addiu	v1,v1,1
  414700:	14a3fffc 	bne	a1,v1,4146f4 <binary_user_idle_start+0x3ac>
  414704:	24e70001 	addiu	a3,a3,1
  414708:	0102182a 	slt	v1,t0,v0
  41470c:	1060fff3 	beqz	v1,4146dc <binary_user_idle_start+0x394>
  414710:	00881821 	addu	v1,a0,t0
  414714:	00822021 	addu	a0,a0,v0
  414718:	24050020 	li	a1,32
  41471c:	a0650000 	sb	a1,0(v1)
  414720:	24630001 	addiu	v1,v1,1
  414724:	5483fffe 	bnel	a0,v1,414720 <binary_user_idle_start+0x3d8>
  414728:	a0650000 	sb	a1,0(v1)
  41472c:	03e00008 	jr	ra
  414730:	00000000 	nop
  414734:	1000fff4 	b	414708 <binary_user_idle_start+0x3c0>
  414738:	00004025 	move	t0,zero
  41473c:	28c20000 	slti	v0,a2,0
  414740:	0002300b 	movn	a2,zero,v0
  414744:	14e0fffb 	bnez	a3,414734 <binary_user_idle_start+0x3ec>
  414748:	00c01025 	move	v0,a2
  41474c:	00c01825 	move	v1,a2
  414750:	1cc0ffcf 	bgtz	a2,414690 <binary_user_idle_start+0x348>
  414754:	00e04025 	move	t0,a3
  414758:	03e00008 	jr	ra
  41475c:	00000000 	nop
  414760:	8fa20010 	lw	v0,16(sp)
  414764:	8fad0014 	lw	t5,20(sp)
  414768:	93ac0018 	lbu	t4,24(sp)
  41476c:	8fab001c 	lw	t3,28(sp)
  414770:	24890001 	addiu	t1,a0,1
  414774:	1000000a 	b	4147a0 <binary_user_idle_start+0x458>
  414778:	00c05025 	move	t2,a2
  41477c:	51600011 	beqzl	t3,4147c4 <binary_user_idle_start+0x47c>
  414780:	25080057 	addiu	t0,t0,87
  414784:	25080037 	addiu	t0,t0,55
  414788:	a128ffff 	sb	t0,-1(t1)
  41478c:	00aa001b 	divu	zero,a1,t2
  414790:	014001f4 	teq	t2,zero,0x7
  414794:	00002812 	mflo	a1
  414798:	10a0000c 	beqz	a1,4147cc <binary_user_idle_start+0x484>
  41479c:	25290001 	addiu	t1,t1,1
  4147a0:	00a6001b 	divu	zero,a1,a2
  4147a4:	00c001f4 	teq	a2,zero,0x7
  4147a8:	00004010 	mfhi	t0
  4147ac:	2903000a 	slti	v1,t0,10
  4147b0:	1060fff2 	beqz	v1,41477c <binary_user_idle_start+0x434>
  4147b4:	01201825 	move	v1,t1
  4147b8:	25080030 	addiu	t0,t0,48
  4147bc:	1000fff3 	b	41478c <binary_user_idle_start+0x444>
  4147c0:	a128ffff 	sb	t0,-1(t1)
  4147c4:	1000fff1 	b	41478c <binary_user_idle_start+0x444>
  4147c8:	a128ffff 	sb	t0,-1(t1)
  4147cc:	50e0000f 	beqzl	a3,41480c <binary_user_idle_start+0x4c4>
  4147d0:	00641823 	subu	v1,v1,a0
  4147d4:	2405002d 	li	a1,45
  4147d8:	a0650000 	sb	a1,0(v1)
  4147dc:	24630001 	addiu	v1,v1,1
  4147e0:	00641823 	subu	v1,v1,a0
  4147e4:	0043282a 	slt	a1,v0,v1
  4147e8:	15a00041 	bnez	t5,4148f0 <binary_user_idle_start+0x5a8>
  4147ec:	0065100b 	movn	v0,v1,a1
  4147f0:	14e00028 	bnez	a3,414894 <binary_user_idle_start+0x54c>
  4147f4:	24050030 	li	a1,48
  4147f8:	0062282a 	slt	a1,v1,v0
  4147fc:	54a0000b 	bnezl	a1,41482c <binary_user_idle_start+0x4e4>
  414800:	00833021 	addu	a2,a0,v1
  414804:	10000012 	b	414850 <binary_user_idle_start+0x508>
  414808:	2443ffff 	addiu	v1,v0,-1
  41480c:	0062282a 	slt	a1,v1,v0
  414810:	11a0fff7 	beqz	t5,4147f0 <binary_user_idle_start+0x4a8>
  414814:	0065100a 	movz	v0,v1,a1
  414818:	14e00035 	bnez	a3,4148f0 <binary_user_idle_start+0x5a8>
  41481c:	0062282a 	slt	a1,v1,v0
  414820:	10a0000a 	beqz	a1,41484c <binary_user_idle_start+0x504>
  414824:	240c0020 	li	t4,32
  414828:	00833021 	addu	a2,a0,v1
  41482c:	00602825 	move	a1,v1
  414830:	a0cc0000 	sb	t4,0(a2)
  414834:	24a50001 	addiu	a1,a1,1
  414838:	00a2382a 	slt	a3,a1,v0
  41483c:	14e0fffc 	bnez	a3,414830 <binary_user_idle_start+0x4e8>
  414840:	24c60001 	addiu	a2,a2,1
  414844:	51a00002 	beqzl	t5,414850 <binary_user_idle_start+0x508>
  414848:	2443ffff 	addiu	v1,v0,-1
  41484c:	2463ffff 	addiu	v1,v1,-1
  414850:	1860000e 	blez	v1,41488c <binary_user_idle_start+0x544>
  414854:	00802825 	move	a1,a0
  414858:	00604025 	move	t0,v1
  41485c:	00832021 	addu	a0,a0,v1
  414860:	00001825 	move	v1,zero
  414864:	90a60000 	lbu	a2,0(a1)
  414868:	90870000 	lbu	a3,0(a0)
  41486c:	a0a70000 	sb	a3,0(a1)
  414870:	a0860000 	sb	a2,0(a0)
  414874:	24630001 	addiu	v1,v1,1
  414878:	24a50001 	addiu	a1,a1,1
  41487c:	01033023 	subu	a2,t0,v1
  414880:	0066302a 	slt	a2,v1,a2
  414884:	14c0fff7 	bnez	a2,414864 <binary_user_idle_start+0x51c>
  414888:	2484ffff 	addiu	a0,a0,-1
  41488c:	03e00008 	jr	ra
  414890:	00000000 	nop
  414894:	11850005 	beq	t4,a1,4148ac <binary_user_idle_start+0x564>
  414898:	0062282a 	slt	a1,v1,v0
  41489c:	54a0ffe3 	bnezl	a1,41482c <binary_user_idle_start+0x4e4>
  4148a0:	00833021 	addu	a2,a0,v1
  4148a4:	1000ffea 	b	414850 <binary_user_idle_start+0x508>
  4148a8:	2443ffff 	addiu	v1,v0,-1
  4148ac:	2465ffff 	addiu	a1,v1,-1
  4148b0:	2446ffff 	addiu	a2,v0,-1
  4148b4:	00a6282a 	slt	a1,a1,a2
  4148b8:	50a00009 	beqzl	a1,4148e0 <binary_user_idle_start+0x598>
  4148bc:	00821821 	addu	v1,a0,v0
  4148c0:	00831821 	addu	v1,a0,v1
  4148c4:	00823021 	addu	a2,a0,v0
  4148c8:	24050030 	li	a1,48
  4148cc:	a065ffff 	sb	a1,-1(v1)
  4148d0:	24630001 	addiu	v1,v1,1
  4148d4:	5466fffe 	bnel	v1,a2,4148d0 <binary_user_idle_start+0x588>
  4148d8:	a065ffff 	sb	a1,-1(v1)
  4148dc:	00821821 	addu	v1,a0,v0
  4148e0:	2405002d 	li	a1,45
  4148e4:	a065ffff 	sb	a1,-1(v1)
  4148e8:	1000ffd9 	b	414850 <binary_user_idle_start+0x508>
  4148ec:	2443ffff 	addiu	v1,v0,-1
  4148f0:	0062282a 	slt	a1,v1,v0
  4148f4:	14a0ffcc 	bnez	a1,414828 <binary_user_idle_start+0x4e0>
  4148f8:	240c0020 	li	t4,32
  4148fc:	1000ffd4 	b	414850 <binary_user_idle_start+0x508>
  414900:	2463ffff 	addiu	v1,v1,-1
  414904:	27bdfbd8 	addiu	sp,sp,-1064
  414908:	afbf0424 	sw	ra,1060(sp)
  41490c:	afb60420 	sw	s6,1056(sp)
  414910:	afb5041c 	sw	s5,1052(sp)
  414914:	afb40418 	sw	s4,1048(sp)
  414918:	afb30414 	sw	s3,1044(sp)
  41491c:	afb20410 	sw	s2,1040(sp)
  414920:	afb1040c 	sw	s1,1036(sp)
  414924:	afb00408 	sw	s0,1032(sp)
  414928:	00809825 	move	s3,a0
  41492c:	00a0a025 	move	s4,a1
  414930:	00c02825 	move	a1,a2
  414934:	00e09025 	move	s2,a3
  414938:	24110025 	li	s1,37
  41493c:	3c150040 	lui	s5,0x40
  414940:	1000002f 	b	414a00 <binary_user_idle_start+0x6b8>
  414944:	26b5606c 	addiu	s5,s5,24684
  414948:	10000038 	b	414a2c <binary_user_idle_start+0x6e4>
  41494c:	00a08025 	move	s0,a1
  414950:	3c050040 	lui	a1,0x40
  414954:	24a56250 	addiu	a1,a1,25168
  414958:	0260f809 	jalr	s3
  41495c:	02802025 	move	a0,s4
  414960:	1000ffff 	b	414960 <binary_user_idle_start+0x618>
  414964:	00000000 	nop
  414968:	1000003e 	b	414a64 <binary_user_idle_start+0x71c>
  41496c:	24050001 	li	a1,1
  414970:	26100001 	addiu	s0,s0,1
  414974:	1000003f 	b	414a74 <binary_user_idle_start+0x72c>
  414978:	24070001 	li	a3,1
  41497c:	92020001 	lbu	v0,1(s0)
  414980:	2442ffd0 	addiu	v0,v0,-48
  414984:	304200ff 	andi	v0,v0,0xff
  414988:	2c42000a 	sltiu	v0,v0,10
  41498c:	10400054 	beqz	v0,414ae0 <binary_user_idle_start+0x798>
  414990:	00608025 	move	s0,v1
  414994:	24630001 	addiu	v1,v1,1
  414998:	90620000 	lbu	v0,0(v1)
  41499c:	2442ffd0 	addiu	v0,v0,-48
  4149a0:	304200ff 	andi	v0,v0,0xff
  4149a4:	2c42000a 	sltiu	v0,v0,10
  4149a8:	5440fffb 	bnezl	v0,414998 <binary_user_idle_start+0x650>
  4149ac:	24630001 	addiu	v1,v1,1
  4149b0:	1000004b 	b	414ae0 <binary_user_idle_start+0x798>
  4149b4:	00608025 	move	s0,v1
  4149b8:	10a00053 	beqz	a1,414b08 <binary_user_idle_start+0x7c0>
  4149bc:	8e450000 	lw	a1,0(s2)
  4149c0:	26520004 	addiu	s2,s2,4
  4149c4:	afa0001c 	sw	zero,28(sp)
  4149c8:	afa80018 	sw	t0,24(sp)
  4149cc:	afa70014 	sw	a3,20(sp)
  4149d0:	afa40010 	sw	a0,16(sp)
  4149d4:	00003825 	move	a3,zero
  4149d8:	24060002 	li	a2,2
  4149dc:	0c1000f1 	jal	4003c4 <user_PrintNum+0x98>
  4149e0:	27a40020 	addiu	a0,sp,32
  4149e4:	2c4303e9 	sltiu	v1,v0,1001
  4149e8:	10600049 	beqz	v1,414b10 <binary_user_idle_start+0x7c8>
  4149ec:	00403025 	move	a2,v0
  4149f0:	27a50020 	addiu	a1,sp,32
  4149f4:	0260f809 	jalr	s3
  4149f8:	02802025 	move	a0,s4
  4149fc:	26050001 	addiu	a1,s0,1
  414a00:	90a20000 	lbu	v0,0(a1)
  414a04:	10400009 	beqz	v0,414a2c <binary_user_idle_start+0x6e4>
  414a08:	00a08025 	move	s0,a1
  414a0c:	10510008 	beq	v0,s1,414a30 <binary_user_idle_start+0x6e8>
  414a10:	02053023 	subu	a2,s0,a1
  414a14:	26100001 	addiu	s0,s0,1
  414a18:	92020000 	lbu	v0,0(s0)
  414a1c:	10400004 	beqz	v0,414a30 <binary_user_idle_start+0x6e8>
  414a20:	02053023 	subu	a2,s0,a1
  414a24:	5451fffc 	bnel	v0,s1,414a18 <binary_user_idle_start+0x6d0>
  414a28:	26100001 	addiu	s0,s0,1
  414a2c:	02053023 	subu	a2,s0,a1
  414a30:	2cc203e9 	sltiu	v0,a2,1001
  414a34:	5040ffc6 	beqzl	v0,414950 <binary_user_idle_start+0x608>
  414a38:	2406001d 	li	a2,29
  414a3c:	0260f809 	jalr	s3
  414a40:	02802025 	move	a0,s4
  414a44:	92020000 	lbu	v0,0(s0)
  414a48:	104000fa 	beqz	v0,414e34 <binary_user_idle_start+0xaec>
  414a4c:	2402006c 	li	v0,108
  414a50:	92030001 	lbu	v1,1(s0)
  414a54:	5062ffc4 	beql	v1,v0,414968 <binary_user_idle_start+0x620>
  414a58:	26100002 	addiu	s0,s0,2
  414a5c:	26100001 	addiu	s0,s0,1
  414a60:	00002825 	move	a1,zero
  414a64:	92030000 	lbu	v1,0(s0)
  414a68:	2402002d 	li	v0,45
  414a6c:	1062ffc0 	beq	v1,v0,414970 <binary_user_idle_start+0x628>
  414a70:	00003825 	move	a3,zero
  414a74:	92080000 	lbu	t0,0(s0)
  414a78:	24020030 	li	v0,48
  414a7c:	51020002 	beql	t0,v0,414a88 <binary_user_idle_start+0x740>
  414a80:	26100001 	addiu	s0,s0,1
  414a84:	24080020 	li	t0,32
  414a88:	92030000 	lbu	v1,0(s0)
  414a8c:	2462ffd0 	addiu	v0,v1,-48
  414a90:	304200ff 	andi	v0,v0,0xff
  414a94:	2c42000a 	sltiu	v0,v0,10
  414a98:	1040000e 	beqz	v0,414ad4 <binary_user_idle_start+0x78c>
  414a9c:	00002025 	move	a0,zero
  414aa0:	00043080 	sll	a2,a0,0x2
  414aa4:	00c43021 	addu	a2,a2,a0
  414aa8:	00063040 	sll	a2,a2,0x1
  414aac:	26100001 	addiu	s0,s0,1
  414ab0:	2463ffd0 	addiu	v1,v1,-48
  414ab4:	00662021 	addu	a0,v1,a2
  414ab8:	92030000 	lbu	v1,0(s0)
  414abc:	2462ffd0 	addiu	v0,v1,-48
  414ac0:	304200ff 	andi	v0,v0,0xff
  414ac4:	2c42000a 	sltiu	v0,v0,10
  414ac8:	1440fff6 	bnez	v0,414aa4 <binary_user_idle_start+0x75c>
  414acc:	00043080 	sll	a2,a0,0x2
  414ad0:	92030000 	lbu	v1,0(s0)
  414ad4:	2402002e 	li	v0,46
  414ad8:	1062ffa8 	beq	v1,v0,41497c <binary_user_idle_start+0x634>
  414adc:	26030001 	addiu	v1,s0,1
  414ae0:	92020000 	lbu	v0,0(s0)
  414ae4:	2c420079 	sltiu	v0,v0,121
  414ae8:	104000cd 	beqz	v0,414e20 <binary_user_idle_start+0xad8>
  414aec:	24060001 	li	a2,1
  414af0:	92020000 	lbu	v0,0(s0)
  414af4:	00021080 	sll	v0,v0,0x2
  414af8:	02a21021 	addu	v0,s5,v0
  414afc:	8c420000 	lw	v0,0(v0)
  414b00:	00400008 	jr	v0
  414b04:	00000000 	nop
  414b08:	1000ffae 	b	4149c4 <binary_user_idle_start+0x67c>
  414b0c:	26520004 	addiu	s2,s2,4
  414b10:	2406001d 	li	a2,29
  414b14:	3c050040 	lui	a1,0x40
  414b18:	24a56250 	addiu	a1,a1,25168
  414b1c:	0260f809 	jalr	s3
  414b20:	02802025 	move	a0,s4
  414b24:	1000ffff 	b	414b24 <binary_user_idle_start+0x7dc>
  414b28:	00000000 	nop
  414b2c:	10a00014 	beqz	a1,414b80 <binary_user_idle_start+0x838>
  414b30:	8e450000 	lw	a1,0(s2)
  414b34:	26520004 	addiu	s2,s2,4
  414b38:	04a00013 	bltz	a1,414b88 <binary_user_idle_start+0x840>
  414b3c:	00001025 	move	v0,zero
  414b40:	afa0001c 	sw	zero,28(sp)
  414b44:	afa80018 	sw	t0,24(sp)
  414b48:	afa70014 	sw	a3,20(sp)
  414b4c:	afa40010 	sw	a0,16(sp)
  414b50:	00403825 	move	a3,v0
  414b54:	2406000a 	li	a2,10
  414b58:	0c1000f1 	jal	4003c4 <user_PrintNum+0x98>
  414b5c:	27a40020 	addiu	a0,sp,32
  414b60:	2c4303e9 	sltiu	v1,v0,1001
  414b64:	1060000b 	beqz	v1,414b94 <binary_user_idle_start+0x84c>
  414b68:	00403025 	move	a2,v0
  414b6c:	27a50020 	addiu	a1,sp,32
  414b70:	0260f809 	jalr	s3
  414b74:	02802025 	move	a0,s4
  414b78:	1000ffa1 	b	414a00 <binary_user_idle_start+0x6b8>
  414b7c:	26050001 	addiu	a1,s0,1
  414b80:	1000ffed 	b	414b38 <binary_user_idle_start+0x7f0>
  414b84:	26520004 	addiu	s2,s2,4
  414b88:	00052823 	negu	a1,a1
  414b8c:	1000ffec 	b	414b40 <binary_user_idle_start+0x7f8>
  414b90:	24020001 	li	v0,1
  414b94:	2406001d 	li	a2,29
  414b98:	3c050040 	lui	a1,0x40
  414b9c:	24a56250 	addiu	a1,a1,25168
  414ba0:	0260f809 	jalr	s3
  414ba4:	02802025 	move	a0,s4
  414ba8:	1000ffff 	b	414ba8 <binary_user_idle_start+0x860>
  414bac:	00000000 	nop
  414bb0:	10a00012 	beqz	a1,414bfc <binary_user_idle_start+0x8b4>
  414bb4:	8e450000 	lw	a1,0(s2)
  414bb8:	26520004 	addiu	s2,s2,4
  414bbc:	afa0001c 	sw	zero,28(sp)
  414bc0:	afa80018 	sw	t0,24(sp)
  414bc4:	afa70014 	sw	a3,20(sp)
  414bc8:	afa40010 	sw	a0,16(sp)
  414bcc:	00003825 	move	a3,zero
  414bd0:	24060008 	li	a2,8
  414bd4:	0c1000f1 	jal	4003c4 <user_PrintNum+0x98>
  414bd8:	27a40020 	addiu	a0,sp,32
  414bdc:	2c4303e9 	sltiu	v1,v0,1001
  414be0:	10600008 	beqz	v1,414c04 <binary_user_idle_start+0x8bc>
  414be4:	00403025 	move	a2,v0
  414be8:	27a50020 	addiu	a1,sp,32
  414bec:	0260f809 	jalr	s3
  414bf0:	02802025 	move	a0,s4
  414bf4:	1000ff82 	b	414a00 <binary_user_idle_start+0x6b8>
  414bf8:	26050001 	addiu	a1,s0,1
  414bfc:	1000ffef 	b	414bbc <binary_user_idle_start+0x874>
  414c00:	26520004 	addiu	s2,s2,4
  414c04:	2406001d 	li	a2,29
  414c08:	3c050040 	lui	a1,0x40
  414c0c:	24a56250 	addiu	a1,a1,25168
  414c10:	0260f809 	jalr	s3
  414c14:	02802025 	move	a0,s4
  414c18:	1000ffff 	b	414c18 <binary_user_idle_start+0x8d0>
  414c1c:	00000000 	nop
  414c20:	10a00012 	beqz	a1,414c6c <binary_user_idle_start+0x924>
  414c24:	8e450000 	lw	a1,0(s2)
  414c28:	26520004 	addiu	s2,s2,4
  414c2c:	afa0001c 	sw	zero,28(sp)
  414c30:	afa80018 	sw	t0,24(sp)
  414c34:	afa70014 	sw	a3,20(sp)
  414c38:	afa40010 	sw	a0,16(sp)
  414c3c:	00003825 	move	a3,zero
  414c40:	2406000a 	li	a2,10
  414c44:	0c1000f1 	jal	4003c4 <user_PrintNum+0x98>
  414c48:	27a40020 	addiu	a0,sp,32
  414c4c:	2c4303e9 	sltiu	v1,v0,1001
  414c50:	10600008 	beqz	v1,414c74 <binary_user_idle_start+0x92c>
  414c54:	00403025 	move	a2,v0
  414c58:	27a50020 	addiu	a1,sp,32
  414c5c:	0260f809 	jalr	s3
  414c60:	02802025 	move	a0,s4
  414c64:	1000ff66 	b	414a00 <binary_user_idle_start+0x6b8>
  414c68:	26050001 	addiu	a1,s0,1
  414c6c:	1000ffef 	b	414c2c <binary_user_idle_start+0x8e4>
  414c70:	26520004 	addiu	s2,s2,4
  414c74:	2406001d 	li	a2,29
  414c78:	3c050040 	lui	a1,0x40
  414c7c:	24a56250 	addiu	a1,a1,25168
  414c80:	0260f809 	jalr	s3
  414c84:	02802025 	move	a0,s4
  414c88:	1000ffff 	b	414c88 <binary_user_idle_start+0x940>
  414c8c:	00000000 	nop
  414c90:	10a00012 	beqz	a1,414cdc <binary_user_idle_start+0x994>
  414c94:	8e450000 	lw	a1,0(s2)
  414c98:	26520004 	addiu	s2,s2,4
  414c9c:	afa0001c 	sw	zero,28(sp)
  414ca0:	afa80018 	sw	t0,24(sp)
  414ca4:	afa70014 	sw	a3,20(sp)
  414ca8:	afa40010 	sw	a0,16(sp)
  414cac:	00003825 	move	a3,zero
  414cb0:	24060010 	li	a2,16
  414cb4:	0c1000f1 	jal	4003c4 <user_PrintNum+0x98>
  414cb8:	27a40020 	addiu	a0,sp,32
  414cbc:	2c4303e9 	sltiu	v1,v0,1001
  414cc0:	10600008 	beqz	v1,414ce4 <binary_user_idle_start+0x99c>
  414cc4:	00403025 	move	a2,v0
  414cc8:	27a50020 	addiu	a1,sp,32
  414ccc:	0260f809 	jalr	s3
  414cd0:	02802025 	move	a0,s4
  414cd4:	1000ff4a 	b	414a00 <binary_user_idle_start+0x6b8>
  414cd8:	26050001 	addiu	a1,s0,1
  414cdc:	1000ffef 	b	414c9c <binary_user_idle_start+0x954>
  414ce0:	26520004 	addiu	s2,s2,4
  414ce4:	2406001d 	li	a2,29
  414ce8:	3c050040 	lui	a1,0x40
  414cec:	24a56250 	addiu	a1,a1,25168
  414cf0:	0260f809 	jalr	s3
  414cf4:	02802025 	move	a0,s4
  414cf8:	1000ffff 	b	414cf8 <binary_user_idle_start+0x9b0>
  414cfc:	00000000 	nop
  414d00:	10a00013 	beqz	a1,414d50 <binary_user_idle_start+0xa08>
  414d04:	8e450000 	lw	a1,0(s2)
  414d08:	26520004 	addiu	s2,s2,4
  414d0c:	24020001 	li	v0,1
  414d10:	afa2001c 	sw	v0,28(sp)
  414d14:	afa80018 	sw	t0,24(sp)
  414d18:	afa70014 	sw	a3,20(sp)
  414d1c:	afa40010 	sw	a0,16(sp)
  414d20:	00003825 	move	a3,zero
  414d24:	24060010 	li	a2,16
  414d28:	0c1000f1 	jal	4003c4 <user_PrintNum+0x98>
  414d2c:	27a40020 	addiu	a0,sp,32
  414d30:	2c4303e9 	sltiu	v1,v0,1001
  414d34:	10600008 	beqz	v1,414d58 <binary_user_idle_start+0xa10>
  414d38:	00403025 	move	a2,v0
  414d3c:	27a50020 	addiu	a1,sp,32
  414d40:	0260f809 	jalr	s3
  414d44:	02802025 	move	a0,s4
  414d48:	1000ff2d 	b	414a00 <binary_user_idle_start+0x6b8>
  414d4c:	26050001 	addiu	a1,s0,1
  414d50:	1000ffee 	b	414d0c <binary_user_idle_start+0x9c4>
  414d54:	26520004 	addiu	s2,s2,4
  414d58:	2406001d 	li	a2,29
  414d5c:	3c050040 	lui	a1,0x40
  414d60:	24a56250 	addiu	a1,a1,25168
  414d64:	0260f809 	jalr	s3
  414d68:	02802025 	move	a0,s4
  414d6c:	1000ffff 	b	414d6c <binary_user_idle_start+0xa24>
  414d70:	00000000 	nop
  414d74:	26560004 	addiu	s6,s2,4
  414d78:	00803025 	move	a2,a0
  414d7c:	92450000 	lbu	a1,0(s2)
  414d80:	0c10008e 	jal	400238 <user_PrintString+0x1c>
  414d84:	27a40020 	addiu	a0,sp,32
  414d88:	2c4303e9 	sltiu	v1,v0,1001
  414d8c:	10600006 	beqz	v1,414da8 <binary_user_idle_start+0xa60>
  414d90:	00403025 	move	a2,v0
  414d94:	27a50020 	addiu	a1,sp,32
  414d98:	0260f809 	jalr	s3
  414d9c:	02802025 	move	a0,s4
  414da0:	1000ff16 	b	4149fc <binary_user_idle_start+0x6b4>
  414da4:	02c09025 	move	s2,s6
  414da8:	2406001d 	li	a2,29
  414dac:	3c050040 	lui	a1,0x40
  414db0:	24a56250 	addiu	a1,a1,25168
  414db4:	0260f809 	jalr	s3
  414db8:	02802025 	move	a0,s4
  414dbc:	1000ffff 	b	414dbc <binary_user_idle_start+0xa74>
  414dc0:	00000000 	nop
  414dc4:	26560004 	addiu	s6,s2,4
  414dc8:	00803025 	move	a2,a0
  414dcc:	8e450000 	lw	a1,0(s2)
  414dd0:	0c1000ad 	jal	4002b4 <user_PrintString+0x98>
  414dd4:	27a40020 	addiu	a0,sp,32
  414dd8:	2c4303e9 	sltiu	v1,v0,1001
  414ddc:	10600006 	beqz	v1,414df8 <binary_user_idle_start+0xab0>
  414de0:	00403025 	move	a2,v0
  414de4:	27a50020 	addiu	a1,sp,32
  414de8:	0260f809 	jalr	s3
  414dec:	02802025 	move	a0,s4
  414df0:	1000ff02 	b	4149fc <binary_user_idle_start+0x6b4>
  414df4:	02c09025 	move	s2,s6
  414df8:	2406001d 	li	a2,29
  414dfc:	3c050040 	lui	a1,0x40
  414e00:	24a56250 	addiu	a1,a1,25168
  414e04:	0260f809 	jalr	s3
  414e08:	02802025 	move	a0,s4
  414e0c:	1000ffff 	b	414e0c <binary_user_idle_start+0xac4>
  414e10:	00000000 	nop
  414e14:	1000fef9 	b	4149fc <binary_user_idle_start+0x6b4>
  414e18:	2610ffff 	addiu	s0,s0,-1
  414e1c:	24060001 	li	a2,1
  414e20:	02002825 	move	a1,s0
  414e24:	0260f809 	jalr	s3
  414e28:	02802025 	move	a0,s4
  414e2c:	1000fef4 	b	414a00 <binary_user_idle_start+0x6b8>
  414e30:	26050001 	addiu	a1,s0,1
  414e34:	24060001 	li	a2,1
  414e38:	3c050040 	lui	a1,0x40
  414e3c:	24a56068 	addiu	a1,a1,24680
  414e40:	0260f809 	jalr	s3
  414e44:	02802025 	move	a0,s4
  414e48:	8fbf0424 	lw	ra,1060(sp)
  414e4c:	8fb60420 	lw	s6,1056(sp)
  414e50:	8fb5041c 	lw	s5,1052(sp)
  414e54:	8fb40418 	lw	s4,1048(sp)
  414e58:	8fb30414 	lw	s3,1044(sp)
  414e5c:	8fb20410 	lw	s2,1040(sp)
  414e60:	8fb1040c 	lw	s1,1036(sp)
  414e64:	8fb00408 	lw	s0,1032(sp)
  414e68:	03e00008 	jr	ra
  414e6c:	27bd0428 	addiu	sp,sp,1064
  414e70:	27bdffe8 	addiu	sp,sp,-24
  414e74:	afbf0014 	sw	ra,20(sp)
  414e78:	0c100422 	jal	401088 <syscall_mem_alloc+0x28>
  414e7c:	00002025 	move	a0,zero
  414e80:	8fbf0014 	lw	ra,20(sp)
  414e84:	03e00008 	jr	ra
  414e88:	27bd0018 	addiu	sp,sp,24
  414e8c:	27bdffe0 	addiu	sp,sp,-32
  414e90:	afbf001c 	sw	ra,28(sp)
  414e94:	afb20018 	sw	s2,24(sp)
  414e98:	afb10014 	sw	s1,20(sp)
  414e9c:	afb00010 	sw	s0,16(sp)
  414ea0:	00808825 	move	s1,a0
  414ea4:	00a09025 	move	s2,a1
  414ea8:	3c100040 	lui	s0,0x40
  414eac:	0c10040a 	jal	401028 <syscall_env_destroy+0x28>
  414eb0:	ae0065f0 	sw	zero,26096(s0)
  414eb4:	304303ff 	andi	v1,v0,0x3ff
  414eb8:	000310c0 	sll	v0,v1,0x3
  414ebc:	00431023 	subu	v0,v0,v1
  414ec0:	00021140 	sll	v0,v0,0x5
  414ec4:	3c030040 	lui	v1,0x40
  414ec8:	8c636000 	lw	v1,24576(v1)
  414ecc:	00621021 	addu	v0,v1,v0
  414ed0:	ae0265f0 	sw	v0,26096(s0)
  414ed4:	02402825 	move	a1,s2
  414ed8:	0c100037 	jal	4000dc <user_myoutput>
  414edc:	02202025 	move	a0,s1
  414ee0:	0c1002b5 	jal	400ad4 <user_bcopy+0x18>
  414ee4:	00000000 	nop
  414ee8:	00851025 	or	v0,a0,a1
  414eec:	30420003 	andi	v0,v0,0x3
  414ef0:	14400013 	bnez	v0,414f40 <binary_user_idle_start+0xbf8>
  414ef4:	00a63021 	addu	a2,a1,a2
  414ef8:	24a20003 	addiu	v0,a1,3
  414efc:	0046102b 	sltu	v0,v0,a2
  414f00:	00a01825 	move	v1,a1
  414f04:	1040000e 	beqz	v0,414f40 <binary_user_idle_start+0xbf8>
  414f08:	00803825 	move	a3,a0
  414f0c:	8ce20000 	lw	v0,0(a3)
  414f10:	ac620000 	sw	v0,0(v1)
  414f14:	24e70004 	addiu	a3,a3,4
  414f18:	24620007 	addiu	v0,v1,7
  414f1c:	0046102b 	sltu	v0,v0,a2
  414f20:	1440fffa 	bnez	v0,414f0c <binary_user_idle_start+0xbc4>
  414f24:	24630004 	addiu	v1,v1,4
  414f28:	00c51023 	subu	v0,a2,a1
  414f2c:	2442fffc 	addiu	v0,v0,-4
  414f30:	7c020804 	ins	v0,zero,0x0,0x2
  414f34:	24420004 	addiu	v0,v0,4
  414f38:	00a22821 	addu	a1,a1,v0
  414f3c:	00822021 	addu	a0,a0,v0
  414f40:	00a6102b 	sltu	v0,a1,a2
  414f44:	10400008 	beqz	v0,414f68 <binary_user_idle_start+0xc20>
  414f48:	00000000 	nop
  414f4c:	90820000 	lbu	v0,0(a0)
  414f50:	a0a20000 	sb	v0,0(a1)
  414f54:	24a50001 	addiu	a1,a1,1
  414f58:	14c5fffc 	bne	a2,a1,414f4c <binary_user_idle_start+0xc04>
  414f5c:	24840001 	addiu	a0,a0,1
  414f60:	03e00008 	jr	ra
  414f64:	00000000 	nop
  414f68:	03e00008 	jr	ra
  414f6c:	00000000 	nop
  414f70:	27bdffd8 	addiu	sp,sp,-40
  414f74:	afbf0024 	sw	ra,36(sp)
  414f78:	afb20020 	sw	s2,32(sp)
  414f7c:	afb1001c 	sw	s1,28(sp)
  414f80:	afb00018 	sw	s0,24(sp)
  414f84:	00808825 	move	s1,a0
  414f88:	00042302 	srl	a0,a0,0xc
  414f8c:	00042080 	sll	a0,a0,0x2
  414f90:	3c020040 	lui	v0,0x40
  414f94:	8c426008 	lw	v0,24584(v0)
  414f98:	00442021 	addu	a0,v0,a0
  414f9c:	8c820000 	lw	v0,0(a0)
  414fa0:	30500fff 	andi	s0,v0,0xfff
  414fa4:	30420001 	andi	v0,v0,0x1
  414fa8:	1040001f 	beqz	v0,415028 <binary_user_idle_start+0xce0>
  414fac:	7c115804 	ins	s1,zero,0x0,0xc
  414fb0:	7c100004 	ins	s0,zero,0x0,0x1
  414fb4:	02003025 	move	a2,s0
  414fb8:	3c057f3f 	lui	a1,0x7f3f
  414fbc:	34a5e000 	ori	a1,a1,0xe000
  414fc0:	0c10043a 	jal	4010e8 <syscall_mem_unmap+0x24>
  414fc4:	00002025 	move	a0,zero
  414fc8:	0440001d 	bltz	v0,415040 <binary_user_idle_start+0xcf8>
  414fcc:	24061000 	li	a2,4096
  414fd0:	3c127f3f 	lui	s2,0x7f3f
  414fd4:	3645e000 	ori	a1,s2,0xe000
  414fd8:	0c1002d3 	jal	400b4c <pgfault+0x8>
  414fdc:	02202025 	move	a0,s1
  414fe0:	afb00010 	sw	s0,16(sp)
  414fe4:	02203825 	move	a3,s1
  414fe8:	00003025 	move	a2,zero
  414fec:	3645e000 	ori	a1,s2,0xe000
  414ff0:	0c100446 	jal	401118 <syscall_set_env_status+0x24>
  414ff4:	00002025 	move	a0,zero
  414ff8:	04400017 	bltz	v0,415058 <binary_user_idle_start+0xd10>
  414ffc:	3c057f3f 	lui	a1,0x7f3f
  415000:	34a5e000 	ori	a1,a1,0xe000
  415004:	0c100453 	jal	40114c <syscall_set_trapframe+0x28>
  415008:	00002025 	move	a0,zero
  41500c:	04400018 	bltz	v0,415070 <binary_user_idle_start+0xd28>
  415010:	8fbf0024 	lw	ra,36(sp)
  415014:	8fb20020 	lw	s2,32(sp)
  415018:	8fb1001c 	lw	s1,28(sp)
  41501c:	8fb00018 	lw	s0,24(sp)
  415020:	03e00008 	jr	ra
  415024:	27bd0028 	addiu	sp,sp,40
  415028:	3c060040 	lui	a2,0x40
  41502c:	24c6628c 	addiu	a2,a2,25228
  415030:	2405005b 	li	a1,91
  415034:	3c040040 	lui	a0,0x40
  415038:	0c100077 	jal	4001dc <user_PrintChar+0x3c>
  41503c:	2484629c 	addiu	a0,a0,25244
  415040:	3c060040 	lui	a2,0x40
  415044:	24c662a4 	addiu	a2,a2,25252
  415048:	2405005f 	li	a1,95
  41504c:	3c040040 	lui	a0,0x40
  415050:	0c100077 	jal	4001dc <user_PrintChar+0x3c>
  415054:	2484629c 	addiu	a0,a0,25244
  415058:	3c060040 	lui	a2,0x40
  41505c:	24c662bc 	addiu	a2,a2,25276
  415060:	24050063 	li	a1,99
  415064:	3c040040 	lui	a0,0x40
  415068:	0c100077 	jal	4001dc <user_PrintChar+0x3c>
  41506c:	2484629c 	addiu	a0,a0,25244
  415070:	3c060040 	lui	a2,0x40
  415074:	24c662d4 	addiu	a2,a2,25300
  415078:	24050066 	li	a1,102
  41507c:	3c040040 	lui	a0,0x40
  415080:	0c100077 	jal	4001dc <user_PrintChar+0x3c>
  415084:	2484629c 	addiu	a0,a0,25244
  415088:	24a2ffff 	addiu	v0,a1,-1
  41508c:	04400005 	bltz	v0,4150a4 <binary_user_idle_start+0xd5c>
  415090:	00000000 	nop
  415094:	00852821 	addu	a1,a0,a1
  415098:	24840001 	addiu	a0,a0,1
  41509c:	14a4fffe 	bne	a1,a0,415098 <binary_user_idle_start+0xd50>
  4150a0:	a080ffff 	sb	zero,-1(a0)
  4150a4:	03e00008 	jr	ra
  4150a8:	00000000 	nop
  4150ac:	27bdffc0 	addiu	sp,sp,-64
  4150b0:	afbf003c 	sw	ra,60(sp)
  4150b4:	afbe0038 	sw	s8,56(sp)
  4150b8:	afb70034 	sw	s7,52(sp)
  4150bc:	afb60030 	sw	s6,48(sp)
  4150c0:	afb5002c 	sw	s5,44(sp)
  4150c4:	afb40028 	sw	s4,40(sp)
  4150c8:	afb30024 	sw	s3,36(sp)
  4150cc:	afb20020 	sw	s2,32(sp)
  4150d0:	afb1001c 	sw	s1,28(sp)
  4150d4:	afb00018 	sw	s0,24(sp)
  4150d8:	3c040040 	lui	a0,0x40
  4150dc:	0c1003df 	jal	400f7c <syscall_putchar+0xc>
  4150e0:	24840bd4 	addiu	a0,a0,3028
  4150e4:	afa00014 	sw	zero,20(sp)
  4150e8:	afa00010 	sw	zero,16(sp)
  4150ec:	00003825 	move	a3,zero
  4150f0:	00003025 	move	a2,zero
  4150f4:	00002825 	move	a1,zero
  4150f8:	0c100030 	jal	4000c0 <msyscall>
  4150fc:	2404253f 	li	a0,9535
  415100:	10400009 	beqz	v0,415128 <binary_user_idle_start+0xde0>
  415104:	0040b025 	move	s6,v0
  415108:	0040a025 	move	s4,v0
  41510c:	00008025 	move	s0,zero
  415110:	3c120040 	lui	s2,0x40
  415114:	3c130040 	lui	s3,0x40
  415118:	24150400 	li	s5,1024
  41511c:	3c117f3f 	lui	s1,0x7f3f
  415120:	1000001f 	b	4151a0 <binary_user_idle_start+0xe58>
  415124:	3631e000 	ori	s1,s1,0xe000
  415128:	3c020040 	lui	v0,0x40
  41512c:	0c10040a 	jal	401028 <syscall_env_destroy+0x28>
  415130:	8c506000 	lw	s0,24576(v0)
  415134:	304303ff 	andi	v1,v0,0x3ff
  415138:	000310c0 	sll	v0,v1,0x3
  41513c:	00431023 	subu	v0,v0,v1
  415140:	00021140 	sll	v0,v0,0x5
  415144:	02021021 	addu	v0,s0,v0
  415148:	3c030040 	lui	v1,0x40
  41514c:	10000051 	b	415294 <binary_user_idle_start+0xf4c>
  415150:	ac6265f0 	sw	v0,26096(v1)
  415154:	36f70001 	ori	s7,s7,0x1
  415158:	0005f300 	sll	s8,a1,0xc
  41515c:	afb70010 	sw	s7,16(sp)
  415160:	03c03825 	move	a3,s8
  415164:	03c02825 	move	a1,s8
  415168:	0c100446 	jal	401118 <syscall_set_env_status+0x24>
  41516c:	00002025 	move	a0,zero
  415170:	0440002f 	bltz	v0,415230 <binary_user_idle_start+0xee8>
  415174:	03c03825 	move	a3,s8
  415178:	afb70010 	sw	s7,16(sp)
  41517c:	00003025 	move	a2,zero
  415180:	03c02825 	move	a1,s8
  415184:	0c100446 	jal	401118 <syscall_set_env_status+0x24>
  415188:	00002025 	move	a0,zero
  41518c:	0440002e 	bltz	v0,415248 <binary_user_idle_start+0xf00>
  415190:	3c060040 	lui	a2,0x40
  415194:	26101000 	addiu	s0,s0,4096
  415198:	12110030 	beq	s0,s1,41525c <binary_user_idle_start+0xf14>
  41519c:	24060600 	li	a2,1536
  4151a0:	00101582 	srl	v0,s0,0x16
  4151a4:	00021880 	sll	v1,v0,0x2
  4151a8:	8e42600c 	lw	v0,24588(s2)
  4151ac:	00431021 	addu	v0,v0,v1
  4151b0:	8c420000 	lw	v0,0(v0)
  4151b4:	30420200 	andi	v0,v0,0x200
  4151b8:	5040fff7 	beqzl	v0,415198 <binary_user_idle_start+0xe50>
  4151bc:	26101000 	addiu	s0,s0,4096
  4151c0:	00102b02 	srl	a1,s0,0xc
  4151c4:	00051880 	sll	v1,a1,0x2
  4151c8:	8e626008 	lw	v0,24584(s3)
  4151cc:	00431021 	addu	v0,v0,v1
  4151d0:	8c430000 	lw	v1,0(v0)
  4151d4:	30630200 	andi	v1,v1,0x200
  4151d8:	5060ffef 	beqzl	v1,415198 <binary_user_idle_start+0xe50>
  4151dc:	26101000 	addiu	s0,s0,4096
  4151e0:	8c420000 	lw	v0,0(v0)
  4151e4:	30430200 	andi	v1,v0,0x200
  4151e8:	1060ffea 	beqz	v1,415194 <binary_user_idle_start+0xe4c>
  4151ec:	30570fff 	andi	s7,v0,0xfff
  4151f0:	30420404 	andi	v0,v0,0x404
  4151f4:	1055ffd7 	beq	v0,s5,415154 <binary_user_idle_start+0xe0c>
  4151f8:	02803025 	move	a2,s4
  4151fc:	00052b00 	sll	a1,a1,0xc
  415200:	afb70010 	sw	s7,16(sp)
  415204:	00a03825 	move	a3,a1
  415208:	0c100446 	jal	401118 <syscall_set_env_status+0x24>
  41520c:	00002025 	move	a0,zero
  415210:	0443ffe1 	bgezl	v0,415198 <binary_user_idle_start+0xe50>
  415214:	26101000 	addiu	s0,s0,4096
  415218:	3c060040 	lui	a2,0x40
  41521c:	24c662ec 	addiu	a2,a2,25324
  415220:	24050094 	li	a1,148
  415224:	3c040040 	lui	a0,0x40
  415228:	0c100077 	jal	4001dc <user_PrintChar+0x3c>
  41522c:	2484629c 	addiu	a0,a0,25244
  415230:	3c060040 	lui	a2,0x40
  415234:	24c662ec 	addiu	a2,a2,25324
  415238:	2405008e 	li	a1,142
  41523c:	3c040040 	lui	a0,0x40
  415240:	0c100077 	jal	4001dc <user_PrintChar+0x3c>
  415244:	2484629c 	addiu	a0,a0,25244
  415248:	24c66318 	addiu	a2,a2,25368
  41524c:	24050090 	li	a1,144
  415250:	3c040040 	lui	a0,0x40
  415254:	0c100077 	jal	4001dc <user_PrintChar+0x3c>
  415258:	2484629c 	addiu	a0,a0,25244
  41525c:	3c057f3f 	lui	a1,0x7f3f
  415260:	34a5f000 	ori	a1,a1,0xf000
  415264:	0c10043a 	jal	4010e8 <syscall_mem_unmap+0x24>
  415268:	02802025 	move	a0,s4
  41526c:	04400016 	bltz	v0,4152c8 <binary_user_idle_start+0xf80>
  415270:	3c067f40 	lui	a2,0x7f40
  415274:	3c050040 	lui	a1,0x40
  415278:	24a50014 	addiu	a1,a1,20
  41527c:	0c10042e 	jal	4010b8 <syscall_mem_map+0x28>
  415280:	02802025 	move	a0,s4
  415284:	04400016 	bltz	v0,4152e0 <binary_user_idle_start+0xf98>
  415288:	24050001 	li	a1,1
  41528c:	0c10045f 	jal	40117c <syscall_panic+0x28>
  415290:	02802025 	move	a0,s4
  415294:	02c01025 	move	v0,s6
  415298:	8fbf003c 	lw	ra,60(sp)
  41529c:	8fbe0038 	lw	s8,56(sp)
  4152a0:	8fb70034 	lw	s7,52(sp)
  4152a4:	8fb60030 	lw	s6,48(sp)
  4152a8:	8fb5002c 	lw	s5,44(sp)
  4152ac:	8fb40028 	lw	s4,40(sp)
  4152b0:	8fb30024 	lw	s3,36(sp)
  4152b4:	8fb20020 	lw	s2,32(sp)
  4152b8:	8fb1001c 	lw	s1,28(sp)
  4152bc:	8fb00018 	lw	s0,24(sp)
  4152c0:	03e00008 	jr	ra
  4152c4:	27bd0040 	addiu	sp,sp,64
  4152c8:	3c060040 	lui	a2,0x40
  4152cc:	24c66348 	addiu	a2,a2,25416
  4152d0:	240500c3 	li	a1,195
  4152d4:	3c040040 	lui	a0,0x40
  4152d8:	0c100077 	jal	4001dc <user_PrintChar+0x3c>
  4152dc:	2484629c 	addiu	a0,a0,25244
  4152e0:	3c060040 	lui	a2,0x40
  4152e4:	24c66360 	addiu	a2,a2,25440
  4152e8:	240500c6 	li	a1,198
  4152ec:	3c040040 	lui	a0,0x40
  4152f0:	0c100077 	jal	4001dc <user_PrintChar+0x3c>
  4152f4:	2484629c 	addiu	a0,a0,25244
  4152f8:	27bdffe8 	addiu	sp,sp,-24
  4152fc:	afbf0014 	sw	ra,20(sp)
  415300:	3c060040 	lui	a2,0x40
  415304:	24c66378 	addiu	a2,a2,25464
  415308:	240500d1 	li	a1,209
  41530c:	3c040040 	lui	a0,0x40
  415310:	0c100077 	jal	4001dc <user_PrintChar+0x3c>
  415314:	2484629c 	addiu	a0,a0,25244
  415318:	27bdffe8 	addiu	sp,sp,-24
  41531c:	afbf0014 	sw	ra,20(sp)
  415320:	afb00010 	sw	s0,16(sp)
  415324:	3c020040 	lui	v0,0x40
  415328:	8c426010 	lw	v0,24592(v0)
  41532c:	10400007 	beqz	v0,41534c <binary_user_idle_start+0x1004>
  415330:	00808025 	move	s0,a0
  415334:	3c020040 	lui	v0,0x40
  415338:	ac506010 	sw	s0,24592(v0)
  41533c:	8fbf0014 	lw	ra,20(sp)
  415340:	8fb00010 	lw	s0,16(sp)
  415344:	03e00008 	jr	ra
  415348:	27bd0018 	addiu	sp,sp,24
  41534c:	24060600 	li	a2,1536
  415350:	3c057f3f 	lui	a1,0x7f3f
  415354:	34a5f000 	ori	a1,a1,0xf000
  415358:	0c10043a 	jal	4010e8 <syscall_mem_unmap+0x24>
  41535c:	00002025 	move	a0,zero
  415360:	04400007 	bltz	v0,415380 <binary_user_idle_start+0x1038>
  415364:	3c067f40 	lui	a2,0x7f40
  415368:	3c050040 	lui	a1,0x40
  41536c:	24a50014 	addiu	a1,a1,20
  415370:	0c10042e 	jal	4010b8 <syscall_mem_map+0x28>
  415374:	00002025 	move	a0,zero
  415378:	0441ffef 	bgez	v0,415338 <binary_user_idle_start+0xff0>
  41537c:	3c020040 	lui	v0,0x40
  415380:	3c040040 	lui	a0,0x40
  415384:	0c100068 	jal	4001a0 <user_PrintChar>
  415388:	24846390 	addiu	a0,a0,25488
  41538c:	1000ffec 	b	415340 <binary_user_idle_start+0xff8>
  415390:	8fbf0014 	lw	ra,20(sp)
  415394:	27bdffe0 	addiu	sp,sp,-32
  415398:	afbf001c 	sw	ra,28(sp)
  41539c:	afa00014 	sw	zero,20(sp)
  4153a0:	afa00010 	sw	zero,16(sp)
  4153a4:	00003825 	move	a3,zero
  4153a8:	00003025 	move	a2,zero
  4153ac:	00802825 	move	a1,a0
  4153b0:	0c100030 	jal	4000c0 <msyscall>
  4153b4:	24042537 	li	a0,9527
  4153b8:	8fbf001c 	lw	ra,28(sp)
  4153bc:	03e00008 	jr	ra
  4153c0:	27bd0020 	addiu	sp,sp,32
  4153c4:	27bdffe0 	addiu	sp,sp,-32
  4153c8:	afbf001c 	sw	ra,28(sp)
  4153cc:	afa00014 	sw	zero,20(sp)
  4153d0:	afa00010 	sw	zero,16(sp)
  4153d4:	00003825 	move	a3,zero
  4153d8:	00003025 	move	a2,zero
  4153dc:	00002825 	move	a1,zero
  4153e0:	0c100030 	jal	4000c0 <msyscall>
  4153e4:	24042538 	li	a0,9528
  4153e8:	8fbf001c 	lw	ra,28(sp)
  4153ec:	03e00008 	jr	ra
  4153f0:	27bd0020 	addiu	sp,sp,32
  4153f4:	27bdffe0 	addiu	sp,sp,-32
  4153f8:	afbf001c 	sw	ra,28(sp)
  4153fc:	afa00014 	sw	zero,20(sp)
  415400:	afa00010 	sw	zero,16(sp)
  415404:	00003825 	move	a3,zero
  415408:	00003025 	move	a2,zero
  41540c:	00002825 	move	a1,zero
  415410:	0c100030 	jal	4000c0 <msyscall>
  415414:	24042539 	li	a0,9529
  415418:	8fbf001c 	lw	ra,28(sp)
  41541c:	03e00008 	jr	ra
  415420:	27bd0020 	addiu	sp,sp,32
  415424:	27bdffe0 	addiu	sp,sp,-32
  415428:	afbf001c 	sw	ra,28(sp)
  41542c:	afa00014 	sw	zero,20(sp)
  415430:	afa00010 	sw	zero,16(sp)
  415434:	00003825 	move	a3,zero
  415438:	00003025 	move	a2,zero
  41543c:	00802825 	move	a1,a0
  415440:	0c100030 	jal	4000c0 <msyscall>
  415444:	2404253a 	li	a0,9530
  415448:	8fbf001c 	lw	ra,28(sp)
  41544c:	03e00008 	jr	ra
  415450:	27bd0020 	addiu	sp,sp,32
  415454:	27bdffe0 	addiu	sp,sp,-32
  415458:	afbf001c 	sw	ra,28(sp)
  41545c:	afa00014 	sw	zero,20(sp)
  415460:	afa00010 	sw	zero,16(sp)
  415464:	00c03825 	move	a3,a2
  415468:	00a03025 	move	a2,a1
  41546c:	00802825 	move	a1,a0
  415470:	0c100030 	jal	4000c0 <msyscall>
  415474:	2404253b 	li	a0,9531
  415478:	8fbf001c 	lw	ra,28(sp)
  41547c:	03e00008 	jr	ra
  415480:	27bd0020 	addiu	sp,sp,32
  415484:	27bdffe0 	addiu	sp,sp,-32
  415488:	afbf001c 	sw	ra,28(sp)
  41548c:	afa00014 	sw	zero,20(sp)
  415490:	afa00010 	sw	zero,16(sp)
  415494:	00c03825 	move	a3,a2
  415498:	00a03025 	move	a2,a1
  41549c:	00802825 	move	a1,a0
  4154a0:	0c100030 	jal	4000c0 <msyscall>
  4154a4:	2404253c 	li	a0,9532
  4154a8:	8fbf001c 	lw	ra,28(sp)
  4154ac:	03e00008 	jr	ra
  4154b0:	27bd0020 	addiu	sp,sp,32
  4154b4:	27bdffe0 	addiu	sp,sp,-32
  4154b8:	afbf001c 	sw	ra,28(sp)
  4154bc:	8fa20030 	lw	v0,48(sp)
  4154c0:	afa20014 	sw	v0,20(sp)
  4154c4:	afa70010 	sw	a3,16(sp)
  4154c8:	00c03825 	move	a3,a2
  4154cc:	00a03025 	move	a2,a1
  4154d0:	00802825 	move	a1,a0
  4154d4:	0c100030 	jal	4000c0 <msyscall>
  4154d8:	2404253d 	li	a0,9533
  4154dc:	8fbf001c 	lw	ra,28(sp)
  4154e0:	03e00008 	jr	ra
  4154e4:	27bd0020 	addiu	sp,sp,32
  4154e8:	27bdffe0 	addiu	sp,sp,-32
  4154ec:	afbf001c 	sw	ra,28(sp)
  4154f0:	afa00014 	sw	zero,20(sp)
  4154f4:	afa00010 	sw	zero,16(sp)
  4154f8:	00003825 	move	a3,zero
  4154fc:	00a03025 	move	a2,a1
  415500:	00802825 	move	a1,a0
  415504:	0c100030 	jal	4000c0 <msyscall>
  415508:	2404253e 	li	a0,9534
  41550c:	8fbf001c 	lw	ra,28(sp)
  415510:	03e00008 	jr	ra
  415514:	27bd0020 	addiu	sp,sp,32
  415518:	27bdffe0 	addiu	sp,sp,-32
  41551c:	afbf001c 	sw	ra,28(sp)
  415520:	afa00014 	sw	zero,20(sp)
  415524:	afa00010 	sw	zero,16(sp)
  415528:	00003825 	move	a3,zero
  41552c:	00a03025 	move	a2,a1
  415530:	00802825 	move	a1,a0
  415534:	0c100030 	jal	4000c0 <msyscall>
  415538:	24042540 	li	a0,9536
  41553c:	8fbf001c 	lw	ra,28(sp)
  415540:	03e00008 	jr	ra
  415544:	27bd0020 	addiu	sp,sp,32
  415548:	27bdffe0 	addiu	sp,sp,-32
  41554c:	afbf001c 	sw	ra,28(sp)
  415550:	afa00014 	sw	zero,20(sp)
  415554:	afa00010 	sw	zero,16(sp)
  415558:	00003825 	move	a3,zero
  41555c:	00a03025 	move	a2,a1
  415560:	00802825 	move	a1,a0
  415564:	0c100030 	jal	4000c0 <msyscall>
  415568:	24042541 	li	a0,9537
  41556c:	8fbf001c 	lw	ra,28(sp)
  415570:	03e00008 	jr	ra
  415574:	27bd0020 	addiu	sp,sp,32
  415578:	27bdffe0 	addiu	sp,sp,-32
  41557c:	afbf001c 	sw	ra,28(sp)
  415580:	afa00014 	sw	zero,20(sp)
  415584:	afa00010 	sw	zero,16(sp)
  415588:	00003825 	move	a3,zero
  41558c:	00003025 	move	a2,zero
  415590:	00802825 	move	a1,a0
  415594:	0c100030 	jal	4000c0 <msyscall>
  415598:	24042542 	li	a0,9538
  41559c:	8fbf001c 	lw	ra,28(sp)
  4155a0:	03e00008 	jr	ra
  4155a4:	27bd0020 	addiu	sp,sp,32
  4155a8:	27bdffe0 	addiu	sp,sp,-32
  4155ac:	afbf001c 	sw	ra,28(sp)
  4155b0:	afa00014 	sw	zero,20(sp)
  4155b4:	afa70010 	sw	a3,16(sp)
  4155b8:	00c03825 	move	a3,a2
  4155bc:	00a03025 	move	a2,a1
  4155c0:	00802825 	move	a1,a0
  4155c4:	0c100030 	jal	4000c0 <msyscall>
  4155c8:	24042543 	li	a0,9539
  4155cc:	8fbf001c 	lw	ra,28(sp)
  4155d0:	03e00008 	jr	ra
  4155d4:	27bd0020 	addiu	sp,sp,32
  4155d8:	27bdffe0 	addiu	sp,sp,-32
  4155dc:	afbf001c 	sw	ra,28(sp)
  4155e0:	afa00014 	sw	zero,20(sp)
  4155e4:	afa00010 	sw	zero,16(sp)
  4155e8:	00003825 	move	a3,zero
  4155ec:	00003025 	move	a2,zero
  4155f0:	00802825 	move	a1,a0
  4155f4:	0c100030 	jal	4000c0 <msyscall>
  4155f8:	24042544 	li	a0,9540
  4155fc:	8fbf001c 	lw	ra,28(sp)
  415600:	03e00008 	jr	ra
  415604:	27bd0020 	addiu	sp,sp,32
  415608:	27bdffe0 	addiu	sp,sp,-32
  41560c:	afbf001c 	sw	ra,28(sp)
  415610:	afa00014 	sw	zero,20(sp)
  415614:	afa00010 	sw	zero,16(sp)
  415618:	00003825 	move	a3,zero
  41561c:	00003025 	move	a2,zero
  415620:	00002825 	move	a1,zero
  415624:	0c100030 	jal	4000c0 <msyscall>
  415628:	24042545 	li	a0,9541
  41562c:	8fbf001c 	lw	ra,28(sp)
  415630:	03e00008 	jr	ra
  415634:	27bd0020 	addiu	sp,sp,32
  415638:	27bdffe0 	addiu	sp,sp,-32
  41563c:	afbf001c 	sw	ra,28(sp)
  415640:	afa00014 	sw	zero,20(sp)
  415644:	afa00010 	sw	zero,16(sp)
  415648:	00c03825 	move	a3,a2
  41564c:	00a03025 	move	a2,a1
  415650:	00802825 	move	a1,a0
  415654:	0c100030 	jal	4000c0 <msyscall>
  415658:	24042546 	li	a0,9542
  41565c:	8fbf001c 	lw	ra,28(sp)
  415660:	03e00008 	jr	ra
  415664:	27bd0020 	addiu	sp,sp,32
  415668:	27bdffe0 	addiu	sp,sp,-32
  41566c:	afbf001c 	sw	ra,28(sp)
  415670:	afa00014 	sw	zero,20(sp)
  415674:	afa00010 	sw	zero,16(sp)
  415678:	00c03825 	move	a3,a2
  41567c:	00a03025 	move	a2,a1
  415680:	00802825 	move	a1,a0
  415684:	0c100030 	jal	4000c0 <msyscall>
  415688:	24042547 	li	a0,9543
  41568c:	8fbf001c 	lw	ra,28(sp)
  415690:	03e00008 	jr	ra
  415694:	27bd0020 	addiu	sp,sp,32
  415698:	27bdffd8 	addiu	sp,sp,-40
  41569c:	afbf0024 	sw	ra,36(sp)
  4156a0:	afb40020 	sw	s4,32(sp)
  4156a4:	afb3001c 	sw	s3,28(sp)
  4156a8:	afb20018 	sw	s2,24(sp)
  4156ac:	afb10014 	sw	s1,20(sp)
  4156b0:	afb00010 	sw	s0,16(sp)
  4156b4:	0080a025 	move	s4,a0
  4156b8:	00a09825 	move	s3,a1
  4156bc:	00c09025 	move	s2,a2
  4156c0:	00e08825 	move	s1,a3
  4156c4:	10000003 	b	4156d4 <binary_user_idle_start+0x138c>
  4156c8:	2410fff9 	li	s0,-7
  4156cc:	0c100416 	jal	401058 <syscall_set_pgfault_handler+0x28>
  4156d0:	00000000 	nop
  4156d4:	02203825 	move	a3,s1
  4156d8:	02403025 	move	a2,s2
  4156dc:	02602825 	move	a1,s3
  4156e0:	0c100483 	jal	40120c <syscall_cgetc+0x28>
  4156e4:	02802025 	move	a0,s4
  4156e8:	1050fff8 	beq	v0,s0,4156cc <binary_user_idle_start+0x1384>
  4156ec:	00000000 	nop
  4156f0:	14400008 	bnez	v0,415714 <binary_user_idle_start+0x13cc>
  4156f4:	8fbf0024 	lw	ra,36(sp)
  4156f8:	8fb40020 	lw	s4,32(sp)
  4156fc:	8fb3001c 	lw	s3,28(sp)
  415700:	8fb20018 	lw	s2,24(sp)
  415704:	8fb10014 	lw	s1,20(sp)
  415708:	8fb00010 	lw	s0,16(sp)
  41570c:	03e00008 	jr	ra
  415710:	27bd0028 	addiu	sp,sp,40
  415714:	00403825 	move	a3,v0
  415718:	3c060040 	lui	a2,0x40
  41571c:	24c663ac 	addiu	a2,a2,25516
  415720:	24050019 	li	a1,25
  415724:	3c040040 	lui	a0,0x40
  415728:	0c100077 	jal	4001dc <user_PrintChar+0x3c>
  41572c:	248463c4 	addiu	a0,a0,25540
  415730:	27bdffe0 	addiu	sp,sp,-32
  415734:	afbf001c 	sw	ra,28(sp)
  415738:	afb10018 	sw	s1,24(sp)
  41573c:	afb00014 	sw	s0,20(sp)
  415740:	00808825 	move	s1,a0
  415744:	00c08025 	move	s0,a2
  415748:	0c10048f 	jal	40123c <syscall_write_dev+0x28>
  41574c:	00a02025 	move	a0,a1
  415750:	12200004 	beqz	s1,415764 <binary_user_idle_start+0x141c>
  415754:	3c020040 	lui	v0,0x40
  415758:	8c4265f0 	lw	v0,26096(v0)
  41575c:	8c4200c4 	lw	v0,196(v0)
  415760:	ae220000 	sw	v0,0(s1)
  415764:	12000004 	beqz	s0,415778 <binary_user_idle_start+0x1430>
  415768:	3c020040 	lui	v0,0x40
  41576c:	8c4265f0 	lw	v0,26096(v0)
  415770:	8c4200d0 	lw	v0,208(v0)
  415774:	ae020000 	sw	v0,0(s0)
  415778:	3c020040 	lui	v0,0x40
  41577c:	8c4265f0 	lw	v0,26096(v0)
  415780:	8c4200c0 	lw	v0,192(v0)
  415784:	8fbf001c 	lw	ra,28(sp)
  415788:	8fb10018 	lw	s1,24(sp)
  41578c:	8fb00014 	lw	s0,20(sp)
  415790:	03e00008 	jr	ra
  415794:	27bd0020 	addiu	sp,sp,32
  415798:	90820000 	lbu	v0,0(a0)
  41579c:	10400008 	beqz	v0,4157c0 <binary_user_idle_start+0x1478>
  4157a0:	00000000 	nop
  4157a4:	00001025 	move	v0,zero
  4157a8:	24840001 	addiu	a0,a0,1
  4157ac:	90830000 	lbu	v1,0(a0)
  4157b0:	1460fffd 	bnez	v1,4157a8 <binary_user_idle_start+0x1460>
  4157b4:	24420001 	addiu	v0,v0,1
  4157b8:	03e00008 	jr	ra
  4157bc:	00000000 	nop
  4157c0:	03e00008 	jr	ra
  4157c4:	00001025 	move	v0,zero
  4157c8:	00801025 	move	v0,a0
  4157cc:	00801825 	move	v1,a0
  4157d0:	24630001 	addiu	v1,v1,1
  4157d4:	24a50001 	addiu	a1,a1,1
  4157d8:	90a6ffff 	lbu	a2,-1(a1)
  4157dc:	14c0fffc 	bnez	a2,4157d0 <binary_user_idle_start+0x1488>
  4157e0:	a066ffff 	sb	a2,-1(v1)
  4157e4:	03e00008 	jr	ra
  4157e8:	00000000 	nop
  4157ec:	90820000 	lbu	v0,0(a0)
  4157f0:	1040000d 	beqz	v0,415828 <binary_user_idle_start+0x14e0>
  4157f4:	00000000 	nop
  4157f8:	10a2000d 	beq	a1,v0,415830 <binary_user_idle_start+0x14e8>
  4157fc:	00000000 	nop
  415800:	24840001 	addiu	a0,a0,1
  415804:	90820000 	lbu	v0,0(a0)
  415808:	10400005 	beqz	v0,415820 <binary_user_idle_start+0x14d8>
  41580c:	00000000 	nop
  415810:	5445fffc 	bnel	v0,a1,415804 <binary_user_idle_start+0x14bc>
  415814:	24840001 	addiu	a0,a0,1
  415818:	03e00008 	jr	ra
  41581c:	00801025 	move	v0,a0
  415820:	03e00008 	jr	ra
  415824:	00000000 	nop
  415828:	03e00008 	jr	ra
  41582c:	00001025 	move	v0,zero
  415830:	03e00008 	jr	ra
  415834:	00801025 	move	v0,a0
  415838:	10c00008 	beqz	a2,41585c <binary_user_idle_start+0x1514>
  41583c:	00801025 	move	v0,a0
  415840:	00863021 	addu	a2,a0,a2
  415844:	00801825 	move	v1,a0
  415848:	24630001 	addiu	v1,v1,1
  41584c:	24a50001 	addiu	a1,a1,1
  415850:	90a7ffff 	lbu	a3,-1(a1)
  415854:	14c3fffc 	bne	a2,v1,415848 <binary_user_idle_start+0x1500>
  415858:	a067ffff 	sb	a3,-1(v1)
  41585c:	03e00008 	jr	ra
  415860:	00000000 	nop
  415864:	90830000 	lbu	v1,0(a0)
  415868:	5060000c 	beqzl	v1,41589c <binary_user_idle_start+0x1554>
  41586c:	90a40000 	lbu	a0,0(a1)
  415870:	90a20000 	lbu	v0,0(a1)
  415874:	54430009 	bnel	v0,v1,41589c <binary_user_idle_start+0x1554>
  415878:	90a40000 	lbu	a0,0(a1)
  41587c:	24840001 	addiu	a0,a0,1
  415880:	90830000 	lbu	v1,0(a0)
  415884:	10600004 	beqz	v1,415898 <binary_user_idle_start+0x1550>
  415888:	24a50001 	addiu	a1,a1,1
  41588c:	90a20000 	lbu	v0,0(a1)
  415890:	1043fffb 	beq	v0,v1,415880 <binary_user_idle_start+0x1538>
  415894:	24840001 	addiu	a0,a0,1
  415898:	90a40000 	lbu	a0,0(a1)
  41589c:	0064282b 	sltu	a1,v1,a0
  4158a0:	0083182b 	sltu	v1,a0,v1
  4158a4:	2402ffff 	li	v0,-1
  4158a8:	03e00008 	jr	ra
  4158ac:	0065100a 	movz	v0,v1,a1
  4158b0:	3c020040 	lui	v0,0x40
  4158b4:	8c426014 	lw	v0,24596(v0)
  4158b8:	1082001a 	beq	a0,v0,415924 <binary_user_idle_start+0x15dc>
  4158bc:	3c020040 	lui	v0,0x40
  4158c0:	3c020040 	lui	v0,0x40
  4158c4:	8c42604c 	lw	v0,24652(v0)
  4158c8:	10820012 	beq	a0,v0,415914 <binary_user_idle_start+0x15cc>
  4158cc:	3c020040 	lui	v0,0x40
  4158d0:	3c020040 	lui	v0,0x40
  4158d4:	8c426030 	lw	v0,24624(v0)
  4158d8:	10820010 	beq	a0,v0,41591c <binary_user_idle_start+0x15d4>
  4158dc:	3c020040 	lui	v0,0x40
  4158e0:	27bdffe8 	addiu	sp,sp,-24
  4158e4:	afbf0014 	sw	ra,20(sp)
  4158e8:	00803025 	move	a2,a0
  4158ec:	3c020040 	lui	v0,0x40
  4158f0:	8c4265f0 	lw	v0,26096(v0)
  4158f4:	8c4500a4 	lw	a1,164(v0)
  4158f8:	3c040040 	lui	a0,0x40
  4158fc:	0c100068 	jal	4001a0 <user_PrintChar>
  415900:	248463cc 	addiu	a0,a0,25548
  415904:	2402fffd 	li	v0,-3
  415908:	8fbf0014 	lw	ra,20(sp)
  41590c:	03e00008 	jr	ra
  415910:	27bd0018 	addiu	sp,sp,24
  415914:	10000004 	b	415928 <binary_user_idle_start+0x15e0>
  415918:	2442604c 	addiu	v0,v0,24652
  41591c:	10000002 	b	415928 <binary_user_idle_start+0x15e0>
  415920:	24426030 	addiu	v0,v0,24624
  415924:	24426014 	addiu	v0,v0,24596
  415928:	aca20000 	sw	v0,0(a1)
  41592c:	03e00008 	jr	ra
  415930:	00001025 	move	v0,zero
  415934:	3c020040 	lui	v0,0x40
  415938:	8c47600c 	lw	a3,24588(v0)
  41593c:	8ce205fc 	lw	v0,1532(a3)
  415940:	30420200 	andi	v0,v0,0x200
  415944:	1040001f 	beqz	v0,4159c4 <binary_user_idle_start+0x167c>
  415948:	3c055fc0 	lui	a1,0x5fc0
  41594c:	3c020040 	lui	v0,0x40
  415950:	8c486008 	lw	t0,24584(v0)
  415954:	3c020018 	lui	v0,0x18
  415958:	01021021 	addu	v0,t0,v0
  41595c:	8c42f000 	lw	v0,-4096(v0)
  415960:	30420200 	andi	v0,v0,0x200
  415964:	1040001a 	beqz	v0,4159d0 <binary_user_idle_start+0x1688>
  415968:	3c030005 	lui	v1,0x5
  41596c:	3463fc01 	ori	v1,v1,0xfc01
  415970:	3c060005 	lui	a2,0x5
  415974:	34c6fc1f 	ori	a2,a2,0xfc1f
  415978:	00032b00 	sll	a1,v1,0xc
  41597c:	00051582 	srl	v0,a1,0x16
  415980:	00021080 	sll	v0,v0,0x2
  415984:	00e21021 	addu	v0,a3,v0
  415988:	8c420000 	lw	v0,0(v0)
  41598c:	30420200 	andi	v0,v0,0x200
  415990:	5040000d 	beqzl	v0,4159c8 <binary_user_idle_start+0x1680>
  415994:	ac850000 	sw	a1,0(a0)
  415998:	7c629800 	ext	v0,v1,0x0,0x14
  41599c:	00021080 	sll	v0,v0,0x2
  4159a0:	01021021 	addu	v0,t0,v0
  4159a4:	8c420000 	lw	v0,0(v0)
  4159a8:	30420200 	andi	v0,v0,0x200
  4159ac:	10400008 	beqz	v0,4159d0 <binary_user_idle_start+0x1688>
  4159b0:	24630001 	addiu	v1,v1,1
  4159b4:	5466fff1 	bnel	v1,a2,41597c <binary_user_idle_start+0x1634>
  4159b8:	00032b00 	sll	a1,v1,0xc
  4159bc:	03e00008 	jr	ra
  4159c0:	2402fff7 	li	v0,-9
  4159c4:	ac850000 	sw	a1,0(a0)
  4159c8:	03e00008 	jr	ra
  4159cc:	00001025 	move	v0,zero
  4159d0:	ac850000 	sw	a1,0(a0)
  4159d4:	03e00008 	jr	ra
  4159d8:	00001025 	move	v0,zero
  4159dc:	27bdffe8 	addiu	sp,sp,-24
  4159e0:	afbf0014 	sw	ra,20(sp)
  4159e4:	00802825 	move	a1,a0
  4159e8:	0c100453 	jal	40114c <syscall_set_trapframe+0x28>
  4159ec:	00002025 	move	a0,zero
  4159f0:	8fbf0014 	lw	ra,20(sp)
  4159f4:	03e00008 	jr	ra
  4159f8:	27bd0018 	addiu	sp,sp,24
  4159fc:	28820020 	slti	v0,a0,32
  415a00:	10400010 	beqz	v0,415a44 <binary_user_idle_start+0x16fc>
  415a04:	00000000 	nop
  415a08:	3c020005 	lui	v0,0x5
  415a0c:	3442fc00 	ori	v0,v0,0xfc00
  415a10:	00822021 	addu	a0,a0,v0
  415a14:	00042300 	sll	a0,a0,0xc
  415a18:	00041a82 	srl	v1,a0,0xa
  415a1c:	3c020040 	lui	v0,0x40
  415a20:	8c426008 	lw	v0,24584(v0)
  415a24:	00431021 	addu	v0,v0,v1
  415a28:	8c420000 	lw	v0,0(v0)
  415a2c:	30420200 	andi	v0,v0,0x200
  415a30:	10400006 	beqz	v0,415a4c <binary_user_idle_start+0x1704>
  415a34:	00000000 	nop
  415a38:	aca40000 	sw	a0,0(a1)
  415a3c:	03e00008 	jr	ra
  415a40:	00001025 	move	v0,zero
  415a44:	03e00008 	jr	ra
  415a48:	2402fffd 	li	v0,-3
  415a4c:	03e00008 	jr	ra
  415a50:	2402fffd 	li	v0,-3
  415a54:	3c02a040 	lui	v0,0xa040
  415a58:	00821021 	addu	v0,a0,v0
  415a5c:	00021302 	srl	v0,v0,0xc
  415a60:	24420180 	addiu	v0,v0,384
  415a64:	03e00008 	jr	ra
  415a68:	00021580 	sll	v0,v0,0x16
  415a6c:	3c02a040 	lui	v0,0xa040
  415a70:	00821021 	addu	v0,a0,v0
  415a74:	03e00008 	jr	ra
  415a78:	00021302 	srl	v0,v0,0xc
  415a7c:	3c020005 	lui	v0,0x5
  415a80:	3442fc00 	ori	v0,v0,0xfc00
  415a84:	00821021 	addu	v0,a0,v0
  415a88:	03e00008 	jr	ra
  415a8c:	00021300 	sll	v0,v0,0xc
  415a90:	27bdffe0 	addiu	sp,sp,-32
  415a94:	afbf001c 	sw	ra,28(sp)
  415a98:	afb00018 	sw	s0,24(sp)
  415a9c:	0c100598 	jal	401660 <dup+0x6c>
  415aa0:	27a50014 	addiu	a1,sp,20
  415aa4:	0440000e 	bltz	v0,415ae0 <binary_user_idle_start+0x1798>
  415aa8:	00408025 	move	s0,v0
  415aac:	27a50010 	addiu	a1,sp,16
  415ab0:	8fa20014 	lw	v0,20(sp)
  415ab4:	0c100545 	jal	401514 <fd_lookup+0x54>
  415ab8:	8c440000 	lw	a0,0(v0)
  415abc:	04400008 	bltz	v0,415ae0 <binary_user_idle_start+0x1798>
  415ac0:	00408025 	move	s0,v0
  415ac4:	8fa20010 	lw	v0,16(sp)
  415ac8:	8c420010 	lw	v0,16(v0)
  415acc:	0040f809 	jalr	v0
  415ad0:	8fa40014 	lw	a0,20(sp)
  415ad4:	00408025 	move	s0,v0
  415ad8:	0c100590 	jal	401640 <dup+0x4c>
  415adc:	8fa40014 	lw	a0,20(sp)
  415ae0:	02001025 	move	v0,s0
  415ae4:	8fbf001c 	lw	ra,28(sp)
  415ae8:	8fb00018 	lw	s0,24(sp)
  415aec:	03e00008 	jr	ra
  415af0:	27bd0020 	addiu	sp,sp,32
  415af4:	27bdffe0 	addiu	sp,sp,-32
  415af8:	afbf001c 	sw	ra,28(sp)
  415afc:	afb10018 	sw	s1,24(sp)
  415b00:	afb00014 	sw	s0,20(sp)
  415b04:	00008025 	move	s0,zero
  415b08:	24110020 	li	s1,32
  415b0c:	0c1005bd 	jal	4016f4 <dup+0x100>
  415b10:	02002025 	move	a0,s0
  415b14:	26100001 	addiu	s0,s0,1
  415b18:	1611fffc 	bne	s0,s1,415b0c <binary_user_idle_start+0x17c4>
  415b1c:	8fbf001c 	lw	ra,28(sp)
  415b20:	8fb10018 	lw	s1,24(sp)
  415b24:	8fb00014 	lw	s0,20(sp)
  415b28:	03e00008 	jr	ra
  415b2c:	27bd0020 	addiu	sp,sp,32
  415b30:	27bdffb8 	addiu	sp,sp,-72
  415b34:	afbf0044 	sw	ra,68(sp)
  415b38:	afb70040 	sw	s7,64(sp)
  415b3c:	afb6003c 	sw	s6,60(sp)
  415b40:	afb50038 	sw	s5,56(sp)
  415b44:	afb40034 	sw	s4,52(sp)
  415b48:	afb30030 	sw	s3,48(sp)
  415b4c:	afb2002c 	sw	s2,44(sp)
  415b50:	afb10028 	sw	s1,40(sp)
  415b54:	afb00024 	sw	s0,36(sp)
  415b58:	00a0b025 	move	s6,a1
  415b5c:	0c100598 	jal	401660 <dup+0x6c>
  415b60:	27a50018 	addiu	a1,sp,24
  415b64:	04400039 	bltz	v0,415c4c <binary_user_idle_start+0x1904>
  415b68:	0040b825 	move	s7,v0
  415b6c:	0c1005bd 	jal	4016f4 <dup+0x100>
  415b70:	02c02025 	move	a0,s6
  415b74:	3c150005 	lui	s5,0x5
  415b78:	36b5fc00 	ori	s5,s5,0xfc00
  415b7c:	02d5a821 	addu	s5,s6,s5
  415b80:	0015ab00 	sll	s5,s5,0xc
  415b84:	0c1005ae 	jal	4016b8 <dup+0xc4>
  415b88:	8fa40018 	lw	a0,24(sp)
  415b8c:	0040a025 	move	s4,v0
  415b90:	0c1005ae 	jal	4016b8 <dup+0xc4>
  415b94:	02a02025 	move	a0,s5
  415b98:	00408025 	move	s0,v0
  415b9c:	00141582 	srl	v0,s4,0x16
  415ba0:	00021880 	sll	v1,v0,0x2
  415ba4:	3c020040 	lui	v0,0x40
  415ba8:	8c42600c 	lw	v0,24588(v0)
  415bac:	00431021 	addu	v0,v0,v1
  415bb0:	8c420000 	lw	v0,0(v0)
  415bb4:	10400031 	beqz	v0,415c7c <binary_user_idle_start+0x1934>
  415bb8:	3c120040 	lui	s2,0x40
  415bbc:	02929021 	addu	s2,s4,s2
  415bc0:	02808825 	move	s1,s4
  415bc4:	3c130040 	lui	s3,0x40
  415bc8:	10000004 	b	415bdc <binary_user_idle_start+0x1894>
  415bcc:	0214a023 	subu	s4,s0,s4
  415bd0:	26311000 	addiu	s1,s1,4096
  415bd4:	1232002a 	beq	s1,s2,415c80 <binary_user_idle_start+0x1938>
  415bd8:	8fa50018 	lw	a1,24(sp)
  415bdc:	00111302 	srl	v0,s1,0xc
  415be0:	00021880 	sll	v1,v0,0x2
  415be4:	8e626008 	lw	v0,24584(s3)
  415be8:	00431021 	addu	v0,v0,v1
  415bec:	8c420000 	lw	v0,0(v0)
  415bf0:	30430200 	andi	v1,v0,0x200
  415bf4:	5060fff7 	beqzl	v1,415bd4 <binary_user_idle_start+0x188c>
  415bf8:	26311000 	addiu	s1,s1,4096
  415bfc:	30420604 	andi	v0,v0,0x604
  415c00:	afa20010 	sw	v0,16(sp)
  415c04:	02913821 	addu	a3,s4,s1
  415c08:	00003025 	move	a2,zero
  415c0c:	02202825 	move	a1,s1
  415c10:	0c100446 	jal	401118 <syscall_set_env_status+0x24>
  415c14:	00002025 	move	a0,zero
  415c18:	0441ffed 	bgez	v0,415bd0 <binary_user_idle_start+0x1888>
  415c1c:	0040b825 	move	s7,v0
  415c20:	02a02825 	move	a1,s5
  415c24:	0c100453 	jal	40114c <syscall_set_trapframe+0x28>
  415c28:	00002025 	move	a0,zero
  415c2c:	3c110040 	lui	s1,0x40
  415c30:	02118821 	addu	s1,s0,s1
  415c34:	02002825 	move	a1,s0
  415c38:	0c100453 	jal	40114c <syscall_set_trapframe+0x28>
  415c3c:	00002025 	move	a0,zero
  415c40:	26101000 	addiu	s0,s0,4096
  415c44:	1630fffc 	bne	s1,s0,415c38 <binary_user_idle_start+0x18f0>
  415c48:	02002825 	move	a1,s0
  415c4c:	02e01025 	move	v0,s7
  415c50:	8fbf0044 	lw	ra,68(sp)
  415c54:	8fb70040 	lw	s7,64(sp)
  415c58:	8fb6003c 	lw	s6,60(sp)
  415c5c:	8fb50038 	lw	s5,56(sp)
  415c60:	8fb40034 	lw	s4,52(sp)
  415c64:	8fb30030 	lw	s3,48(sp)
  415c68:	8fb2002c 	lw	s2,44(sp)
  415c6c:	8fb10028 	lw	s1,40(sp)
  415c70:	8fb00024 	lw	s0,36(sp)
  415c74:	03e00008 	jr	ra
  415c78:	27bd0048 	addiu	sp,sp,72
  415c7c:	8fa50018 	lw	a1,24(sp)
  415c80:	00051302 	srl	v0,a1,0xc
  415c84:	00021880 	sll	v1,v0,0x2
  415c88:	3c020040 	lui	v0,0x40
  415c8c:	8c426008 	lw	v0,24584(v0)
  415c90:	00431021 	addu	v0,v0,v1
  415c94:	8c420000 	lw	v0,0(v0)
  415c98:	30420604 	andi	v0,v0,0x604
  415c9c:	afa20010 	sw	v0,16(sp)
  415ca0:	02a03825 	move	a3,s5
  415ca4:	00003025 	move	a2,zero
  415ca8:	0c100446 	jal	401118 <syscall_set_env_status+0x24>
  415cac:	00002025 	move	a0,zero
  415cb0:	0440ffdb 	bltz	v0,415c20 <binary_user_idle_start+0x18d8>
  415cb4:	0040b825 	move	s7,v0
  415cb8:	1000ffe4 	b	415c4c <binary_user_idle_start+0x1904>
  415cbc:	02c0b825 	move	s7,s6
  415cc0:	27bdffd8 	addiu	sp,sp,-40
  415cc4:	afbf0024 	sw	ra,36(sp)
  415cc8:	afb20020 	sw	s2,32(sp)
  415ccc:	afb1001c 	sw	s1,28(sp)
  415cd0:	afb00018 	sw	s0,24(sp)
  415cd4:	00809025 	move	s2,a0
  415cd8:	00a08025 	move	s0,a1
  415cdc:	00c08825 	move	s1,a2
  415ce0:	0c100598 	jal	401660 <dup+0x6c>
  415ce4:	27a50014 	addiu	a1,sp,20
  415ce8:	04400019 	bltz	v0,415d50 <binary_user_idle_start+0x1a08>
  415cec:	8fbf0024 	lw	ra,36(sp)
  415cf0:	27a50010 	addiu	a1,sp,16
  415cf4:	8fa20014 	lw	v0,20(sp)
  415cf8:	0c100545 	jal	401514 <fd_lookup+0x54>
  415cfc:	8c440000 	lw	a0,0(v0)
  415d00:	04400012 	bltz	v0,415d4c <binary_user_idle_start+0x1a04>
  415d04:	8fa40014 	lw	a0,20(sp)
  415d08:	8c820008 	lw	v0,8(a0)
  415d0c:	30420003 	andi	v0,v0,0x3
  415d10:	24030001 	li	v1,1
  415d14:	10430013 	beq	v0,v1,415d64 <binary_user_idle_start+0x1a1c>
  415d18:	02203025 	move	a2,s1
  415d1c:	8fa20010 	lw	v0,16(sp)
  415d20:	8c420008 	lw	v0,8(v0)
  415d24:	8c870004 	lw	a3,4(a0)
  415d28:	0040f809 	jalr	v0
  415d2c:	02002825 	move	a1,s0
  415d30:	18400006 	blez	v0,415d4c <binary_user_idle_start+0x1a04>
  415d34:	8fa40014 	lw	a0,20(sp)
  415d38:	8c830004 	lw	v1,4(a0)
  415d3c:	00621821 	addu	v1,v1,v0
  415d40:	ac830004 	sw	v1,4(a0)
  415d44:	02028021 	addu	s0,s0,v0
  415d48:	a2000000 	sb	zero,0(s0)
  415d4c:	8fbf0024 	lw	ra,36(sp)
  415d50:	8fb20020 	lw	s2,32(sp)
  415d54:	8fb1001c 	lw	s1,28(sp)
  415d58:	8fb00018 	lw	s0,24(sp)
  415d5c:	03e00008 	jr	ra
  415d60:	27bd0028 	addiu	sp,sp,40
  415d64:	3c020040 	lui	v0,0x40
  415d68:	8c4265f0 	lw	v0,26096(v0)
  415d6c:	02403025 	move	a2,s2
  415d70:	8c4500a4 	lw	a1,164(v0)
  415d74:	3c040040 	lui	a0,0x40
  415d78:	0c100068 	jal	4001a0 <user_PrintChar>
  415d7c:	248463ec 	addiu	a0,a0,25580
  415d80:	1000fff2 	b	415d4c <binary_user_idle_start+0x1a04>
  415d84:	2402fffd 	li	v0,-3
  415d88:	10c0001a 	beqz	a2,415df4 <binary_user_idle_start+0x1aac>
  415d8c:	00000000 	nop
  415d90:	27bdffd8 	addiu	sp,sp,-40
  415d94:	afbf0024 	sw	ra,36(sp)
  415d98:	afb30020 	sw	s3,32(sp)
  415d9c:	afb2001c 	sw	s2,28(sp)
  415da0:	afb10018 	sw	s1,24(sp)
  415da4:	afb00014 	sw	s0,20(sp)
  415da8:	00c08825 	move	s1,a2
  415dac:	00a09825 	move	s3,a1
  415db0:	00809025 	move	s2,a0
  415db4:	00002825 	move	a1,zero
  415db8:	00008025 	move	s0,zero
  415dbc:	02253023 	subu	a2,s1,a1
  415dc0:	02652821 	addu	a1,s3,a1
  415dc4:	0c100649 	jal	401924 <write+0x48>
  415dc8:	02402025 	move	a0,s2
  415dcc:	0440000c 	bltz	v0,415e00 <binary_user_idle_start+0x1ab8>
  415dd0:	8fbf0024 	lw	ra,36(sp)
  415dd4:	50400009 	beqzl	v0,415dfc <binary_user_idle_start+0x1ab4>
  415dd8:	02001025 	move	v0,s0
  415ddc:	02028021 	addu	s0,s0,v0
  415de0:	0211102b 	sltu	v0,s0,s1
  415de4:	1440fff5 	bnez	v0,415dbc <binary_user_idle_start+0x1a74>
  415de8:	02002825 	move	a1,s0
  415dec:	10000003 	b	415dfc <binary_user_idle_start+0x1ab4>
  415df0:	02001025 	move	v0,s0
  415df4:	03e00008 	jr	ra
  415df8:	00001025 	move	v0,zero
  415dfc:	8fbf0024 	lw	ra,36(sp)
  415e00:	8fb30020 	lw	s3,32(sp)
  415e04:	8fb2001c 	lw	s2,28(sp)
  415e08:	8fb10018 	lw	s1,24(sp)
  415e0c:	8fb00014 	lw	s0,20(sp)
  415e10:	03e00008 	jr	ra
  415e14:	27bd0028 	addiu	sp,sp,40
  415e18:	27bdffd8 	addiu	sp,sp,-40
  415e1c:	afbf0024 	sw	ra,36(sp)
  415e20:	afb20020 	sw	s2,32(sp)
  415e24:	afb1001c 	sw	s1,28(sp)
  415e28:	afb00018 	sw	s0,24(sp)
  415e2c:	00809025 	move	s2,a0
  415e30:	00a08025 	move	s0,a1
  415e34:	00c08825 	move	s1,a2
  415e38:	0c100598 	jal	401660 <dup+0x6c>
  415e3c:	27a50014 	addiu	a1,sp,20
  415e40:	04400016 	bltz	v0,415e9c <binary_user_idle_start+0x1b54>
  415e44:	8fbf0024 	lw	ra,36(sp)
  415e48:	27a50010 	addiu	a1,sp,16
  415e4c:	8fa20014 	lw	v0,20(sp)
  415e50:	0c100545 	jal	401514 <fd_lookup+0x54>
  415e54:	8c440000 	lw	a0,0(v0)
  415e58:	0440000f 	bltz	v0,415e98 <binary_user_idle_start+0x1b50>
  415e5c:	8fa40014 	lw	a0,20(sp)
  415e60:	8c820008 	lw	v0,8(a0)
  415e64:	30420003 	andi	v0,v0,0x3
  415e68:	10400011 	beqz	v0,415eb0 <binary_user_idle_start+0x1b68>
  415e6c:	02203025 	move	a2,s1
  415e70:	8fa20010 	lw	v0,16(sp)
  415e74:	8c42000c 	lw	v0,12(v0)
  415e78:	8c870004 	lw	a3,4(a0)
  415e7c:	0040f809 	jalr	v0
  415e80:	02002825 	move	a1,s0
  415e84:	18400004 	blez	v0,415e98 <binary_user_idle_start+0x1b50>
  415e88:	8fa40014 	lw	a0,20(sp)
  415e8c:	8c830004 	lw	v1,4(a0)
  415e90:	00621821 	addu	v1,v1,v0
  415e94:	ac830004 	sw	v1,4(a0)
  415e98:	8fbf0024 	lw	ra,36(sp)
  415e9c:	8fb20020 	lw	s2,32(sp)
  415ea0:	8fb1001c 	lw	s1,28(sp)
  415ea4:	8fb00018 	lw	s0,24(sp)
  415ea8:	03e00008 	jr	ra
  415eac:	27bd0028 	addiu	sp,sp,40
  415eb0:	3c020040 	lui	v0,0x40
  415eb4:	8c4265f0 	lw	v0,26096(v0)
  415eb8:	02403025 	move	a2,s2
  415ebc:	8c4500a4 	lw	a1,164(v0)
  415ec0:	3c040040 	lui	a0,0x40
  415ec4:	0c100068 	jal	4001a0 <user_PrintChar>
  415ec8:	24846408 	addiu	a0,a0,25608
  415ecc:	1000fff2 	b	415e98 <binary_user_idle_start+0x1b50>
  415ed0:	2402fffd 	li	v0,-3
  415ed4:	27bdffe0 	addiu	sp,sp,-32
  415ed8:	afbf001c 	sw	ra,28(sp)
  415edc:	afb00018 	sw	s0,24(sp)
  415ee0:	00a08025 	move	s0,a1
  415ee4:	0c100598 	jal	401660 <dup+0x6c>
  415ee8:	27a50010 	addiu	a1,sp,16
  415eec:	04400005 	bltz	v0,415f04 <binary_user_idle_start+0x1bbc>
  415ef0:	8fbf001c 	lw	ra,28(sp)
  415ef4:	8fa20010 	lw	v0,16(sp)
  415ef8:	ac500004 	sw	s0,4(v0)
  415efc:	00001025 	move	v0,zero
  415f00:	8fbf001c 	lw	ra,28(sp)
  415f04:	8fb00018 	lw	s0,24(sp)
  415f08:	03e00008 	jr	ra
  415f0c:	27bd0020 	addiu	sp,sp,32
  415f10:	27bdffe0 	addiu	sp,sp,-32
  415f14:	afbf001c 	sw	ra,28(sp)
  415f18:	afb00018 	sw	s0,24(sp)
  415f1c:	00a08025 	move	s0,a1
  415f20:	0c100598 	jal	401660 <dup+0x6c>
  415f24:	27a50014 	addiu	a1,sp,20
  415f28:	0440000e 	bltz	v0,415f64 <binary_user_idle_start+0x1c1c>
  415f2c:	27a50010 	addiu	a1,sp,16
  415f30:	8fa20014 	lw	v0,20(sp)
  415f34:	0c100545 	jal	401514 <fd_lookup+0x54>
  415f38:	8c440000 	lw	a0,0(v0)
  415f3c:	04400009 	bltz	v0,415f64 <binary_user_idle_start+0x1c1c>
  415f40:	02002825 	move	a1,s0
  415f44:	a2000000 	sb	zero,0(s0)
  415f48:	ae000080 	sw	zero,128(s0)
  415f4c:	ae000084 	sw	zero,132(s0)
  415f50:	8fa20010 	lw	v0,16(sp)
  415f54:	ae020088 	sw	v0,136(s0)
  415f58:	8c420014 	lw	v0,20(v0)
  415f5c:	0040f809 	jalr	v0
  415f60:	8fa40014 	lw	a0,20(sp)
  415f64:	8fbf001c 	lw	ra,28(sp)
  415f68:	8fb00018 	lw	s0,24(sp)
  415f6c:	03e00008 	jr	ra
  415f70:	27bd0020 	addiu	sp,sp,32
  415f74:	27bdffe0 	addiu	sp,sp,-32
  415f78:	afbf001c 	sw	ra,28(sp)
  415f7c:	afb10018 	sw	s1,24(sp)
  415f80:	afb00014 	sw	s0,20(sp)
  415f84:	00a08825 	move	s1,a1
  415f88:	0c100792 	jal	401e48 <ftruncate+0x2c>
  415f8c:	00002825 	move	a1,zero
  415f90:	04400008 	bltz	v0,415fb4 <binary_user_idle_start+0x1c6c>
  415f94:	00408025 	move	s0,v0
  415f98:	02202825 	move	a1,s1
  415f9c:	0c1006dd 	jal	401b74 <file_close+0x20>
  415fa0:	00402025 	move	a0,v0
  415fa4:	00408825 	move	s1,v0
  415fa8:	0c1005bd 	jal	4016f4 <dup+0x100>
  415fac:	02002025 	move	a0,s0
  415fb0:	02208025 	move	s0,s1
  415fb4:	02001025 	move	v0,s0
  415fb8:	8fbf001c 	lw	ra,28(sp)
  415fbc:	8fb10018 	lw	s1,24(sp)
  415fc0:	8fb00014 	lw	s0,20(sp)
  415fc4:	03e00008 	jr	ra
  415fc8:	27bd0020 	addiu	sp,sp,32
  415fcc:	00041582 	srl	v0,a0,0x16
  415fd0:	00021880 	sll	v1,v0,0x2
  415fd4:	3c020040 	lui	v0,0x40
  415fd8:	8c42600c 	lw	v0,24588(v0)
  415fdc:	00431021 	addu	v0,v0,v1
  415fe0:	8c430000 	lw	v1,0(v0)
  415fe4:	30630200 	andi	v1,v1,0x200
  415fe8:	10600012 	beqz	v1,416034 <binary_user_idle_start+0x1cec>
  415fec:	00001025 	move	v0,zero
  415ff0:	00042302 	srl	a0,a0,0xc
  415ff4:	00042080 	sll	a0,a0,0x2
  415ff8:	3c020040 	lui	v0,0x40
  415ffc:	8c426008 	lw	v0,24584(v0)
  416000:	00442021 	addu	a0,v0,a0
  416004:	8c830000 	lw	v1,0(a0)
  416008:	30640200 	andi	a0,v1,0x200
  41600c:	10800009 	beqz	a0,416034 <binary_user_idle_start+0x1cec>
  416010:	00001025 	move	v0,zero
  416014:	00031b02 	srl	v1,v1,0xc
  416018:	3c020040 	lui	v0,0x40
  41601c:	8c446004 	lw	a0,24580(v0)
  416020:	00031040 	sll	v0,v1,0x1
  416024:	00431821 	addu	v1,v0,v1
  416028:	00031880 	sll	v1,v1,0x2
  41602c:	00831821 	addu	v1,a0,v1
  416030:	94620008 	lhu	v0,8(v1)
  416034:	03e00008 	jr	ra
  416038:	00000000 	nop
  41603c:	27bdffe0 	addiu	sp,sp,-32
  416040:	afbf001c 	sw	ra,28(sp)
  416044:	afb10018 	sw	s1,24(sp)
  416048:	afb00014 	sw	s0,20(sp)
  41604c:	00808825 	move	s1,a0
  416050:	00a08025 	move	s0,a1
  416054:	24850010 	addiu	a1,a0,16
  416058:	0c10050b 	jal	40142c <fd_alloc+0x34>
  41605c:	02002025 	move	a0,s0
  416060:	8e220090 	lw	v0,144(s1)
  416064:	ae020080 	sw	v0,128(s0)
  416068:	8e220094 	lw	v0,148(s1)
  41606c:	38420001 	xori	v0,v0,0x1
  416070:	2c420001 	sltiu	v0,v0,1
  416074:	ae020084 	sw	v0,132(s0)
  416078:	00001025 	move	v0,zero
  41607c:	8fbf001c 	lw	ra,28(sp)
  416080:	8fb10018 	lw	s1,24(sp)
  416084:	8fb00014 	lw	s0,20(sp)
  416088:	03e00008 	jr	ra
  41608c:	27bd0020 	addiu	sp,sp,32
  416090:	27bdffd8 	addiu	sp,sp,-40
  416094:	afbf0024 	sw	ra,36(sp)
  416098:	afb30020 	sw	s3,32(sp)
  41609c:	afb2001c 	sw	s2,28(sp)
  4160a0:	afb10018 	sw	s1,24(sp)
  4160a4:	afb00014 	sw	s0,20(sp)
  4160a8:	8c92000c 	lw	s2,12(a0)
  4160ac:	0c1005ae 	jal	4016b8 <dup+0xc4>
  4160b0:	8c910090 	lw	s1,144(a0)
  4160b4:	12200029 	beqz	s1,41615c <binary_user_idle_start+0x1e14>
  4160b8:	00409825 	move	s3,v0
  4160bc:	00008025 	move	s0,zero
  4160c0:	02002825 	move	a1,s0
  4160c4:	0c1009f8 	jal	4027e0 <init_stack+0x60>
  4160c8:	02402025 	move	a0,s2
  4160cc:	26101000 	addiu	s0,s0,4096
  4160d0:	0211102b 	sltu	v0,s0,s1
  4160d4:	1440fffb 	bnez	v0,4160c4 <binary_user_idle_start+0x1d7c>
  4160d8:	02002825 	move	a1,s0
  4160dc:	0c1009eb 	jal	4027ac <init_stack+0x2c>
  4160e0:	02402025 	move	a0,s2
  4160e4:	00409025 	move	s2,v0
  4160e8:	0440000c 	bltz	v0,41611c <binary_user_idle_start+0x1dd4>
  4160ec:	00008025 	move	s0,zero
  4160f0:	02702821 	addu	a1,s3,s0
  4160f4:	0c100453 	jal	40114c <syscall_set_trapframe+0x28>
  4160f8:	00002025 	move	a0,zero
  4160fc:	0440000c 	bltz	v0,416130 <binary_user_idle_start+0x1de8>
  416100:	00409025 	move	s2,v0
  416104:	26101000 	addiu	s0,s0,4096
  416108:	0211102b 	sltu	v0,s0,s1
  41610c:	1440fff9 	bnez	v0,4160f4 <binary_user_idle_start+0x1dac>
  416110:	02702821 	addu	a1,s3,s0
  416114:	10000009 	b	41613c <binary_user_idle_start+0x1df4>
  416118:	00009025 	move	s2,zero
  41611c:	3c040040 	lui	a0,0x40
  416120:	0c100068 	jal	4001a0 <user_PrintChar>
  416124:	24846428 	addiu	a0,a0,25640
  416128:	10000005 	b	416140 <binary_user_idle_start+0x1df8>
  41612c:	02401025 	move	v0,s2
  416130:	3c040040 	lui	a0,0x40
  416134:	0c100068 	jal	4001a0 <user_PrintChar>
  416138:	24846440 	addiu	a0,a0,25664
  41613c:	02401025 	move	v0,s2
  416140:	8fbf0024 	lw	ra,36(sp)
  416144:	8fb30020 	lw	s3,32(sp)
  416148:	8fb2001c 	lw	s2,28(sp)
  41614c:	8fb10018 	lw	s1,24(sp)
  416150:	8fb00014 	lw	s0,20(sp)
  416154:	03e00008 	jr	ra
  416158:	27bd0028 	addiu	sp,sp,40
  41615c:	0c1009eb 	jal	4027ac <init_stack+0x2c>
  416160:	02402025 	move	a0,s2
  416164:	0440ffed 	bltz	v0,41611c <binary_user_idle_start+0x1dd4>
  416168:	00409025 	move	s2,v0
  41616c:	1000fff3 	b	41613c <binary_user_idle_start+0x1df4>
  416170:	00009025 	move	s2,zero
  416174:	27bdffe0 	addiu	sp,sp,-32
  416178:	afbf001c 	sw	ra,28(sp)
  41617c:	afb20018 	sw	s2,24(sp)
  416180:	afb10014 	sw	s1,20(sp)
  416184:	afb00010 	sw	s0,16(sp)
  416188:	00a09025 	move	s2,a1
  41618c:	8c830090 	lw	v1,144(a0)
  416190:	0067282b 	sltu	a1,v1,a3
  416194:	14a0000d 	bnez	a1,4161cc <binary_user_idle_start+0x1e84>
  416198:	00001025 	move	v0,zero
  41619c:	00c08025 	move	s0,a2
  4161a0:	00e08825 	move	s1,a3
  4161a4:	00e61021 	addu	v0,a3,a2
  4161a8:	0062102b 	sltu	v0,v1,v0
  4161ac:	00671823 	subu	v1,v1,a3
  4161b0:	0c1005ae 	jal	4016b8 <dup+0xc4>
  4161b4:	0062800b 	movn	s0,v1,v0
  4161b8:	02003025 	move	a2,s0
  4161bc:	02402825 	move	a1,s2
  4161c0:	0c1002d3 	jal	400b4c <pgfault+0x8>
  4161c4:	02222021 	addu	a0,s1,v0
  4161c8:	02001025 	move	v0,s0
  4161cc:	8fbf001c 	lw	ra,28(sp)
  4161d0:	8fb20018 	lw	s2,24(sp)
  4161d4:	8fb10014 	lw	s1,20(sp)
  4161d8:	8fb00010 	lw	s0,16(sp)
  4161dc:	03e00008 	jr	ra
  4161e0:	27bd0020 	addiu	sp,sp,32
  4161e4:	27bdffd0 	addiu	sp,sp,-48
  4161e8:	afbf002c 	sw	ra,44(sp)
  4161ec:	afb30028 	sw	s3,40(sp)
  4161f0:	afb20024 	sw	s2,36(sp)
  4161f4:	afb10020 	sw	s1,32(sp)
  4161f8:	afb0001c 	sw	s0,28(sp)
  4161fc:	00808025 	move	s0,a0
  416200:	00a08825 	move	s1,a1
  416204:	0c100566 	jal	401598 <close+0x44>
  416208:	27a40010 	addiu	a0,sp,16
  41620c:	04400019 	bltz	v0,416274 <binary_user_idle_start+0x1f2c>
  416210:	8fa60010 	lw	a2,16(sp)
  416214:	02202825 	move	a1,s1
  416218:	0c10099d 	jal	402674 <fsipc_dirty+0x34>
  41621c:	02002025 	move	a0,s0
  416220:	04400015 	bltz	v0,416278 <binary_user_idle_start+0x1f30>
  416224:	8fbf002c 	lw	ra,44(sp)
  416228:	0c1005ae 	jal	4016b8 <dup+0xc4>
  41622c:	8fa40010 	lw	a0,16(sp)
  416230:	00409025 	move	s2,v0
  416234:	8fa20010 	lw	v0,16(sp)
  416238:	8c510090 	lw	s1,144(v0)
  41623c:	1220000b 	beqz	s1,41626c <binary_user_idle_start+0x1f24>
  416240:	8c53000c 	lw	s3,12(v0)
  416244:	00008025 	move	s0,zero
  416248:	02503021 	addu	a2,s2,s0
  41624c:	02002825 	move	a1,s0
  416250:	0c1009bb 	jal	4026ec <fsipc_sync+0x14>
  416254:	02602025 	move	a0,s3
  416258:	04400006 	bltz	v0,416274 <binary_user_idle_start+0x1f2c>
  41625c:	26101000 	addiu	s0,s0,4096
  416260:	0211102b 	sltu	v0,s0,s1
  416264:	1440fff9 	bnez	v0,41624c <binary_user_idle_start+0x1f04>
  416268:	02503021 	addu	a2,s2,s0
  41626c:	0c1005b4 	jal	4016d0 <dup+0xdc>
  416270:	8fa40010 	lw	a0,16(sp)
  416274:	8fbf002c 	lw	ra,44(sp)
  416278:	8fb30028 	lw	s3,40(sp)
  41627c:	8fb20024 	lw	s2,36(sp)
  416280:	8fb10020 	lw	s1,32(sp)
  416284:	8fb0001c 	lw	s0,28(sp)
  416288:	03e00008 	jr	ra
  41628c:	27bd0030 	addiu	sp,sp,48
  416290:	27bdffd8 	addiu	sp,sp,-40
  416294:	afbf0024 	sw	ra,36(sp)
  416298:	afb10020 	sw	s1,32(sp)
  41629c:	afb0001c 	sw	s0,28(sp)
  4162a0:	00a08025 	move	s0,a1
  4162a4:	00c08825 	move	s1,a2
  4162a8:	0c100598 	jal	401660 <dup+0x6c>
  4162ac:	27a50010 	addiu	a1,sp,16
  4162b0:	04400020 	bltz	v0,416334 <binary_user_idle_start+0x1fec>
  4162b4:	8fa40010 	lw	a0,16(sp)
  4162b8:	8c830000 	lw	v1,0(a0)
  4162bc:	3c020040 	lui	v0,0x40
  4162c0:	8c426014 	lw	v0,24596(v0)
  4162c4:	1462001b 	bne	v1,v0,416334 <binary_user_idle_start+0x1fec>
  4162c8:	2402fffd 	li	v0,-3
  4162cc:	0c1005ae 	jal	4016b8 <dup+0xc4>
  4162d0:	00000000 	nop
  4162d4:	00501021 	addu	v0,v0,s0
  4162d8:	3c030040 	lui	v1,0x40
  4162dc:	0203802b 	sltu	s0,s0,v1
  4162e0:	52000014 	beqzl	s0,416334 <binary_user_idle_start+0x1fec>
  4162e4:	2402fff8 	li	v0,-8
  4162e8:	00021d82 	srl	v1,v0,0x16
  4162ec:	00032080 	sll	a0,v1,0x2
  4162f0:	3c030040 	lui	v1,0x40
  4162f4:	8c63600c 	lw	v1,24588(v1)
  4162f8:	00641821 	addu	v1,v1,a0
  4162fc:	8c630000 	lw	v1,0(v1)
  416300:	30630200 	andi	v1,v1,0x200
  416304:	10600012 	beqz	v1,416350 <binary_user_idle_start+0x2008>
  416308:	00021b02 	srl	v1,v0,0xc
  41630c:	00032080 	sll	a0,v1,0x2
  416310:	3c030040 	lui	v1,0x40
  416314:	8c636008 	lw	v1,24584(v1)
  416318:	00641821 	addu	v1,v1,a0
  41631c:	8c630000 	lw	v1,0(v1)
  416320:	30630200 	andi	v1,v1,0x200
  416324:	50600003 	beqzl	v1,416334 <binary_user_idle_start+0x1fec>
  416328:	2402fff8 	li	v0,-8
  41632c:	ae220000 	sw	v0,0(s1)
  416330:	00001025 	move	v0,zero
  416334:	8fbf0024 	lw	ra,36(sp)
  416338:	8fb10020 	lw	s1,32(sp)
  41633c:	8fb0001c 	lw	s0,28(sp)
  416340:	03e00008 	jr	ra
  416344:	27bd0028 	addiu	sp,sp,40
  416348:	1000fffa 	b	416334 <binary_user_idle_start+0x1fec>
  41634c:	2402fff8 	li	v0,-8
  416350:	1000fff8 	b	416334 <binary_user_idle_start+0x1fec>
  416354:	2402fff8 	li	v0,-8
  416358:	27bdffb8 	addiu	sp,sp,-72
  41635c:	afbf0044 	sw	ra,68(sp)
  416360:	afb70040 	sw	s7,64(sp)
  416364:	afb6003c 	sw	s6,60(sp)
  416368:	afb50038 	sw	s5,56(sp)
  41636c:	afb40034 	sw	s4,52(sp)
  416370:	afb30030 	sw	s3,48(sp)
  416374:	afb2002c 	sw	s2,44(sp)
  416378:	afb10028 	sw	s1,40(sp)
  41637c:	3c020040 	lui	v0,0x40
  416380:	24420001 	addiu	v0,v0,1
  416384:	00a2102b 	sltu	v0,a1,v0
  416388:	10400050 	beqz	v0,4164cc <binary_user_idle_start+0x2184>
  41638c:	afb00024 	sw	s0,36(sp)
  416390:	00a08025 	move	s0,a1
  416394:	0c100598 	jal	401660 <dup+0x6c>
  416398:	27a50018 	addiu	a1,sp,24
  41639c:	04400037 	bltz	v0,41647c <binary_user_idle_start+0x2134>
  4163a0:	00409025 	move	s2,v0
  4163a4:	8fa20018 	lw	v0,24(sp)
  4163a8:	8c440000 	lw	a0,0(v0)
  4163ac:	3c030040 	lui	v1,0x40
  4163b0:	8c636014 	lw	v1,24596(v1)
  4163b4:	14830047 	bne	a0,v1,4164d4 <binary_user_idle_start+0x218c>
  4163b8:	02002825 	move	a1,s0
  4163bc:	8c54000c 	lw	s4,12(v0)
  4163c0:	8c560090 	lw	s6,144(v0)
  4163c4:	ac500090 	sw	s0,144(v0)
  4163c8:	0c1009db 	jal	40276c <wait+0x68>
  4163cc:	02802025 	move	a0,s4
  4163d0:	0440002a 	bltz	v0,41647c <binary_user_idle_start+0x2134>
  4163d4:	00409025 	move	s2,v0
  4163d8:	0c1005ae 	jal	4016b8 <dup+0xc4>
  4163dc:	8fa40018 	lw	a0,24(sp)
  4163e0:	00409825 	move	s3,v0
  4163e4:	26d50fff 	addiu	s5,s6,4095
  4163e8:	02a08825 	move	s1,s5
  4163ec:	7c115804 	ins	s1,zero,0x0,0xc
  4163f0:	26100fff 	addiu	s0,s0,4095
  4163f4:	0200b825 	move	s7,s0
  4163f8:	7c175804 	ins	s7,zero,0x0,0xc
  4163fc:	0237102b 	sltu	v0,s1,s7
  416400:	5040000c 	beqzl	v0,416434 <binary_user_idle_start+0x20ec>
  416404:	7c105804 	ins	s0,zero,0x0,0xc
  416408:	02713021 	addu	a2,s3,s1
  41640c:	02202825 	move	a1,s1
  416410:	0c1009bb 	jal	4026ec <fsipc_sync+0x14>
  416414:	02802025 	move	a0,s4
  416418:	04400015 	bltz	v0,416470 <binary_user_idle_start+0x2128>
  41641c:	00409025 	move	s2,v0
  416420:	26311000 	addiu	s1,s1,4096
  416424:	0237102b 	sltu	v0,s1,s7
  416428:	1440fff8 	bnez	v0,41640c <binary_user_idle_start+0x20c4>
  41642c:	02713021 	addu	a2,s3,s1
  416430:	7c105804 	ins	s0,zero,0x0,0xc
  416434:	7c155804 	ins	s5,zero,0x0,0xc
  416438:	0215102b 	sltu	v0,s0,s5
  41643c:	5040000f 	beqzl	v0,41647c <binary_user_idle_start+0x2134>
  416440:	00009025 	move	s2,zero
  416444:	02138821 	addu	s1,s0,s3
  416448:	02202825 	move	a1,s1
  41644c:	0c100453 	jal	40114c <syscall_set_trapframe+0x28>
  416450:	00002025 	move	a0,zero
  416454:	04400015 	bltz	v0,4164ac <binary_user_idle_start+0x2164>
  416458:	26101000 	addiu	s0,s0,4096
  41645c:	0215102b 	sltu	v0,s0,s5
  416460:	1440fff9 	bnez	v0,416448 <binary_user_idle_start+0x2100>
  416464:	02138821 	addu	s1,s0,s3
  416468:	10000004 	b	41647c <binary_user_idle_start+0x2134>
  41646c:	00009025 	move	s2,zero
  416470:	02c02825 	move	a1,s6
  416474:	0c1009db 	jal	40276c <wait+0x68>
  416478:	02802025 	move	a0,s4
  41647c:	02401025 	move	v0,s2
  416480:	8fbf0044 	lw	ra,68(sp)
  416484:	8fb70040 	lw	s7,64(sp)
  416488:	8fb6003c 	lw	s6,60(sp)
  41648c:	8fb50038 	lw	s5,56(sp)
  416490:	8fb40034 	lw	s4,52(sp)
  416494:	8fb30030 	lw	s3,48(sp)
  416498:	8fb2002c 	lw	s2,44(sp)
  41649c:	8fb10028 	lw	s1,40(sp)
  4164a0:	8fb00024 	lw	s0,36(sp)
  4164a4:	03e00008 	jr	ra
  4164a8:	27bd0048 	addiu	sp,sp,72
  4164ac:	afa20010 	sw	v0,16(sp)
  4164b0:	02203825 	move	a3,s1
  4164b4:	3c060040 	lui	a2,0x40
  4164b8:	24c6645c 	addiu	a2,a2,25692
  4164bc:	24050103 	li	a1,259
  4164c0:	3c040040 	lui	a0,0x40
  4164c4:	0c100077 	jal	4001dc <user_PrintChar+0x3c>
  4164c8:	24846484 	addiu	a0,a0,25732
  4164cc:	1000ffeb 	b	41647c <binary_user_idle_start+0x2134>
  4164d0:	2412fff8 	li	s2,-8
  4164d4:	1000ffe9 	b	41647c <binary_user_idle_start+0x2134>
  4164d8:	2412fffd 	li	s2,-3
  4164dc:	27bdffd8 	addiu	sp,sp,-40
  4164e0:	afbf0024 	sw	ra,36(sp)
  4164e4:	afb40020 	sw	s4,32(sp)
  4164e8:	afb3001c 	sw	s3,28(sp)
  4164ec:	afb20018 	sw	s2,24(sp)
  4164f0:	afb10014 	sw	s1,20(sp)
  4164f4:	00e68821 	addu	s1,a3,a2
  4164f8:	3c020040 	lui	v0,0x40
  4164fc:	24420001 	addiu	v0,v0,1
  416500:	0222102b 	sltu	v0,s1,v0
  416504:	1040001e 	beqz	v0,416580 <binary_user_idle_start+0x2238>
  416508:	afb00010 	sw	s0,16(sp)
  41650c:	00e09825 	move	s3,a3
  416510:	00c0a025 	move	s4,a2
  416514:	00a09025 	move	s2,a1
  416518:	8c820090 	lw	v0,144(a0)
  41651c:	0051102b 	sltu	v0,v0,s1
  416520:	10400008 	beqz	v0,416544 <binary_user_idle_start+0x21fc>
  416524:	00808025 	move	s0,a0
  416528:	0c1005b4 	jal	4016d0 <dup+0xdc>
  41652c:	00000000 	nop
  416530:	02202825 	move	a1,s1
  416534:	0c1007ef 	jal	401fbc <file_write+0x1c>
  416538:	00402025 	move	a0,v0
  41653c:	04400009 	bltz	v0,416564 <binary_user_idle_start+0x221c>
  416540:	8fbf0024 	lw	ra,36(sp)
  416544:	0c1005ae 	jal	4016b8 <dup+0xc4>
  416548:	02002025 	move	a0,s0
  41654c:	02803025 	move	a2,s4
  416550:	02622821 	addu	a1,s3,v0
  416554:	0c1002d3 	jal	400b4c <pgfault+0x8>
  416558:	02402025 	move	a0,s2
  41655c:	02801025 	move	v0,s4
  416560:	8fbf0024 	lw	ra,36(sp)
  416564:	8fb40020 	lw	s4,32(sp)
  416568:	8fb3001c 	lw	s3,28(sp)
  41656c:	8fb20018 	lw	s2,24(sp)
  416570:	8fb10014 	lw	s1,20(sp)
  416574:	8fb00010 	lw	s0,16(sp)
  416578:	03e00008 	jr	ra
  41657c:	27bd0028 	addiu	sp,sp,40
  416580:	1000fff7 	b	416560 <binary_user_idle_start+0x2218>
  416584:	2402fff8 	li	v0,-8
  416588:	27bdffe8 	addiu	sp,sp,-24
  41658c:	afbf0014 	sw	ra,20(sp)
  416590:	0c100a08 	jal	402820 <init_stack+0xa0>
  416594:	00000000 	nop
  416598:	8fbf0014 	lw	ra,20(sp)
  41659c:	03e00008 	jr	ra
  4165a0:	27bd0018 	addiu	sp,sp,24
  4165a4:	27bdffe8 	addiu	sp,sp,-24
  4165a8:	afbf0014 	sw	ra,20(sp)
  4165ac:	0c100a1e 	jal	402878 <init_stack+0xf8>
  4165b0:	00000000 	nop
  4165b4:	8fbf0014 	lw	ra,20(sp)
  4165b8:	03e00008 	jr	ra
  4165bc:	27bd0018 	addiu	sp,sp,24
  4165c0:	03e00008 	jr	ra
  4165c4:	00000000 	nop
  4165c8:	27bdffe8 	addiu	sp,sp,-24
  4165cc:	afbf0014 	sw	ra,20(sp)
  4165d0:	afb00010 	sw	s0,16(sp)
  4165d4:	00808025 	move	s0,a0
  4165d8:	00802825 	move	a1,a0
  4165dc:	0c100453 	jal	40114c <syscall_set_trapframe+0x28>
  4165e0:	00002025 	move	a0,zero
  4165e4:	0c1005ae 	jal	4016b8 <dup+0xc4>
  4165e8:	02002025 	move	a0,s0
  4165ec:	00402825 	move	a1,v0
  4165f0:	0c100453 	jal	40114c <syscall_set_trapframe+0x28>
  4165f4:	00002025 	move	a0,zero
  4165f8:	00001025 	move	v0,zero
  4165fc:	8fbf0014 	lw	ra,20(sp)
  416600:	8fb00010 	lw	s0,16(sp)
  416604:	03e00008 	jr	ra
  416608:	27bd0018 	addiu	sp,sp,24
  41660c:	27bdffd8 	addiu	sp,sp,-40
  416610:	afbf0024 	sw	ra,36(sp)
  416614:	afb40020 	sw	s4,32(sp)
  416618:	afb3001c 	sw	s3,28(sp)
  41661c:	afb20018 	sw	s2,24(sp)
  416620:	afb10014 	sw	s1,20(sp)
  416624:	afb00010 	sw	s0,16(sp)
  416628:	0080a025 	move	s4,a0
  41662c:	00a09825 	move	s3,a1
  416630:	3c100040 	lui	s0,0x40
  416634:	8e0265f0 	lw	v0,26096(s0)
  416638:	8c5100dc 	lw	s1,220(v0)
  41663c:	0c10070c 	jal	401c30 <file_close+0xdc>
  416640:	02802025 	move	a0,s4
  416644:	00409025 	move	s2,v0
  416648:	0c10070c 	jal	401c30 <file_close+0xdc>
  41664c:	02602025 	move	a0,s3
  416650:	8e0365f0 	lw	v1,26096(s0)
  416654:	8c6300dc 	lw	v1,220(v1)
  416658:	5623fff7 	bnel	s1,v1,416638 <binary_user_idle_start+0x22f0>
  41665c:	8e0265f0 	lw	v0,26096(s0)
  416660:	02421026 	xor	v0,s2,v0
  416664:	2c420001 	sltiu	v0,v0,1
  416668:	8fbf0024 	lw	ra,36(sp)
  41666c:	8fb40020 	lw	s4,32(sp)
  416670:	8fb3001c 	lw	s3,28(sp)
  416674:	8fb20018 	lw	s2,24(sp)
  416678:	8fb10014 	lw	s1,20(sp)
  41667c:	8fb00010 	lw	s0,16(sp)
  416680:	03e00008 	jr	ra
  416684:	27bd0028 	addiu	sp,sp,40
  416688:	27bdffd8 	addiu	sp,sp,-40
  41668c:	afbf0024 	sw	ra,36(sp)
  416690:	afb40020 	sw	s4,32(sp)
  416694:	afb3001c 	sw	s3,28(sp)
  416698:	afb20018 	sw	s2,24(sp)
  41669c:	afb10014 	sw	s1,20(sp)
  4166a0:	afb00010 	sw	s0,16(sp)
  4166a4:	0080a025 	move	s4,a0
  4166a8:	00a09025 	move	s2,a1
  4166ac:	0c1005ae 	jal	4016b8 <dup+0xc4>
  4166b0:	00c09825 	move	s3,a2
  4166b4:	00408025 	move	s0,v0
  4166b8:	10000003 	b	4166c8 <binary_user_idle_start+0x2380>
  4166bc:	00008825 	move	s1,zero
  4166c0:	0c100416 	jal	401058 <syscall_set_pgfault_handler+0x28>
  4166c4:	00000000 	nop
  4166c8:	0233102b 	sltu	v0,s1,s3
  4166cc:	10400013 	beqz	v0,41671c <binary_user_idle_start+0x23d4>
  4166d0:	02002825 	move	a1,s0
  4166d4:	0c10089c 	jal	402270 <piperead+0x6c>
  4166d8:	02802025 	move	a0,s4
  4166dc:	14400010 	bnez	v0,416720 <binary_user_idle_start+0x23d8>
  4166e0:	02201025 	move	v0,s1
  4166e4:	8e030004 	lw	v1,4(s0)
  4166e8:	8e020000 	lw	v0,0(s0)
  4166ec:	00621023 	subu	v0,v1,v0
  4166f0:	2c420020 	sltiu	v0,v0,32
  4166f4:	1040fff2 	beqz	v0,4166c0 <binary_user_idle_start+0x2378>
  4166f8:	3062001f 	andi	v0,v1,0x1f
  4166fc:	92440000 	lbu	a0,0(s2)
  416700:	02021021 	addu	v0,s0,v0
  416704:	a0440008 	sb	a0,8(v0)
  416708:	26520001 	addiu	s2,s2,1
  41670c:	26310001 	addiu	s1,s1,1
  416710:	24630001 	addiu	v1,v1,1
  416714:	1000ffec 	b	4166c8 <binary_user_idle_start+0x2380>
  416718:	ae030004 	sw	v1,4(s0)
  41671c:	02201025 	move	v0,s1
  416720:	8fbf0024 	lw	ra,36(sp)
  416724:	8fb40020 	lw	s4,32(sp)
  416728:	8fb3001c 	lw	s3,28(sp)
  41672c:	8fb20018 	lw	s2,24(sp)
  416730:	8fb10014 	lw	s1,20(sp)
  416734:	8fb00010 	lw	s0,16(sp)
  416738:	03e00008 	jr	ra
  41673c:	27bd0028 	addiu	sp,sp,40
  416740:	27bdffd8 	addiu	sp,sp,-40
  416744:	afbf0024 	sw	ra,36(sp)
  416748:	afb40020 	sw	s4,32(sp)
  41674c:	afb3001c 	sw	s3,28(sp)
  416750:	afb20018 	sw	s2,24(sp)
  416754:	afb10014 	sw	s1,20(sp)
  416758:	afb00010 	sw	s0,16(sp)
  41675c:	0080a025 	move	s4,a0
  416760:	00a09025 	move	s2,a1
  416764:	0c1005ae 	jal	4016b8 <dup+0xc4>
  416768:	00c09825 	move	s3,a2
  41676c:	00408025 	move	s0,v0
  416770:	10000011 	b	4167b8 <binary_user_idle_start+0x2470>
  416774:	00008825 	move	s1,zero
  416778:	8e030004 	lw	v1,4(s0)
  41677c:	0043182b 	sltu	v1,v0,v1
  416780:	54600005 	bnezl	v1,416798 <binary_user_idle_start+0x2450>
  416784:	3042001f 	andi	v0,v0,0x1f
  416788:	0c100416 	jal	401058 <syscall_set_pgfault_handler+0x28>
  41678c:	00000000 	nop
  416790:	1000000a 	b	4167bc <binary_user_idle_start+0x2474>
  416794:	0233102b 	sltu	v0,s1,s3
  416798:	02021021 	addu	v0,s0,v0
  41679c:	90420008 	lbu	v0,8(v0)
  4167a0:	a2420000 	sb	v0,0(s2)
  4167a4:	26520001 	addiu	s2,s2,1
  4167a8:	26310001 	addiu	s1,s1,1
  4167ac:	8e020000 	lw	v0,0(s0)
  4167b0:	24420001 	addiu	v0,v0,1
  4167b4:	ae020000 	sw	v0,0(s0)
  4167b8:	0233102b 	sltu	v0,s1,s3
  4167bc:	10400009 	beqz	v0,4167e4 <binary_user_idle_start+0x249c>
  4167c0:	02002825 	move	a1,s0
  4167c4:	0c10089c 	jal	402270 <piperead+0x6c>
  4167c8:	02802025 	move	a0,s4
  4167cc:	1040ffea 	beqz	v0,416778 <binary_user_idle_start+0x2430>
  4167d0:	8e020000 	lw	v0,0(s0)
  4167d4:	8e030004 	lw	v1,4(s0)
  4167d8:	0043182b 	sltu	v1,v0,v1
  4167dc:	1460ffee 	bnez	v1,416798 <binary_user_idle_start+0x2450>
  4167e0:	3042001f 	andi	v0,v0,0x1f
  4167e4:	02201025 	move	v0,s1
  4167e8:	8fbf0024 	lw	ra,36(sp)
  4167ec:	8fb40020 	lw	s4,32(sp)
  4167f0:	8fb3001c 	lw	s3,28(sp)
  4167f4:	8fb20018 	lw	s2,24(sp)
  4167f8:	8fb10014 	lw	s1,20(sp)
  4167fc:	8fb00010 	lw	s0,16(sp)
  416800:	03e00008 	jr	ra
  416804:	27bd0028 	addiu	sp,sp,40
  416808:	27bdffd0 	addiu	sp,sp,-48
  41680c:	afbf002c 	sw	ra,44(sp)
  416810:	afb20028 	sw	s2,40(sp)
  416814:	afb10024 	sw	s1,36(sp)
  416818:	afb00020 	sw	s0,32(sp)
  41681c:	00808825 	move	s1,a0
  416820:	0c100566 	jal	401598 <close+0x44>
  416824:	27a40018 	addiu	a0,sp,24
  416828:	0440004e 	bltz	v0,416964 <binary_user_idle_start+0x261c>
  41682c:	00408025 	move	s0,v0
  416830:	24060604 	li	a2,1540
  416834:	8fa50018 	lw	a1,24(sp)
  416838:	0c10043a 	jal	4010e8 <syscall_mem_unmap+0x24>
  41683c:	00002025 	move	a0,zero
  416840:	04400048 	bltz	v0,416964 <binary_user_idle_start+0x261c>
  416844:	00408025 	move	s0,v0
  416848:	0c100566 	jal	401598 <close+0x44>
  41684c:	27a4001c 	addiu	a0,sp,28
  416850:	04400041 	bltz	v0,416958 <binary_user_idle_start+0x2610>
  416854:	00408025 	move	s0,v0
  416858:	24060604 	li	a2,1540
  41685c:	8fa5001c 	lw	a1,28(sp)
  416860:	0c10043a 	jal	4010e8 <syscall_mem_unmap+0x24>
  416864:	00002025 	move	a0,zero
  416868:	0440003b 	bltz	v0,416958 <binary_user_idle_start+0x2610>
  41686c:	00408025 	move	s0,v0
  416870:	0c1005ae 	jal	4016b8 <dup+0xc4>
  416874:	8fa40018 	lw	a0,24(sp)
  416878:	00409025 	move	s2,v0
  41687c:	24060604 	li	a2,1540
  416880:	00402825 	move	a1,v0
  416884:	0c10043a 	jal	4010e8 <syscall_mem_unmap+0x24>
  416888:	00002025 	move	a0,zero
  41688c:	0440002f 	bltz	v0,41694c <binary_user_idle_start+0x2604>
  416890:	00408025 	move	s0,v0
  416894:	0c1005ae 	jal	4016b8 <dup+0xc4>
  416898:	8fa4001c 	lw	a0,28(sp)
  41689c:	24030604 	li	v1,1540
  4168a0:	afa30010 	sw	v1,16(sp)
  4168a4:	00403825 	move	a3,v0
  4168a8:	00003025 	move	a2,zero
  4168ac:	02402825 	move	a1,s2
  4168b0:	0c100446 	jal	401118 <syscall_set_env_status+0x24>
  4168b4:	00002025 	move	a0,zero
  4168b8:	04400021 	bltz	v0,416940 <binary_user_idle_start+0x25f8>
  4168bc:	00408025 	move	s0,v0
  4168c0:	3c020040 	lui	v0,0x40
  4168c4:	8c446030 	lw	a0,24624(v0)
  4168c8:	8fa30018 	lw	v1,24(sp)
  4168cc:	ac640000 	sw	a0,0(v1)
  4168d0:	8fa30018 	lw	v1,24(sp)
  4168d4:	ac600008 	sw	zero,8(v1)
  4168d8:	8c436030 	lw	v1,24624(v0)
  4168dc:	8fa2001c 	lw	v0,28(sp)
  4168e0:	ac430000 	sw	v1,0(v0)
  4168e4:	24030001 	li	v1,1
  4168e8:	8fa2001c 	lw	v0,28(sp)
  4168ec:	ac430008 	sw	v1,8(v0)
  4168f0:	00129302 	srl	s2,s2,0xc
  4168f4:	00121080 	sll	v0,s2,0x2
  4168f8:	3c030040 	lui	v1,0x40
  4168fc:	8c726008 	lw	s2,24584(v1)
  416900:	02429021 	addu	s2,s2,v0
  416904:	8e460000 	lw	a2,0(s2)
  416908:	3c020040 	lui	v0,0x40
  41690c:	8c4265f0 	lw	v0,26096(v0)
  416910:	8c4500a4 	lw	a1,164(v0)
  416914:	3c040040 	lui	a0,0x40
  416918:	0c100068 	jal	4001a0 <user_PrintChar>
  41691c:	24846494 	addiu	a0,a0,25748
  416920:	0c1005b4 	jal	4016d0 <dup+0xdc>
  416924:	8fa40018 	lw	a0,24(sp)
  416928:	ae220000 	sw	v0,0(s1)
  41692c:	0c1005b4 	jal	4016d0 <dup+0xdc>
  416930:	8fa4001c 	lw	a0,28(sp)
  416934:	ae220004 	sw	v0,4(s1)
  416938:	1000000a 	b	416964 <binary_user_idle_start+0x261c>
  41693c:	00008025 	move	s0,zero
  416940:	02402825 	move	a1,s2
  416944:	0c100453 	jal	40114c <syscall_set_trapframe+0x28>
  416948:	00002025 	move	a0,zero
  41694c:	8fa5001c 	lw	a1,28(sp)
  416950:	0c100453 	jal	40114c <syscall_set_trapframe+0x28>
  416954:	00002025 	move	a0,zero
  416958:	8fa50018 	lw	a1,24(sp)
  41695c:	0c100453 	jal	40114c <syscall_set_trapframe+0x28>
  416960:	00002025 	move	a0,zero
  416964:	02001025 	move	v0,s0
  416968:	8fbf002c 	lw	ra,44(sp)
  41696c:	8fb20028 	lw	s2,40(sp)
  416970:	8fb10024 	lw	s1,36(sp)
  416974:	8fb00020 	lw	s0,32(sp)
  416978:	03e00008 	jr	ra
  41697c:	27bd0030 	addiu	sp,sp,48
  416980:	27bdffe0 	addiu	sp,sp,-32
  416984:	afbf001c 	sw	ra,28(sp)
  416988:	0c100598 	jal	401660 <dup+0x6c>
  41698c:	27a50010 	addiu	a1,sp,16
  416990:	04400007 	bltz	v0,4169b0 <binary_user_idle_start+0x2668>
  416994:	8fbf001c 	lw	ra,28(sp)
  416998:	0c1005ae 	jal	4016b8 <dup+0xc4>
  41699c:	8fa40010 	lw	a0,16(sp)
  4169a0:	00402825 	move	a1,v0
  4169a4:	0c10089c 	jal	402270 <piperead+0x6c>
  4169a8:	8fa40010 	lw	a0,16(sp)
  4169ac:	8fbf001c 	lw	ra,28(sp)
  4169b0:	03e00008 	jr	ra
  4169b4:	27bd0020 	addiu	sp,sp,32
  4169b8:	27bdffd8 	addiu	sp,sp,-40
  4169bc:	afbf0024 	sw	ra,36(sp)
  4169c0:	afb10020 	sw	s1,32(sp)
  4169c4:	afb0001c 	sw	s0,28(sp)
  4169c8:	00c08025 	move	s0,a2
  4169cc:	00e08825 	move	s1,a3
  4169d0:	3c020040 	lui	v0,0x40
  4169d4:	8c426000 	lw	v0,24576(v0)
  4169d8:	24070600 	li	a3,1536
  4169dc:	00a03025 	move	a2,a1
  4169e0:	00802825 	move	a1,a0
  4169e4:	0c1004bf 	jal	4012fc <ipc_send+0x88>
  4169e8:	8c440184 	lw	a0,388(v0)
  4169ec:	02203025 	move	a2,s1
  4169f0:	02002825 	move	a1,s0
  4169f4:	0c1004e5 	jal	401394 <dev_lookup+0x20>
  4169f8:	27a40010 	addiu	a0,sp,16
  4169fc:	8fbf0024 	lw	ra,36(sp)
  416a00:	8fb10020 	lw	s1,32(sp)
  416a04:	8fb0001c 	lw	s0,28(sp)
  416a08:	03e00008 	jr	ra
  416a0c:	27bd0028 	addiu	sp,sp,40
  416a10:	27bdffd8 	addiu	sp,sp,-40
  416a14:	afbf0024 	sw	ra,36(sp)
  416a18:	afb20020 	sw	s2,32(sp)
  416a1c:	afb1001c 	sw	s1,28(sp)
  416a20:	afb00018 	sw	s0,24(sp)
  416a24:	00808025 	move	s0,a0
  416a28:	00a08825 	move	s1,a1
  416a2c:	0c1004ff 	jal	4013fc <fd_alloc+0x4>
  416a30:	00c09025 	move	s2,a2
  416a34:	28420400 	slti	v0,v0,1024
  416a38:	10400011 	beqz	v0,416a80 <binary_user_idle_start+0x2738>
  416a3c:	02002825 	move	a1,s0
  416a40:	3c100040 	lui	s0,0x40
  416a44:	0c10050b 	jal	40142c <fd_alloc+0x34>
  416a48:	26044000 	addiu	a0,s0,16384
  416a4c:	26054000 	addiu	a1,s0,16384
  416a50:	a8b10403 	swl	s1,1027(a1)
  416a54:	b8b10400 	swr	s1,1024(a1)
  416a58:	27a70010 	addiu	a3,sp,16
  416a5c:	02403025 	move	a2,s2
  416a60:	0c100987 	jal	40261c <fsipc_close+0x10>
  416a64:	24040001 	li	a0,1
  416a68:	8fbf0024 	lw	ra,36(sp)
  416a6c:	8fb20020 	lw	s2,32(sp)
  416a70:	8fb1001c 	lw	s1,28(sp)
  416a74:	8fb00018 	lw	s0,24(sp)
  416a78:	03e00008 	jr	ra
  416a7c:	27bd0028 	addiu	sp,sp,40
  416a80:	1000fff9 	b	416a68 <binary_user_idle_start+0x2720>
  416a84:	2402fff5 	li	v0,-11
  416a88:	27bdffd8 	addiu	sp,sp,-40
  416a8c:	afbf0024 	sw	ra,36(sp)
  416a90:	afb00020 	sw	s0,32(sp)
  416a94:	00c08025 	move	s0,a2
  416a98:	3c030040 	lui	v1,0x40
  416a9c:	24624000 	addiu	v0,v1,16384
  416aa0:	a8440003 	swl	a0,3(v0)
  416aa4:	b8644000 	swr	a0,16384(v1)
  416aa8:	a8450007 	swl	a1,7(v0)
  416aac:	b8450004 	swr	a1,4(v0)
  416ab0:	27a70018 	addiu	a3,sp,24
  416ab4:	00402825 	move	a1,v0
  416ab8:	0c100987 	jal	40261c <fsipc_close+0x10>
  416abc:	24040002 	li	a0,2
  416ac0:	04400006 	bltz	v0,416adc <binary_user_idle_start+0x2794>
  416ac4:	2403fbfb 	li	v1,-1029
  416ac8:	8fa70018 	lw	a3,24(sp)
  416acc:	00e31824 	and	v1,a3,v1
  416ad0:	24040200 	li	a0,512
  416ad4:	14640005 	bne	v1,a0,416aec <binary_user_idle_start+0x27a4>
  416ad8:	00001025 	move	v0,zero
  416adc:	8fbf0024 	lw	ra,36(sp)
  416ae0:	8fb00020 	lw	s0,32(sp)
  416ae4:	03e00008 	jr	ra
  416ae8:	27bd0028 	addiu	sp,sp,40
  416aec:	afb00010 	sw	s0,16(sp)
  416af0:	3c060040 	lui	a2,0x40
  416af4:	24c664b0 	addiu	a2,a2,25776
  416af8:	24050051 	li	a1,81
  416afc:	3c040040 	lui	a0,0x40
  416b00:	0c100077 	jal	4001dc <user_PrintChar+0x3c>
  416b04:	248464e8 	addiu	a0,a0,25832
  416b08:	27bdffe8 	addiu	sp,sp,-24
  416b0c:	afbf0014 	sw	ra,20(sp)
  416b10:	3c030040 	lui	v1,0x40
  416b14:	24624000 	addiu	v0,v1,16384
  416b18:	a8440003 	swl	a0,3(v0)
  416b1c:	b8644000 	swr	a0,16384(v1)
  416b20:	a8450007 	swl	a1,7(v0)
  416b24:	b8450004 	swr	a1,4(v0)
  416b28:	00003825 	move	a3,zero
  416b2c:	00003025 	move	a2,zero
  416b30:	00402825 	move	a1,v0
  416b34:	0c100987 	jal	40261c <fsipc_close+0x10>
  416b38:	24040003 	li	a0,3
  416b3c:	8fbf0014 	lw	ra,20(sp)
  416b40:	03e00008 	jr	ra
  416b44:	27bd0018 	addiu	sp,sp,24
  416b48:	27bdffe8 	addiu	sp,sp,-24
  416b4c:	afbf0014 	sw	ra,20(sp)
  416b50:	3c020040 	lui	v0,0x40
  416b54:	24454000 	addiu	a1,v0,16384
  416b58:	a8a40003 	swl	a0,3(a1)
  416b5c:	b8444000 	swr	a0,16384(v0)
  416b60:	00003825 	move	a3,zero
  416b64:	00003025 	move	a2,zero
  416b68:	0c100987 	jal	40261c <fsipc_close+0x10>
  416b6c:	24040004 	li	a0,4
  416b70:	8fbf0014 	lw	ra,20(sp)
  416b74:	03e00008 	jr	ra
  416b78:	27bd0018 	addiu	sp,sp,24
  416b7c:	27bdffe8 	addiu	sp,sp,-24
  416b80:	afbf0014 	sw	ra,20(sp)
  416b84:	3c030040 	lui	v1,0x40
  416b88:	24624000 	addiu	v0,v1,16384
  416b8c:	a8440003 	swl	a0,3(v0)
  416b90:	b8644000 	swr	a0,16384(v1)
  416b94:	a8450007 	swl	a1,7(v0)
  416b98:	b8450004 	swr	a1,4(v0)
  416b9c:	00003825 	move	a3,zero
  416ba0:	00003025 	move	a2,zero
  416ba4:	00402825 	move	a1,v0
  416ba8:	0c100987 	jal	40261c <fsipc_close+0x10>
  416bac:	24040005 	li	a0,5
  416bb0:	8fbf0014 	lw	ra,20(sp)
  416bb4:	03e00008 	jr	ra
  416bb8:	27bd0018 	addiu	sp,sp,24
  416bbc:	27bdffe8 	addiu	sp,sp,-24
  416bc0:	afbf0014 	sw	ra,20(sp)
  416bc4:	afb00010 	sw	s0,16(sp)
  416bc8:	0c1004ff 	jal	4013fc <fd_alloc+0x4>
  416bcc:	00808025 	move	s0,a0
  416bd0:	28420400 	slti	v0,v0,1024
  416bd4:	1040000d 	beqz	v0,416c0c <binary_user_idle_start+0x28c4>
  416bd8:	02002825 	move	a1,s0
  416bdc:	3c100040 	lui	s0,0x40
  416be0:	0c10050b 	jal	40142c <fd_alloc+0x34>
  416be4:	26044000 	addiu	a0,s0,16384
  416be8:	00003825 	move	a3,zero
  416bec:	00003025 	move	a2,zero
  416bf0:	26054000 	addiu	a1,s0,16384
  416bf4:	0c100987 	jal	40261c <fsipc_close+0x10>
  416bf8:	24040006 	li	a0,6
  416bfc:	8fbf0014 	lw	ra,20(sp)
  416c00:	8fb00010 	lw	s0,16(sp)
  416c04:	03e00008 	jr	ra
  416c08:	27bd0018 	addiu	sp,sp,24
  416c0c:	1000fffb 	b	416bfc <binary_user_idle_start+0x28b4>
  416c10:	2402fff5 	li	v0,-11
  416c14:	27bdffe8 	addiu	sp,sp,-24
  416c18:	afbf0014 	sw	ra,20(sp)
  416c1c:	00003825 	move	a3,zero
  416c20:	00003025 	move	a2,zero
  416c24:	3c050040 	lui	a1,0x40
  416c28:	24a54000 	addiu	a1,a1,16384
  416c2c:	0c100987 	jal	40261c <fsipc_close+0x10>
  416c30:	24040007 	li	a0,7
  416c34:	8fbf0014 	lw	ra,20(sp)
  416c38:	03e00008 	jr	ra
  416c3c:	27bd0018 	addiu	sp,sp,24
  416c40:	27bdffe0 	addiu	sp,sp,-32
  416c44:	afbf001c 	sw	ra,28(sp)
  416c48:	afb10018 	sw	s1,24(sp)
  416c4c:	afb00014 	sw	s0,20(sp)
  416c50:	308203ff 	andi	v0,a0,0x3ff
  416c54:	000280c0 	sll	s0,v0,0x3
  416c58:	02028023 	subu	s0,s0,v0
  416c5c:	00101140 	sll	v0,s0,0x5
  416c60:	3c030040 	lui	v1,0x40
  416c64:	8c706000 	lw	s0,24576(v1)
  416c68:	02028021 	addu	s0,s0,v0
  416c6c:	8e0200a4 	lw	v0,164(s0)
  416c70:	1482000c 	bne	a0,v0,416ca4 <binary_user_idle_start+0x295c>
  416c74:	8fbf001c 	lw	ra,28(sp)
  416c78:	8e0200ac 	lw	v0,172(s0)
  416c7c:	10400009 	beqz	v0,416ca4 <binary_user_idle_start+0x295c>
  416c80:	00808825 	move	s1,a0
  416c84:	0c100416 	jal	401058 <syscall_set_pgfault_handler+0x28>
  416c88:	00000000 	nop
  416c8c:	8e0200a4 	lw	v0,164(s0)
  416c90:	16220004 	bne	s1,v0,416ca4 <binary_user_idle_start+0x295c>
  416c94:	8fbf001c 	lw	ra,28(sp)
  416c98:	8e0200ac 	lw	v0,172(s0)
  416c9c:	1440fff9 	bnez	v0,416c84 <binary_user_idle_start+0x293c>
  416ca0:	00000000 	nop
  416ca4:	8fb10018 	lw	s1,24(sp)
  416ca8:	8fb00014 	lw	s0,20(sp)
  416cac:	03e00008 	jr	ra
  416cb0:	27bd0020 	addiu	sp,sp,32
  416cb4:	27bdffb0 	addiu	sp,sp,-80
  416cb8:	afbf004c 	sw	ra,76(sp)
  416cbc:	afbe0048 	sw	s8,72(sp)
  416cc0:	afb70044 	sw	s7,68(sp)
  416cc4:	afb60040 	sw	s6,64(sp)
  416cc8:	afb5003c 	sw	s5,60(sp)
  416ccc:	afb40038 	sw	s4,56(sp)
  416cd0:	afb30034 	sw	s3,52(sp)
  416cd4:	afb20030 	sw	s2,48(sp)
  416cd8:	afb1002c 	sw	s1,44(sp)
  416cdc:	afb00028 	sw	s0,40(sp)
  416ce0:	afa40050 	sw	a0,80(sp)
  416ce4:	afa60058 	sw	a2,88(sp)
  416ce8:	8ca40000 	lw	a0,0(a1)
  416cec:	1080007c 	beqz	a0,416ee0 <binary_user_idle_start+0x2b98>
  416cf0:	00a0a025 	move	s4,a1
  416cf4:	24b10004 	addiu	s1,a1,4
  416cf8:	00009825 	move	s3,zero
  416cfc:	10000002 	b	416d08 <binary_user_idle_start+0x29c0>
  416d00:	00009025 	move	s2,zero
  416d04:	02009025 	move	s2,s0
  416d08:	0c1004ff 	jal	4013fc <fd_alloc+0x4>
  416d0c:	26500001 	addiu	s0,s2,1
  416d10:	24420001 	addiu	v0,v0,1
  416d14:	02629821 	addu	s3,s3,v0
  416d18:	0200f025 	move	s8,s0
  416d1c:	26310004 	addiu	s1,s1,4
  416d20:	8e24fffc 	lw	a0,-4(s1)
  416d24:	1480fff7 	bnez	a0,416d04 <binary_user_idle_start+0x29bc>
  416d28:	0010b880 	sll	s7,s0,0x2
  416d2c:	26630003 	addiu	v1,s3,3
  416d30:	7c030804 	ins	v1,zero,0x0,0x2
  416d34:	26420004 	addiu	v0,s2,4
  416d38:	00021080 	sll	v0,v0,0x2
  416d3c:	00431021 	addu	v0,v0,v1
  416d40:	2c421001 	sltiu	v0,v0,4097
  416d44:	10400039 	beqz	v0,416e2c <binary_user_idle_start+0x2ae4>
  416d48:	24022000 	li	v0,8192
  416d4c:	00532023 	subu	a0,v0,s3
  416d50:	00809825 	move	s3,a0
  416d54:	afa40018 	sw	a0,24(sp)
  416d58:	26510002 	addiu	s1,s2,2
  416d5c:	00118880 	sll	s1,s1,0x2
  416d60:	00711821 	addu	v1,v1,s1
  416d64:	afa30020 	sw	v1,32(sp)
  416d68:	00431023 	subu	v0,v0,v1
  416d6c:	afa20024 	sw	v0,36(sp)
  416d70:	afa2001c 	sw	v0,28(sp)
  416d74:	24060600 	li	a2,1536
  416d78:	24051000 	li	a1,4096
  416d7c:	0c10043a 	jal	4010e8 <syscall_mem_unmap+0x24>
  416d80:	00002025 	move	a0,zero
  416d84:	0440001c 	bltz	v0,416df8 <binary_user_idle_start+0x2ab0>
  416d88:	00409025 	move	s2,v0
  416d8c:	5a000063 	blezl	s0,416f1c <binary_user_idle_start+0x2bd4>
  416d90:	3c107f3f 	lui	s0,0x7f3f
  416d94:	0280b025 	move	s6,s4
  416d98:	2631fffc 	addiu	s1,s1,-4
  416d9c:	0291a821 	addu	s5,s4,s1
  416da0:	1000000e 	b	416ddc <binary_user_idle_start+0x2a94>
  416da4:	02609025 	move	s2,s3
  416da8:	a2020000 	sb	v0,0(s0)
  416dac:	26100001 	addiu	s0,s0,1
  416db0:	26310001 	addiu	s1,s1,1
  416db4:	0c1004ff 	jal	4013fc <fd_alloc+0x4>
  416db8:	8e640000 	lw	a0,0(s3)
  416dbc:	02121823 	subu	v1,s0,s2
  416dc0:	0062102b 	sltu	v0,v1,v0
  416dc4:	5440fff8 	bnezl	v0,416da8 <binary_user_idle_start+0x2a60>
  416dc8:	92220000 	lbu	v0,0(s1)
  416dcc:	a2000000 	sb	zero,0(s0)
  416dd0:	26940004 	addiu	s4,s4,4
  416dd4:	12950017 	beq	s4,s5,416e34 <binary_user_idle_start+0x2aec>
  416dd8:	26120001 	addiu	s2,s0,1
  416ddc:	02809825 	move	s3,s4
  416de0:	8e910000 	lw	s1,0(s4)
  416de4:	1000fff3 	b	416db4 <binary_user_idle_start+0x2a6c>
  416de8:	02408025 	move	s0,s2
  416dec:	24051000 	li	a1,4096
  416df0:	0c100453 	jal	40114c <syscall_set_trapframe+0x28>
  416df4:	00002025 	move	a0,zero
  416df8:	02401025 	move	v0,s2
  416dfc:	8fbf004c 	lw	ra,76(sp)
  416e00:	8fbe0048 	lw	s8,72(sp)
  416e04:	8fb70044 	lw	s7,68(sp)
  416e08:	8fb60040 	lw	s6,64(sp)
  416e0c:	8fb5003c 	lw	s5,60(sp)
  416e10:	8fb40038 	lw	s4,56(sp)
  416e14:	8fb30034 	lw	s3,52(sp)
  416e18:	8fb20030 	lw	s2,48(sp)
  416e1c:	8fb1002c 	lw	s1,44(sp)
  416e20:	8fb00028 	lw	s0,40(sp)
  416e24:	03e00008 	jr	ra
  416e28:	27bd0050 	addiu	sp,sp,80
  416e2c:	1000fff2 	b	416df8 <binary_user_idle_start+0x2ab0>
  416e30:	2412fffc 	li	s2,-4
  416e34:	3c107f3f 	lui	s0,0x7f3f
  416e38:	3610c000 	ori	s0,s0,0xc000
  416e3c:	8fa20018 	lw	v0,24(sp)
  416e40:	00508021 	addu	s0,v0,s0
  416e44:	8fb10024 	lw	s1,36(sp)
  416e48:	ae300000 	sw	s0,0(s1)
  416e4c:	0c1004ff 	jal	4013fc <fd_alloc+0x4>
  416e50:	8ec40000 	lw	a0,0(s6)
  416e54:	24420001 	addiu	v0,v0,1
  416e58:	02028021 	addu	s0,s0,v0
  416e5c:	26d60004 	addiu	s6,s6,4
  416e60:	1696fff9 	bne	s4,s6,416e48 <binary_user_idle_start+0x2b00>
  416e64:	26310004 	addiu	s1,s1,4
  416e68:	8fa3001c 	lw	v1,28(sp)
  416e6c:	0077b821 	addu	s7,v1,s7
  416e70:	2610ffff 	addiu	s0,s0,-1
  416e74:	aef00000 	sw	s0,0(s7)
  416e78:	3c077f3f 	lui	a3,0x7f3f
  416e7c:	34e7e000 	ori	a3,a3,0xe000
  416e80:	8fa20020 	lw	v0,32(sp)
  416e84:	00e21023 	subu	v0,a3,v0
  416e88:	ac62fffc 	sw	v0,-4(v1)
  416e8c:	ac7efff8 	sw	s8,-8(v1)
  416e90:	00671021 	addu	v0,v1,a3
  416e94:	2442dff8 	addiu	v0,v0,-8200
  416e98:	8fa30058 	lw	v1,88(sp)
  416e9c:	ac620000 	sw	v0,0(v1)
  416ea0:	24020600 	li	v0,1536
  416ea4:	afa20010 	sw	v0,16(sp)
  416ea8:	24e7f000 	addiu	a3,a3,-4096
  416eac:	8fa60050 	lw	a2,80(sp)
  416eb0:	24051000 	li	a1,4096
  416eb4:	0c100446 	jal	401118 <syscall_set_env_status+0x24>
  416eb8:	00002025 	move	a0,zero
  416ebc:	0440ffcb 	bltz	v0,416dec <binary_user_idle_start+0x2aa4>
  416ec0:	00409025 	move	s2,v0
  416ec4:	24051000 	li	a1,4096
  416ec8:	0c100453 	jal	40114c <syscall_set_trapframe+0x28>
  416ecc:	00002025 	move	a0,zero
  416ed0:	0440ffc6 	bltz	v0,416dec <binary_user_idle_start+0x2aa4>
  416ed4:	00409025 	move	s2,v0
  416ed8:	1000ffc7 	b	416df8 <binary_user_idle_start+0x2ab0>
  416edc:	00009025 	move	s2,zero
  416ee0:	24060600 	li	a2,1536
  416ee4:	24051000 	li	a1,4096
  416ee8:	0c10043a 	jal	4010e8 <syscall_mem_unmap+0x24>
  416eec:	00002025 	move	a0,zero
  416ef0:	0440ffc1 	bltz	v0,416df8 <binary_user_idle_start+0x2ab0>
  416ef4:	00409025 	move	s2,v0
  416ef8:	0000b825 	move	s7,zero
  416efc:	0000f025 	move	s8,zero
  416f00:	24020004 	li	v0,4
  416f04:	afa20020 	sw	v0,32(sp)
  416f08:	24021ffc 	li	v0,8188
  416f0c:	afa2001c 	sw	v0,28(sp)
  416f10:	24022000 	li	v0,8192
  416f14:	afa20018 	sw	v0,24(sp)
  416f18:	3c107f3f 	lui	s0,0x7f3f
  416f1c:	3610c000 	ori	s0,s0,0xc000
  416f20:	8fa20018 	lw	v0,24(sp)
  416f24:	1000ffd0 	b	416e68 <binary_user_idle_start+0x2b20>
  416f28:	00508021 	addu	s0,v0,s0
  416f2c:	8c820000 	lw	v0,0(a0)
  416f30:	3c03b9b3 	lui	v1,0xb9b3
  416f34:	3463ba81 	ori	v1,v1,0xba81
  416f38:	00431021 	addu	v0,v0,v1
  416f3c:	03e00008 	jr	ra
  416f40:	2c420001 	sltiu	v0,v0,1
  416f44:	03e00008 	jr	ra
  416f48:	00001025 	move	v0,zero
  416f4c:	27bdffb8 	addiu	sp,sp,-72
  416f50:	afbf0044 	sw	ra,68(sp)
  416f54:	afbe0040 	sw	s8,64(sp)
  416f58:	afb7003c 	sw	s7,60(sp)
  416f5c:	afb60038 	sw	s6,56(sp)
  416f60:	afb50034 	sw	s5,52(sp)
  416f64:	afb40030 	sw	s4,48(sp)
  416f68:	afb3002c 	sw	s3,44(sp)
  416f6c:	afb20028 	sw	s2,40(sp)
  416f70:	afb10024 	sw	s1,36(sp)
  416f74:	afb00020 	sw	s0,32(sp)
  416f78:	0080b825 	move	s7,a0
  416f7c:	0c1005b8 	jal	4016e0 <dup+0xec>
  416f80:	afa5004c 	sw	a1,76(sp)
  416f84:	0c1005ae 	jal	4016b8 <dup+0xc4>
  416f88:	00402025 	move	a0,v0
  416f8c:	8c440000 	lw	a0,0(v0)
  416f90:	3c03464c 	lui	v1,0x464c
  416f94:	2463457f 	addiu	v1,v1,17791
  416f98:	5483000d 	bnel	a0,v1,416fd0 <binary_user_idle_start+0x2c88>
  416f9c:	3c040040 	lui	a0,0x40
  416fa0:	8c53001c 	lw	s3,28(v0)
  416fa4:	00539821 	addu	s3,v0,s3
  416fa8:	9443002c 	lhu	v1,44(v0)
  416fac:	945e002a 	lhu	s8,42(v0)
  416fb0:	2475ffff 	addiu	s5,v1,-1
  416fb4:	10600057 	beqz	v1,417114 <binary_user_idle_start+0x2dcc>
  416fb8:	32b5ffff 	andi	s5,s5,0xffff
  416fbc:	3c115fff 	lui	s1,0x5fff
  416fc0:	3631f000 	ori	s1,s1,0xf000
  416fc4:	3c16003f 	lui	s6,0x3f
  416fc8:	10000047 	b	4170e8 <binary_user_idle_start+0x2da0>
  416fcc:	36d6f000 	ori	s6,s6,0xf000
  416fd0:	0c100068 	jal	4001a0 <user_PrintChar>
  416fd4:	248464f0 	addiu	a0,a0,25840
  416fd8:	10000004 	b	416fec <binary_user_idle_start+0x2ca4>
  416fdc:	2414ffff 	li	s4,-1
  416fe0:	3c040040 	lui	a0,0x40
  416fe4:	0c100068 	jal	4001a0 <user_PrintChar>
  416fe8:	248464fc 	addiu	a0,a0,25852
  416fec:	02801025 	move	v0,s4
  416ff0:	8fbf0044 	lw	ra,68(sp)
  416ff4:	8fbe0040 	lw	s8,64(sp)
  416ff8:	8fb7003c 	lw	s7,60(sp)
  416ffc:	8fb60038 	lw	s6,56(sp)
  417000:	8fb50034 	lw	s5,52(sp)
  417004:	8fb40030 	lw	s4,48(sp)
  417008:	8fb3002c 	lw	s3,44(sp)
  41700c:	8fb20028 	lw	s2,40(sp)
  417010:	8fb10024 	lw	s1,36(sp)
  417014:	8fb00020 	lw	s0,32(sp)
  417018:	03e00008 	jr	ra
  41701c:	27bd0048 	addiu	sp,sp,72
  417020:	1a400004 	blez	s2,417034 <binary_user_idle_start+0x2cec>
  417024:	24061000 	li	a2,4096
  417028:	02202825 	move	a1,s1
  41702c:	0c1002d3 	jal	400b4c <pgfault+0x8>
  417030:	8fa40018 	lw	a0,24(sp)
  417034:	24020600 	li	v0,1536
  417038:	afa20010 	sw	v0,16(sp)
  41703c:	02163821 	addu	a3,s0,s6
  417040:	8fa6004c 	lw	a2,76(sp)
  417044:	02202825 	move	a1,s1
  417048:	0c100446 	jal	401118 <syscall_set_env_status+0x24>
  41704c:	00002025 	move	a0,zero
  417050:	02202825 	move	a1,s1
  417054:	0c100453 	jal	40114c <syscall_set_trapframe+0x28>
  417058:	00002025 	move	a0,zero
  41705c:	02009025 	move	s2,s0
  417060:	8e620014 	lw	v0,20(s3)
  417064:	0202802b 	sltu	s0,s0,v0
  417068:	5200001b 	beqzl	s0,4170d8 <binary_user_idle_start+0x2d90>
  41706c:	26b5ffff 	addiu	s5,s5,-1
  417070:	26501000 	addiu	s0,s2,4096
  417074:	27a60018 	addiu	a2,sp,24
  417078:	02002825 	move	a1,s0
  41707c:	0c1007bd 	jal	401ef4 <ftruncate+0xd8>
  417080:	02e02025 	move	a0,s7
  417084:	0440ffd6 	bltz	v0,416fe0 <binary_user_idle_start+0x2c98>
  417088:	0040a025 	move	s4,v0
  41708c:	24060600 	li	a2,1536
  417090:	02202825 	move	a1,s1
  417094:	0c10043a 	jal	4010e8 <syscall_mem_unmap+0x24>
  417098:	00002025 	move	a0,zero
  41709c:	24051000 	li	a1,4096
  4170a0:	0c10033b 	jal	400cec <fork+0x6c>
  4170a4:	02202025 	move	a0,s1
  4170a8:	8e620010 	lw	v0,16(s3)
  4170ac:	00523023 	subu	a2,v0,s2
  4170b0:	2cc31000 	sltiu	v1,a2,4096
  4170b4:	1060ffda 	beqz	v1,417020 <binary_user_idle_start+0x2cd8>
  4170b8:	00529023 	subu	s2,v0,s2
  4170bc:	18c0ffdd 	blez	a2,417034 <binary_user_idle_start+0x2cec>
  4170c0:	02202825 	move	a1,s1
  4170c4:	0c1002d3 	jal	400b4c <pgfault+0x8>
  4170c8:	8fa40018 	lw	a0,24(sp)
  4170cc:	1000ffda 	b	417038 <binary_user_idle_start+0x2cf0>
  4170d0:	24020600 	li	v0,1536
  4170d4:	26b5ffff 	addiu	s5,s5,-1
  4170d8:	32b5ffff 	andi	s5,s5,0xffff
  4170dc:	3402ffff 	li	v0,0xffff
  4170e0:	12a2000a 	beq	s5,v0,41710c <binary_user_idle_start+0x2dc4>
  4170e4:	027e9821 	addu	s3,s3,s8
  4170e8:	8e630000 	lw	v1,0(s3)
  4170ec:	24020001 	li	v0,1
  4170f0:	5462fff9 	bnel	v1,v0,4170d8 <binary_user_idle_start+0x2d90>
  4170f4:	26b5ffff 	addiu	s5,s5,-1
  4170f8:	8e620014 	lw	v0,20(s3)
  4170fc:	1040fff5 	beqz	v0,4170d4 <binary_user_idle_start+0x2d8c>
  417100:	00009025 	move	s2,zero
  417104:	1000ffdb 	b	417074 <binary_user_idle_start+0x2d2c>
  417108:	26501000 	addiu	s0,s2,4096
  41710c:	1000ffb7 	b	416fec <binary_user_idle_start+0x2ca4>
  417110:	0000a025 	move	s4,zero
  417114:	1000ffb5 	b	416fec <binary_user_idle_start+0x2ca4>
  417118:	0000a025 	move	s4,zero
  41711c:	27bdffb0 	addiu	sp,sp,-80
  417120:	afbf004c 	sw	ra,76(sp)
  417124:	afbe0048 	sw	s8,72(sp)
  417128:	afb70044 	sw	s7,68(sp)
  41712c:	afb60040 	sw	s6,64(sp)
  417130:	afb5003c 	sw	s5,60(sp)
  417134:	afb40038 	sw	s4,56(sp)
  417138:	afb30034 	sw	s3,52(sp)
  41713c:	afb20030 	sw	s2,48(sp)
  417140:	afb1002c 	sw	s1,44(sp)
  417144:	afb00028 	sw	s0,40(sp)
  417148:	00a08825 	move	s1,a1
  41714c:	0c100792 	jal	401e48 <ftruncate+0x2c>
  417150:	00002825 	move	a1,zero
  417154:	0440002c 	bltz	v0,417208 <binary_user_idle_start+0x2ec0>
  417158:	00408025 	move	s0,v0
  41715c:	afa00014 	sw	zero,20(sp)
  417160:	afa00010 	sw	zero,16(sp)
  417164:	00003825 	move	a3,zero
  417168:	00003025 	move	a2,zero
  41716c:	00002825 	move	a1,zero
  417170:	0c100030 	jal	4000c0 <msyscall>
  417174:	2404253f 	li	a0,9535
  417178:	00409025 	move	s2,v0
  41717c:	afa20020 	sw	v0,32(sp)
  417180:	0040a025 	move	s4,v0
  417184:	27a60018 	addiu	a2,sp,24
  417188:	02202825 	move	a1,s1
  41718c:	0c100a46 	jal	402918 <init_stack+0x198>
  417190:	00402025 	move	a0,v0
  417194:	0c1005b8 	jal	4016e0 <dup+0xec>
  417198:	02002025 	move	a0,s0
  41719c:	8c510090 	lw	s1,144(v0)
  4171a0:	02402825 	move	a1,s2
  4171a4:	0c100aec 	jal	402bb0 <fuck_elf+0x198>
  4171a8:	02002025 	move	a0,s0
  4171ac:	8fa60018 	lw	a2,24(sp)
  4171b0:	02202825 	move	a1,s1
  4171b4:	3c040040 	lui	a0,0x40
  4171b8:	0c100068 	jal	4001a0 <user_PrintChar>
  4171bc:	24846544 	addiu	a0,a0,25924
  4171c0:	324303ff 	andi	v1,s2,0x3ff
  4171c4:	000310c0 	sll	v0,v1,0x3
  4171c8:	00431023 	subu	v0,v0,v1
  4171cc:	00021140 	sll	v0,v0,0x5
  4171d0:	3c030040 	lui	v1,0x40
  4171d4:	8c636000 	lw	v1,24576(v1)
  4171d8:	00621021 	addu	v0,v1,v0
  4171dc:	3c030040 	lui	v1,0x40
  4171e0:	ac430098 	sw	v1,152(v0)
  4171e4:	8fa30018 	lw	v1,24(sp)
  4171e8:	ac430074 	sw	v1,116(v0)
  4171ec:	24121000 	li	s2,4096
  4171f0:	0000b025 	move	s6,zero
  4171f4:	3c1e0040 	lui	s8,0x40
  4171f8:	3c130040 	lui	s3,0x40
  4171fc:	24150604 	li	s5,1540
  417200:	10000029 	b	4172a8 <binary_user_idle_start+0x2f60>
  417204:	241707f4 	li	s7,2036
  417208:	3c060040 	lui	a2,0x40
  41720c:	24c66514 	addiu	a2,a2,25876
  417210:	240500bb 	li	a1,187
  417214:	3c040040 	lui	a0,0x40
  417218:	0c100077 	jal	4001dc <user_PrintChar+0x3c>
  41721c:	2484653c 	addiu	a0,a0,25916
  417220:	1212001e 	beq	s0,s2,41729c <binary_user_idle_start+0x2f54>
  417224:	26311000 	addiu	s1,s1,4096
  417228:	8e626008 	lw	v0,24584(s3)
  41722c:	00501021 	addu	v0,v0,s0
  417230:	8c430000 	lw	v1,0(v0)
  417234:	30630200 	andi	v1,v1,0x200
  417238:	5060fff9 	beqzl	v1,417220 <binary_user_idle_start+0x2ed8>
  41723c:	26100004 	addiu	s0,s0,4
  417240:	8c420000 	lw	v0,0(v0)
  417244:	30420004 	andi	v0,v0,0x4
  417248:	5040fff5 	beqzl	v0,417220 <binary_user_idle_start+0x2ed8>
  41724c:	26100004 	addiu	s0,s0,4
  417250:	afb50010 	sw	s5,16(sp)
  417254:	02203825 	move	a3,s1
  417258:	02803025 	move	a2,s4
  41725c:	02202825 	move	a1,s1
  417260:	0c100446 	jal	401118 <syscall_set_env_status+0x24>
  417264:	00002025 	move	a0,zero
  417268:	0443ffed 	bgezl	v0,417220 <binary_user_idle_start+0x2ed8>
  41726c:	26100004 	addiu	s0,s0,4
  417270:	02803025 	move	a2,s4
  417274:	02202825 	move	a1,s1
  417278:	3c040040 	lui	a0,0x40
  41727c:	0c100068 	jal	4001a0 <user_PrintChar>
  417280:	24846574 	addiu	a0,a0,25972
  417284:	3c060040 	lui	a2,0x40
  417288:	24c66594 	addiu	a2,a2,26004
  41728c:	240500ff 	li	a1,255
  417290:	3c040040 	lui	a0,0x40
  417294:	0c100077 	jal	4001dc <user_PrintChar+0x3c>
  417298:	2484653c 	addiu	a0,a0,25916
  41729c:	26d60004 	addiu	s6,s6,4
  4172a0:	12d7000a 	beq	s6,s7,4172cc <binary_user_idle_start+0x2f84>
  4172a4:	26521000 	addiu	s2,s2,4096
  4172a8:	8fc2600c 	lw	v0,24588(s8)
  4172ac:	00561021 	addu	v0,v0,s6
  4172b0:	8c420000 	lw	v0,0(v0)
  4172b4:	30420200 	andi	v0,v0,0x200
  4172b8:	5040fff9 	beqzl	v0,4172a0 <binary_user_idle_start+0x2f58>
  4172bc:	26d60004 	addiu	s6,s6,4
  4172c0:	00168280 	sll	s0,s6,0xa
  4172c4:	1000ffd8 	b	417228 <binary_user_idle_start+0x2ee0>
  4172c8:	00168d00 	sll	s1,s6,0x14
  4172cc:	24050001 	li	a1,1
  4172d0:	0c10045f 	jal	40117c <syscall_panic+0x28>
  4172d4:	02802025 	move	a0,s4
  4172d8:	0440000e 	bltz	v0,417314 <binary_user_idle_start+0x2fcc>
  4172dc:	00408025 	move	s0,v0
  4172e0:	8fa20020 	lw	v0,32(sp)
  4172e4:	8fbf004c 	lw	ra,76(sp)
  4172e8:	8fbe0048 	lw	s8,72(sp)
  4172ec:	8fb70044 	lw	s7,68(sp)
  4172f0:	8fb60040 	lw	s6,64(sp)
  4172f4:	8fb5003c 	lw	s5,60(sp)
  4172f8:	8fb40038 	lw	s4,56(sp)
  4172fc:	8fb30034 	lw	s3,52(sp)
  417300:	8fb20030 	lw	s2,48(sp)
  417304:	8fb1002c 	lw	s1,44(sp)
  417308:	8fb00028 	lw	s0,40(sp)
  41730c:	03e00008 	jr	ra
  417310:	27bd0050 	addiu	sp,sp,80
  417314:	3c040040 	lui	a0,0x40
  417318:	0c100068 	jal	4001a0 <user_PrintChar>
  41731c:	248465b8 	addiu	a0,a0,26040
  417320:	1000ffef 	b	4172e0 <binary_user_idle_start+0x2f98>
  417324:	afb00020 	sw	s0,32(sp)
  417328:	27bdffe8 	addiu	sp,sp,-24
  41732c:	afbf0014 	sw	ra,20(sp)
  417330:	afa5001c 	sw	a1,28(sp)
  417334:	afa60020 	sw	a2,32(sp)
  417338:	afa70024 	sw	a3,36(sp)
  41733c:	0c100b60 	jal	402d80 <spawn+0x198>
  417340:	27a5001c 	addiu	a1,sp,28
  417344:	8fbf0014 	lw	ra,20(sp)
  417348:	03e00008 	jr	ra
  41734c:	27bd0018 	addiu	sp,sp,24
  417350:	03e00008 	jr	ra
  417354:	00001025 	move	v0,zero
  417358:	3c020040 	lui	v0,0x40
  41735c:	8c4365d8 	lw	v1,26072(v0)
  417360:	a8a30003 	swl	v1,3(a1)
  417364:	b8a30000 	swr	v1,0(a1)
  417368:	244265d8 	addiu	v0,v0,26072
  41736c:	90430004 	lbu	v1,4(v0)
  417370:	a0a30004 	sb	v1,4(a1)
  417374:	90430005 	lbu	v1,5(v0)
  417378:	a0a30005 	sb	v1,5(a1)
  41737c:	90420006 	lbu	v0,6(v0)
  417380:	a0a20006 	sb	v0,6(a1)
  417384:	03e00008 	jr	ra
  417388:	00001025 	move	v0,zero
  41738c:	27bdff50 	addiu	sp,sp,-176
  417390:	afbf00ac 	sw	ra,172(sp)
  417394:	afb500a8 	sw	s5,168(sp)
  417398:	afb400a4 	sw	s4,164(sp)
  41739c:	afb300a0 	sw	s3,160(sp)
  4173a0:	afb2009c 	sw	s2,156(sp)
  4173a4:	afb10098 	sw	s1,152(sp)
  4173a8:	10c00023 	beqz	a2,417438 <binary_user_idle_start+0x30f0>
  4173ac:	afb00094 	sw	s0,148(sp)
  4173b0:	00c09025 	move	s2,a2
  4173b4:	00a09825 	move	s3,a1
  4173b8:	00002025 	move	a0,zero
  4173bc:	00008825 	move	s1,zero
  4173c0:	2415007f 	li	s5,127
  4173c4:	3c140040 	lui	s4,0x40
  4173c8:	269465e0 	addiu	s4,s4,26080
  4173cc:	02448023 	subu	s0,s2,a0
  4173d0:	2e020080 	sltiu	v0,s0,128
  4173d4:	02a2800a 	movz	s0,s5,v0
  4173d8:	02003025 	move	a2,s0
  4173dc:	27a50010 	addiu	a1,sp,16
  4173e0:	0c1002d3 	jal	400b4c <pgfault+0x8>
  4173e4:	02642021 	addu	a0,s3,a0
  4173e8:	27a20010 	addiu	v0,sp,16
  4173ec:	00501021 	addu	v0,v0,s0
  4173f0:	a0400000 	sb	zero,0(v0)
  4173f4:	27a50010 	addiu	a1,sp,16
  4173f8:	0c100068 	jal	4001a0 <user_PrintChar>
  4173fc:	02802025 	move	a0,s4
  417400:	02308821 	addu	s1,s1,s0
  417404:	0232102b 	sltu	v0,s1,s2
  417408:	1440fff0 	bnez	v0,4173cc <binary_user_idle_start+0x3084>
  41740c:	02202025 	move	a0,s1
  417410:	02201025 	move	v0,s1
  417414:	8fbf00ac 	lw	ra,172(sp)
  417418:	8fb500a8 	lw	s5,168(sp)
  41741c:	8fb400a4 	lw	s4,164(sp)
  417420:	8fb300a0 	lw	s3,160(sp)
  417424:	8fb2009c 	lw	s2,156(sp)
  417428:	8fb10098 	lw	s1,152(sp)
  41742c:	8fb00094 	lw	s0,148(sp)
  417430:	03e00008 	jr	ra
  417434:	27bd00b0 	addiu	sp,sp,176
  417438:	1000fff5 	b	417410 <binary_user_idle_start+0x30c8>
  41743c:	00008825 	move	s1,zero
  417440:	27bdffe0 	addiu	sp,sp,-32
  417444:	afbf001c 	sw	ra,28(sp)
  417448:	afb10018 	sw	s1,24(sp)
  41744c:	afb00014 	sw	s0,20(sp)
  417450:	00a08825 	move	s1,a1
  417454:	14c00005 	bnez	a2,41746c <binary_user_idle_start+0x3124>
  417458:	00008025 	move	s0,zero
  41745c:	10000014 	b	4174b0 <binary_user_idle_start+0x3168>
  417460:	02001025 	move	v0,s0
  417464:	0c100416 	jal	401058 <syscall_set_pgfault_handler+0x28>
  417468:	00000000 	nop
  41746c:	0c10049b 	jal	40126c <syscall_read_dev+0x28>
  417470:	00000000 	nop
  417474:	1040fffb 	beqz	v0,417464 <binary_user_idle_start+0x311c>
  417478:	00408025 	move	s0,v0
  41747c:	2402000d 	li	v0,13
  417480:	12020010 	beq	s0,v0,4174c4 <binary_user_idle_start+0x317c>
  417484:	02002825 	move	a1,s0
  417488:	3c040040 	lui	a0,0x40
  41748c:	0c100068 	jal	4001a0 <user_PrintChar>
  417490:	248465e4 	addiu	a0,a0,26084
  417494:	06000005 	bltz	s0,4174ac <binary_user_idle_start+0x3164>
  417498:	24020004 	li	v0,4
  41749c:	52020003 	beql	s0,v0,4174ac <binary_user_idle_start+0x3164>
  4174a0:	00008025 	move	s0,zero
  4174a4:	a2300000 	sb	s0,0(s1)
  4174a8:	24100001 	li	s0,1
  4174ac:	02001025 	move	v0,s0
  4174b0:	8fbf001c 	lw	ra,28(sp)
  4174b4:	8fb10018 	lw	s1,24(sp)
  4174b8:	8fb00014 	lw	s0,20(sp)
  4174bc:	03e00008 	jr	ra
  4174c0:	27bd0020 	addiu	sp,sp,32
  4174c4:	3c040040 	lui	a0,0x40
  4174c8:	0c100068 	jal	4001a0 <user_PrintChar>
  4174cc:	24846538 	addiu	a0,a0,25912
  4174d0:	1000fff5 	b	4174a8 <binary_user_idle_start+0x3160>
  4174d4:	a2300000 	sb	s0,0(s1)
  4174d8:	27bdffe0 	addiu	sp,sp,-32
  4174dc:	afbf001c 	sw	ra,28(sp)
  4174e0:	0c100598 	jal	401660 <dup+0x6c>
  4174e4:	27a50010 	addiu	a1,sp,16
  4174e8:	04400006 	bltz	v0,417504 <binary_user_idle_start+0x31bc>
  4174ec:	3c030040 	lui	v1,0x40
  4174f0:	8fa20010 	lw	v0,16(sp)
  4174f4:	8c420000 	lw	v0,0(v0)
  4174f8:	8c63604c 	lw	v1,24652(v1)
  4174fc:	00431026 	xor	v0,v0,v1
  417500:	2c420001 	sltiu	v0,v0,1
  417504:	8fbf001c 	lw	ra,28(sp)
  417508:	03e00008 	jr	ra
  41750c:	27bd0020 	addiu	sp,sp,32
  417510:	27bdffe0 	addiu	sp,sp,-32
  417514:	afbf001c 	sw	ra,28(sp)
  417518:	0c100566 	jal	401598 <close+0x44>
  41751c:	27a40010 	addiu	a0,sp,16
  417520:	0440000e 	bltz	v0,41755c <binary_user_idle_start+0x3214>
  417524:	24060604 	li	a2,1540
  417528:	8fa50010 	lw	a1,16(sp)
  41752c:	0c10043a 	jal	4010e8 <syscall_mem_unmap+0x24>
  417530:	00002025 	move	a0,zero
  417534:	0440000a 	bltz	v0,417560 <binary_user_idle_start+0x3218>
  417538:	8fbf001c 	lw	ra,28(sp)
  41753c:	3c020040 	lui	v0,0x40
  417540:	8c43604c 	lw	v1,24652(v0)
  417544:	8fa20010 	lw	v0,16(sp)
  417548:	ac430000 	sw	v1,0(v0)
  41754c:	8fa40010 	lw	a0,16(sp)
  417550:	24020002 	li	v0,2
  417554:	0c1005b4 	jal	4016d0 <dup+0xdc>
  417558:	ac820008 	sw	v0,8(a0)
  41755c:	8fbf001c 	lw	ra,28(sp)
  417560:	03e00008 	jr	ra
  417564:	27bd0020 	addiu	sp,sp,32
  417568:	24020001 	li	v0,1
  41756c:	50c2000c 	beql	a2,v0,4175a0 <binary_user_idle_start+0x3258>
  417570:	90a20000 	lbu	v0,0(a1)
  417574:	18c00008 	blez	a2,417598 <binary_user_idle_start+0x3250>
  417578:	00001025 	move	v0,zero
  41757c:	90a30000 	lbu	v1,0(a1)
  417580:	a0830000 	sb	v1,0(a0)
  417584:	24420001 	addiu	v0,v0,1
  417588:	24a50001 	addiu	a1,a1,1
  41758c:	0046182a 	slt	v1,v0,a2
  417590:	1460fffa 	bnez	v1,41757c <binary_user_idle_start+0x3234>
  417594:	24840001 	addiu	a0,a0,1
  417598:	03e00008 	jr	ra
  41759c:	00000000 	nop
  4175a0:	1440fff6 	bnez	v0,41757c <binary_user_idle_start+0x3234>
  4175a4:	00001025 	move	v0,zero
  4175a8:	03e00008 	jr	ra
  4175ac:	00000000 	nop
  4175b0:	27bdfde0 	addiu	sp,sp,-544
  4175b4:	afbf021c 	sw	ra,540(sp)
  4175b8:	afb00218 	sw	s0,536(sp)
  4175bc:	00808025 	move	s0,a0
  4175c0:	afa60228 	sw	a2,552(sp)
  4175c4:	afa7022c 	sw	a3,556(sp)
  4175c8:	27a20010 	addiu	v0,sp,16
  4175cc:	27a30210 	addiu	v1,sp,528
  4175d0:	a0400000 	sb	zero,0(v0)
  4175d4:	24420001 	addiu	v0,v0,1
  4175d8:	5443fffe 	bnel	v0,v1,4175d4 <binary_user_idle_start+0x328c>
  4175dc:	a0400000 	sb	zero,0(v0)
  4175e0:	27a70228 	addiu	a3,sp,552
  4175e4:	afa70210 	sw	a3,528(sp)
  4175e8:	00a03025 	move	a2,a1
  4175ec:	27a50010 	addiu	a1,sp,16
  4175f0:	3c040040 	lui	a0,0x40
  4175f4:	0c10015a 	jal	400568 <user_lp_Print+0x98>
  4175f8:	248431cc 	addiu	a0,a0,12748
  4175fc:	0c1004ff 	jal	4013fc <fd_alloc+0x4>
  417600:	27a40010 	addiu	a0,sp,16
  417604:	00403025 	move	a2,v0
  417608:	27a50010 	addiu	a1,sp,16
  41760c:	0c10069f 	jal	401a7c <stat+0x44>
  417610:	02002025 	move	a0,s0
  417614:	8fbf021c 	lw	ra,540(sp)
  417618:	8fb00218 	lw	s0,536(sp)
  41761c:	03e00008 	jr	ra
  417620:	27bd0220 	addiu	sp,sp,544

00417624 <binary_user_idle_size>:
  417624:	000032dc 	0x32dc

00417628 <opentab>:
	...
  417630:	00000001 	movf	zero,zero,$fcc0
	...

0041b628 <mCONTEXT>:
  41b628:	00000000 	nop

0041b62c <delay>:
  41b62c:	00000000 	nop

0041b630 <tlbra>:
  41b630:	00000000 	nop

0041b634 <temp>:
  41b634:	00000000 	nop

0041b638 <KERNEL_SP>:
	...
  41b640:	004009e0 	0x4009e0
  41b644:	004009e8 	0x4009e8
  41b648:	004009e8 	0x4009e8
  41b64c:	004009e8 	0x4009e8
  41b650:	004009e8 	0x4009e8
  41b654:	004009e8 	0x4009e8
  41b658:	004009e8 	0x4009e8
  41b65c:	004009e8 	0x4009e8
  41b660:	004009e8 	0x4009e8
  41b664:	004009e8 	0x4009e8
  41b668:	004009e8 	0x4009e8
  41b66c:	004009e8 	0x4009e8
  41b670:	004009e8 	0x4009e8
  41b674:	004009e8 	0x4009e8
  41b678:	004009e8 	0x4009e8
  41b67c:	004009e8 	0x4009e8
  41b680:	004009e8 	0x4009e8
  41b684:	004009e8 	0x4009e8
  41b688:	004009e8 	0x4009e8
  41b68c:	004009e8 	0x4009e8
  41b690:	004009e8 	0x4009e8
  41b694:	004009e8 	0x4009e8
  41b698:	004009e8 	0x4009e8
  41b69c:	004009e8 	0x4009e8
  41b6a0:	004009e8 	0x4009e8
  41b6a4:	004009e8 	0x4009e8
  41b6a8:	004009e8 	0x4009e8
  41b6ac:	004009e8 	0x4009e8
  41b6b0:	004009e8 	0x4009e8
  41b6b4:	004009e8 	0x4009e8
  41b6b8:	004009e8 	0x4009e8
  41b6bc:	004009e8 	0x4009e8
  41b6c0:	004009e8 	0x4009e8
  41b6c4:	004009e8 	0x4009e8
  41b6c8:	004009e8 	0x4009e8
  41b6cc:	004009e8 	0x4009e8
  41b6d0:	004009e8 	0x4009e8
  41b6d4:	004009e8 	0x4009e8
  41b6d8:	004009e8 	0x4009e8
  41b6dc:	004009e8 	0x4009e8
  41b6e0:	004009e8 	0x4009e8
  41b6e4:	004009e8 	0x4009e8
  41b6e8:	004009e8 	0x4009e8
  41b6ec:	004009e8 	0x4009e8
  41b6f0:	004009e8 	0x4009e8
  41b6f4:	004009e8 	0x4009e8
  41b6f8:	004009e8 	0x4009e8
  41b6fc:	004009e8 	0x4009e8
  41b700:	004009e8 	0x4009e8
  41b704:	004009e8 	0x4009e8
  41b708:	004009e8 	0x4009e8
  41b70c:	004009e8 	0x4009e8
  41b710:	004009e8 	0x4009e8
  41b714:	004009e8 	0x4009e8
  41b718:	004009e8 	0x4009e8
  41b71c:	004009e8 	0x4009e8
  41b720:	004009e8 	0x4009e8
  41b724:	004009e8 	0x4009e8
  41b728:	004009e8 	0x4009e8
  41b72c:	004009e8 	0x4009e8
  41b730:	004009e8 	0x4009e8
  41b734:	004009e8 	0x4009e8
  41b738:	004009e8 	0x4009e8
  41b73c:	004009e8 	0x4009e8
  41b740:	004009e8 	0x4009e8
  41b744:	004009e8 	0x4009e8
  41b748:	004009e8 	0x4009e8
  41b74c:	004009e8 	0x4009e8
  41b750:	004006f8 	0x4006f8
  41b754:	004009e8 	0x4009e8
  41b758:	004009e8 	0x4009e8
  41b75c:	004009e8 	0x4009e8
  41b760:	004009e8 	0x4009e8
  41b764:	004009e8 	0x4009e8
  41b768:	004009e8 	0x4009e8
  41b76c:	004009e8 	0x4009e8
  41b770:	004009e8 	0x4009e8
  41b774:	004009e8 	0x4009e8
  41b778:	004009e8 	0x4009e8
  41b77c:	0040077c 	0x40077c
  41b780:	004009e8 	0x4009e8
  41b784:	004009e8 	0x4009e8
  41b788:	004009e8 	0x4009e8
  41b78c:	004009e8 	0x4009e8
  41b790:	004009e8 	0x4009e8
  41b794:	004007ec 	0x4007ec
  41b798:	004009e8 	0x4009e8
  41b79c:	004009e8 	0x4009e8
  41b7a0:	004008cc 	syscall	0x10023
  41b7a4:	004009e8 	0x4009e8
  41b7a8:	004009e8 	0x4009e8
  41b7ac:	004009e8 	0x4009e8
  41b7b0:	004009e8 	0x4009e8
  41b7b4:	004009e8 	0x4009e8
  41b7b8:	004009e8 	0x4009e8
  41b7bc:	004009e8 	0x4009e8
  41b7c0:	004009e8 	0x4009e8
  41b7c4:	004009e8 	0x4009e8
  41b7c8:	00400584 	0x400584
  41b7cc:	00400940 	0x400940
  41b7d0:	004006f8 	0x4006f8
  41b7d4:	004009e8 	0x4009e8
  41b7d8:	004009e8 	0x4009e8
  41b7dc:	004009e8 	0x4009e8
  41b7e0:	004009e8 	0x4009e8
  41b7e4:	004009e8 	0x4009e8
  41b7e8:	004009e8 	0x4009e8
  41b7ec:	004009e8 	0x4009e8
  41b7f0:	004009e8 	0x4009e8
  41b7f4:	004009e8 	0x4009e8
  41b7f8:	004009e8 	0x4009e8
  41b7fc:	0040077c 	0x40077c
  41b800:	004009e8 	0x4009e8
  41b804:	004009e8 	0x4009e8
  41b808:	004009e8 	0x4009e8
  41b80c:	00400990 	0x400990
  41b810:	004009e8 	0x4009e8
  41b814:	004007ec 	0x4007ec
  41b818:	004009e8 	0x4009e8
  41b81c:	004009e8 	0x4009e8
  41b820:	0040085c 	0x40085c

0041b824 <user_theFatalMsg>:
  41b824:	61746166 	0x61746166
  41b828:	7265206c 	0x7265206c
  41b82c:	20726f72 	addi	s2,v1,28530
  41b830:	75206e69 	jalx	481b9a4 <_end+0x43f5b90>
  41b834:	5f726573 	0x5f726573
  41b838:	505f706c 	beql	v0,ra,4379ec <_end+0x11bd8>
  41b83c:	746e6972 	jalx	1b9a5c8 <_end+0x17747b4>
  41b840:	00000021 	move	zero,zero
  41b844:	00000000 	nop
  41b848:	004047d0 	0x4047d0
  41b84c:	004047dc 	0x4047dc
  41b850:	004047dc 	0x4047dc
  41b854:	004047dc 	0x4047dc
  41b858:	004047dc 	0x4047dc
  41b85c:	004047dc 	0x4047dc
  41b860:	004047dc 	0x4047dc
  41b864:	004047dc 	0x4047dc
  41b868:	004047dc 	0x4047dc
  41b86c:	004047dc 	0x4047dc
  41b870:	004047dc 	0x4047dc
  41b874:	004047dc 	0x4047dc
  41b878:	004047dc 	0x4047dc
  41b87c:	004047dc 	0x4047dc
  41b880:	004047dc 	0x4047dc
  41b884:	004047dc 	0x4047dc
  41b888:	004047dc 	0x4047dc
  41b88c:	004047dc 	0x4047dc
  41b890:	004047dc 	0x4047dc
  41b894:	004047dc 	0x4047dc
  41b898:	004047dc 	0x4047dc
  41b89c:	004047dc 	0x4047dc
  41b8a0:	004047dc 	0x4047dc
  41b8a4:	004047dc 	0x4047dc
  41b8a8:	004047dc 	0x4047dc
  41b8ac:	004047dc 	0x4047dc
  41b8b0:	004047dc 	0x4047dc
  41b8b4:	004047dc 	0x4047dc
  41b8b8:	004047dc 	0x4047dc
  41b8bc:	004047dc 	0x4047dc
  41b8c0:	004047dc 	0x4047dc
  41b8c4:	004047dc 	0x4047dc
  41b8c8:	004047dc 	0x4047dc
  41b8cc:	004047dc 	0x4047dc
  41b8d0:	004047dc 	0x4047dc
  41b8d4:	004047dc 	0x4047dc
  41b8d8:	004047dc 	0x4047dc
  41b8dc:	004047dc 	0x4047dc
  41b8e0:	004047dc 	0x4047dc
  41b8e4:	004047dc 	0x4047dc
  41b8e8:	004047dc 	0x4047dc
  41b8ec:	004047dc 	0x4047dc
  41b8f0:	004047dc 	0x4047dc
  41b8f4:	004047dc 	0x4047dc
  41b8f8:	004047dc 	0x4047dc
  41b8fc:	004047dc 	0x4047dc
  41b900:	004047dc 	0x4047dc
  41b904:	004047dc 	0x4047dc
  41b908:	004047dc 	0x4047dc
  41b90c:	004047dc 	0x4047dc
  41b910:	004047dc 	0x4047dc
  41b914:	004047dc 	0x4047dc
  41b918:	004047dc 	0x4047dc
  41b91c:	004047dc 	0x4047dc
  41b920:	004047dc 	0x4047dc
  41b924:	004047dc 	0x4047dc
  41b928:	004047dc 	0x4047dc
  41b92c:	004047dc 	0x4047dc
  41b930:	004047dc 	0x4047dc
  41b934:	004047dc 	0x4047dc
  41b938:	004047dc 	0x4047dc
  41b93c:	004047dc 	0x4047dc
  41b940:	004047dc 	0x4047dc
  41b944:	004047dc 	0x4047dc
  41b948:	004047dc 	0x4047dc
  41b94c:	004047dc 	0x4047dc
  41b950:	004047dc 	0x4047dc
  41b954:	004047dc 	0x4047dc
  41b958:	00404488 	0x404488
  41b95c:	004047dc 	0x4047dc
  41b960:	004047dc 	0x4047dc
  41b964:	004047dc 	0x4047dc
  41b968:	004047dc 	0x4047dc
  41b96c:	004047dc 	0x4047dc
  41b970:	004047dc 	0x4047dc
  41b974:	004047dc 	0x4047dc
  41b978:	004047dc 	0x4047dc
  41b97c:	004047dc 	0x4047dc
  41b980:	004047dc 	0x4047dc
  41b984:	00404514 	0x404514
  41b988:	004047dc 	0x4047dc
  41b98c:	004047dc 	0x4047dc
  41b990:	004047dc 	0x4047dc
  41b994:	004047dc 	0x4047dc
  41b998:	004047dc 	0x4047dc
  41b99c:	00404598 	0x404598
  41b9a0:	004047dc 	0x4047dc
  41b9a4:	004047dc 	0x4047dc
  41b9a8:	004046a0 	0x4046a0
  41b9ac:	004047dc 	0x4047dc
  41b9b0:	004047dc 	0x4047dc
  41b9b4:	004047dc 	0x4047dc
  41b9b8:	004047dc 	0x4047dc
  41b9bc:	004047dc 	0x4047dc
  41b9c0:	004047dc 	0x4047dc
  41b9c4:	004047dc 	0x4047dc
  41b9c8:	004047dc 	0x4047dc
  41b9cc:	004047dc 	0x4047dc
  41b9d0:	0040432c 	0x40432c
  41b9d4:	00404728 	0x404728
  41b9d8:	00404488 	0x404488
  41b9dc:	004047dc 	0x4047dc
  41b9e0:	004047dc 	0x4047dc
  41b9e4:	004047dc 	0x4047dc
  41b9e8:	004047dc 	0x4047dc
  41b9ec:	004047dc 	0x4047dc
  41b9f0:	004047dc 	0x4047dc
  41b9f4:	004047dc 	0x4047dc
  41b9f8:	004047dc 	0x4047dc
  41b9fc:	004047dc 	0x4047dc
  41ba00:	004047dc 	0x4047dc
  41ba04:	00404514 	0x404514
  41ba08:	004047dc 	0x4047dc
  41ba0c:	004047dc 	0x4047dc
  41ba10:	004047dc 	0x4047dc
  41ba14:	0040477c 	0x40477c
  41ba18:	004047dc 	0x4047dc
  41ba1c:	00404598 	0x404598
  41ba20:	004047dc 	0x4047dc
  41ba24:	004047dc 	0x4047dc
  41ba28:	0040461c 	0x40461c
  41ba2c:	004047d4 	0x4047d4
  41ba30:	004047e0 	0x4047e0
  41ba34:	004047e0 	0x4047e0
  41ba38:	004047e0 	0x4047e0
  41ba3c:	004047e0 	0x4047e0
  41ba40:	004047e0 	0x4047e0
  41ba44:	004047e0 	0x4047e0
  41ba48:	004047e0 	0x4047e0
  41ba4c:	004047e0 	0x4047e0
  41ba50:	004047e0 	0x4047e0
  41ba54:	004047e0 	0x4047e0
  41ba58:	004047e0 	0x4047e0
  41ba5c:	004047e0 	0x4047e0
  41ba60:	004047e0 	0x4047e0
  41ba64:	004047e0 	0x4047e0
  41ba68:	004047e0 	0x4047e0
  41ba6c:	004047e0 	0x4047e0
  41ba70:	004047e0 	0x4047e0
  41ba74:	004047e0 	0x4047e0
  41ba78:	004047e0 	0x4047e0
  41ba7c:	004047e0 	0x4047e0
  41ba80:	004047e0 	0x4047e0
  41ba84:	004047e0 	0x4047e0
  41ba88:	004047e0 	0x4047e0
  41ba8c:	004047e0 	0x4047e0
  41ba90:	004047e0 	0x4047e0
  41ba94:	004047e0 	0x4047e0
  41ba98:	004047e0 	0x4047e0
  41ba9c:	004047e0 	0x4047e0
  41baa0:	004047e0 	0x4047e0
  41baa4:	004047e0 	0x4047e0
  41baa8:	004047e0 	0x4047e0
  41baac:	004047e0 	0x4047e0
  41bab0:	004047e0 	0x4047e0
  41bab4:	004047e0 	0x4047e0
  41bab8:	004047e0 	0x4047e0
  41babc:	004047e0 	0x4047e0
  41bac0:	004047e0 	0x4047e0
  41bac4:	004047e0 	0x4047e0
  41bac8:	004047e0 	0x4047e0
  41bacc:	004047e0 	0x4047e0
  41bad0:	004047e0 	0x4047e0
  41bad4:	004047e0 	0x4047e0
  41bad8:	004047e0 	0x4047e0
  41badc:	004047e0 	0x4047e0
  41bae0:	004047e0 	0x4047e0
  41bae4:	004047e0 	0x4047e0
  41bae8:	004047e0 	0x4047e0
  41baec:	004047e0 	0x4047e0
  41baf0:	004047e0 	0x4047e0
  41baf4:	004047e0 	0x4047e0
  41baf8:	004047e0 	0x4047e0
  41bafc:	004047e0 	0x4047e0
  41bb00:	004047e0 	0x4047e0
  41bb04:	004047e0 	0x4047e0
  41bb08:	004047e0 	0x4047e0
  41bb0c:	004047e0 	0x4047e0
  41bb10:	004047e0 	0x4047e0
  41bb14:	004047e0 	0x4047e0
  41bb18:	004047e0 	0x4047e0
  41bb1c:	004047e0 	0x4047e0
  41bb20:	004047e0 	0x4047e0
  41bb24:	004047e0 	0x4047e0
  41bb28:	004047e0 	0x4047e0
  41bb2c:	004047e0 	0x4047e0
  41bb30:	004047e0 	0x4047e0
  41bb34:	004047e0 	0x4047e0
  41bb38:	004047e0 	0x4047e0
  41bb3c:	004044e0 	0x4044e0
  41bb40:	004047e0 	0x4047e0
  41bb44:	004047e0 	0x4047e0
  41bb48:	004047e0 	0x4047e0
  41bb4c:	004047e0 	0x4047e0
  41bb50:	004047e0 	0x4047e0
  41bb54:	004047e0 	0x4047e0
  41bb58:	004047e0 	0x4047e0
  41bb5c:	004047e0 	0x4047e0
  41bb60:	004047e0 	0x4047e0
  41bb64:	004047e0 	0x4047e0
  41bb68:	00404520 	0x404520
  41bb6c:	004047e0 	0x4047e0
  41bb70:	004047e0 	0x4047e0
  41bb74:	004047e0 	0x4047e0
  41bb78:	004047e0 	0x4047e0
  41bb7c:	004047e0 	0x4047e0
  41bb80:	004045a4 	0x4045a4
  41bb84:	004047e0 	0x4047e0
  41bb88:	004047e0 	0x4047e0
  41bb8c:	004046ac 	0x4046ac
  41bb90:	004047e0 	0x4047e0
  41bb94:	004047e0 	0x4047e0
  41bb98:	004047e0 	0x4047e0
  41bb9c:	004047e0 	0x4047e0
  41bba0:	004047e0 	0x4047e0
  41bba4:	004047e0 	0x4047e0
  41bba8:	004047e0 	0x4047e0
  41bbac:	004047e0 	0x4047e0
  41bbb0:	004047e0 	0x4047e0
  41bbb4:	00404460 	0x404460
  41bbb8:	0040472c 	0x40472c
  41bbbc:	004044e0 	0x4044e0
  41bbc0:	004047e0 	0x4047e0
  41bbc4:	004047e0 	0x4047e0
  41bbc8:	004047e0 	0x4047e0
  41bbcc:	004047e0 	0x4047e0
  41bbd0:	004047e0 	0x4047e0
  41bbd4:	004047e0 	0x4047e0
  41bbd8:	004047e0 	0x4047e0
  41bbdc:	004047e0 	0x4047e0
  41bbe0:	004047e0 	0x4047e0
  41bbe4:	004047e0 	0x4047e0
  41bbe8:	00404520 	0x404520
  41bbec:	004047e0 	0x4047e0
  41bbf0:	004047e0 	0x4047e0
  41bbf4:	004047e0 	0x4047e0
  41bbf8:	00404780 	0x404780
  41bbfc:	004047e0 	0x4047e0
  41bc00:	004045a4 	0x4045a4
  41bc04:	004047e0 	0x4047e0
  41bc08:	004047e0 	0x4047e0
  41bc0c:	00404628 	0x404628

0041bc10 <theFatalMsg>:
  41bc10:	61746166 	0x61746166
  41bc14:	7265206c 	0x7265206c
  41bc18:	20726f72 	addi	s2,v1,28530
  41bc1c:	6c206e69 	0x6c206e69
  41bc20:	72505f70 	0x72505f70
  41bc24:	21746e69 	addi	s4,t3,28265
  41bc28:	00000000 	nop
  41bc2c:	00406d5c 	0x406d5c
  41bc30:	00406d78 	0x406d78
  41bc34:	0040703c 	0x40703c
  41bc38:	00406e44 	0x406e44
  41bc3c:	0040703c 	0x40703c
  41bc40:	0040703c 	0x40703c
  41bc44:	0040703c 	0x40703c
  41bc48:	00407018 	0x407018
  41bc4c:	0040703c 	0x40703c
  41bc50:	0040703c 	0x40703c
  41bc54:	0040703c 	0x40703c
  41bc58:	0040703c 	0x40703c
  41bc5c:	0040703c 	0x40703c
  41bc60:	0040703c 	0x40703c
  41bc64:	0040703c 	0x40703c
  41bc68:	0040703c 	0x40703c
  41bc6c:	0040703c 	0x40703c
  41bc70:	0040703c 	0x40703c
  41bc74:	0040703c 	0x40703c
  41bc78:	0040703c 	0x40703c
  41bc7c:	0040703c 	0x40703c
  41bc80:	0040703c 	0x40703c
  41bc84:	0040703c 	0x40703c
  41bc88:	0040703c 	0x40703c
  41bc8c:	0040703c 	0x40703c
  41bc90:	0040703c 	0x40703c
  41bc94:	0040703c 	0x40703c
  41bc98:	0040703c 	0x40703c
  41bc9c:	0040703c 	0x40703c
  41bca0:	0040703c 	0x40703c
  41bca4:	0040703c 	0x40703c
  41bca8:	0040703c 	0x40703c
  41bcac:	0040703c 	0x40703c
  41bcb0:	0040703c 	0x40703c
  41bcb4:	0040703c 	0x40703c
  41bcb8:	0040703c 	0x40703c
  41bcbc:	0040703c 	0x40703c
  41bcc0:	0040703c 	0x40703c
  41bcc4:	0040703c 	0x40703c
  41bcc8:	0040703c 	0x40703c
  41bccc:	0040703c 	0x40703c
  41bcd0:	0040703c 	0x40703c
  41bcd4:	0040703c 	0x40703c
  41bcd8:	0040703c 	0x40703c
  41bcdc:	0040703c 	0x40703c
  41bce0:	0040703c 	0x40703c
  41bce4:	0040703c 	0x40703c
  41bce8:	0040703c 	0x40703c
  41bcec:	0040703c 	0x40703c
  41bcf0:	0040703c 	0x40703c
  41bcf4:	00406f50 	0x406f50
  41bcf8:	00406f64 	0x406f64
  41bcfc:	00406f8c 	syscall	0x101be
  41bd00:	00406fb4 	teq	v0,zero,0x1be
  41bd04:	00406fe8 	0x406fe8
  41bd08:	0040add8 	0x40add8
  41bd0c:	0040acf0 	tge	v0,zero,0x2b3
  41bd10:	0040ad50 	0x40ad50
  41bd14:	0040ad68 	0x40ad68
  41bd18:	0040ad80 	0x40ad80
  41bd1c:	0040ad98 	0x40ad98
  41bd20:	0040adb0 	tge	v0,zero,0x2b6
  41bd24:	0040adc8 	0x40adc8
  41bd28:	696e6170 	0x696e6170
  41bd2c:	74612063 	jalx	184818c <_end+0x1422378>
  41bd30:	3a732520 	xori	s3,s3,0x2520
  41bd34:	203a6425 	addi	k0,at,25637
  41bd38:	00000000 	nop
  41bd3c:	69206176 	0x69206176
  41bd40:	6f6e2073 	0x6f6e2073
  41bd44:	6f632074 	0x6f632074
  41bd48:	00000077 	0x77
  41bd4c:	6b726f66 	0x6b726f66
  41bd50:	0000632e 	0x632e
  41bd54:	61666770 	0x61666770
  41bd58:	3a746c75 	xori	s4,s3,0x6c75
  41bd5c:	5f6d656d 	0x5f6d656d
  41bd60:	6f6c6c61 	0x6f6c6c61
  41bd64:	72652063 	0x72652063
  41bd68:	00726f72 	tlt	v1,s2,0x1bd
  41bd6c:	61666770 	0x61666770
  41bd70:	3a746c75 	xori	s4,s3,0x6c75
  41bd74:	5f6d656d 	0x5f6d656d
  41bd78:	2070616d 	addi	s0,v1,24941
  41bd7c:	6f727265 	0x6f727265
  41bd80:	00000072 	tlt	zero,zero,0x1
  41bd84:	61666770 	0x61666770
  41bd88:	3a746c75 	xori	s4,s3,0x6c75
  41bd8c:	5f6d656d 	0x5f6d656d
  41bd90:	616d6e75 	0x616d6e75
  41bd94:	72652070 	0x72652070
  41bd98:	00726f72 	tlt	v1,s2,0x1bd
  41bd9c:	70707564 	0x70707564
  41bda0:	3a656761 	xori	a1,s3,0x6761
  41bda4:	6f727265 	0x6f727265
  41bda8:	68772072 	0x68772072
  41bdac:	6d206e65 	0x6d206e65
  41bdb0:	69707061 	0x69707061
  41bdb4:	7420676e 	jalx	819db8 <_end+0x3f3fa4>
  41bdb8:	6f73206f 	0x6f73206f
  41bdbc:	7270206e 	0x7270206e
  41bdc0:	7365636f 	0x7365636f
  41bdc4:	00000073 	tltu	zero,zero,0x1
  41bdc8:	70707564 	0x70707564
  41bdcc:	3a656761 	xori	a1,s3,0x6761
  41bdd0:	6f727265 	0x6f727265
  41bdd4:	68772072 	0x68772072
  41bdd8:	6d206e65 	0x6d206e65
  41bddc:	69707061 	0x69707061
  41bde0:	7420676e 	jalx	819db8 <_end+0x3f3fa4>
  41bde4:	6166206f 	0x6166206f
  41bde8:	72656874 	0x72656874
  41bdec:	6f727020 	0x6f727020
  41bdf0:	73736563 	0x73736563
  41bdf4:	00000000 	nop
  41bdf8:	6b726f66 	0x6b726f66
  41bdfc:	6d656d3a 	0x6d656d3a
  41be00:	6c6c615f 	0x6c6c615f
  41be04:	6520636f 	0x6520636f
  41be08:	726f7272 	0x726f7272
  41be0c:	00000000 	nop
  41be10:	6b726f66 	0x6b726f66
  41be14:	7465733a 	jalx	195cce8 <_end+0x1536ed4>
  41be18:	6e616820 	0x6e616820
  41be1c:	72656c64 	0x72656c64
  41be20:	72726520 	0x72726520
  41be24:	0020726f 	0x20726f
  41be28:	726f6673 	0x726f6673
  41be2c:	6f6e206b 	0x6f6e206b
  41be30:	6d692074 	0x6d692074
  41be34:	6d656c70 	0x6d656c70
  41be38:	65746e65 	0x65746e65
  41be3c:	00000064 	0x64
  41be40:	6e6e6163 	0x6e6e6163
  41be44:	7320746f 	0x7320746f
  41be48:	70207465 	0x70207465
  41be4c:	75616667 	jalx	585999c <_end+0x5433b88>
  41be50:	6820746c 	0x6820746c
  41be54:	6c646e61 	0x6c646e61
  41be58:	000a7265 	0xa7265
  41be5c:	6f727265 	0x6f727265
  41be60:	6e692072 	0x6e692072
  41be64:	63706920 	0x63706920
  41be68:	6e65735f 	0x6e65735f
  41be6c:	25203a64 	addiu	zero,t1,14948
  41be70:	00000064 	0x64
  41be74:	2e637069 	sltiu	v1,s3,28777
  41be78:	00000063 	0x63
  41be7c:	3830255b 	xori	s0,at,0x255b
  41be80:	75205d78 	jalx	48175e0 <_end+0x43f17cc>
  41be84:	6f6e6b6e 	0x6f6e6b6e
  41be88:	64206e77 	0x64206e77
  41be8c:	63697665 	0x63697665
  41be90:	79742065 	st.h	$w1,744(a0)
  41be94:	25206570 	addiu	zero,t1,25968
  41be98:	00000a64 	0xa64
  41be9c:	3830255b 	xori	s0,at,0x255b
  41bea0:	72205d78 	0x72205d78
  41bea4:	20646165 	addi	a0,v1,24933
  41bea8:	2d206425 	sltiu	zero,t1,25637
  41beac:	6162202d 	0x6162202d
  41beb0:	6f6d2064 	0x6f6d2064
  41beb4:	000a6564 	0xa6564
  41beb8:	3830255b 	xori	s0,at,0x255b
  41bebc:	77205d78 	jalx	c8175e0 <_end+0xc3f17cc>
  41bec0:	65746972 	0x65746972
  41bec4:	20642520 	addi	a0,v1,9504
  41bec8:	62202d2d 	0x62202d2d
  41becc:	6d206461 	0x6d206461
  41bed0:	0a65646f 	j	99591bc <_end+0x95333a8>
  41bed4:	00000000 	nop
  41bed8:	6e6e6163 	0x6e6e6163
  41bedc:	6320746f 	0x6320746f
  41bee0:	65736f6c 	0x65736f6c
  41bee4:	65687420 	0x65687420
  41bee8:	6c696620 	0x6c696620
  41beec:	00000a65 	0xa65
  41bef0:	6e6e6163 	0x6e6e6163
  41bef4:	20746e6f 	addi	s4,v1,28271
  41bef8:	616d6e75 	0x616d6e75
  41befc:	68742070 	0x68742070
  41bf00:	69662065 	0x69662065
  41bf04:	0a2e656c 	j	8b995b0 <_end+0x877379c>
  41bf08:	00000000 	nop
  41bf0c:	75727466 	jalx	5c9d198 <_end+0x5877384>
  41bf10:	7461636e 	jalx	1858db8 <_end+0x1432fa4>
  41bf14:	73203a65 	0x73203a65
  41bf18:	61637379 	0x61637379
  41bf1c:	6d5f6c6c 	0x6d5f6c6c
  41bf20:	755f6d65 	jalx	57db594 <_end+0x53b5780>
  41bf24:	70616d6e 	0x70616d6e
  41bf28:	38302520 	xori	s0,at,0x2520
  41bf2c:	25203a78 	addiu	zero,t1,14968
  41bf30:	00000065 	0x65
  41bf34:	656c6966 	0x656c6966
  41bf38:	0000632e 	0x632e
  41bf3c:	656c6966 	0x656c6966
  41bf40:	00000000 	nop
  41bf44:	3830255b 	xori	s0,at,0x255b
  41bf48:	70205d78 	0x70205d78
  41bf4c:	63657069 	0x63657069
  41bf50:	74616572 	jalx	18595c8 <_end+0x14337b4>
  41bf54:	000a2065 	0xa2065
  41bf58:	65706970 	0x65706970
  41bf5c:	00000000 	nop
  41bf60:	70697366 	0x70697366
  41bf64:	616d5f63 	0x616d5f63
  41bf68:	75203a70 	jalx	480e9c0 <_end+0x43e8bac>
  41bf6c:	7078656e 	0x7078656e
  41bf70:	65746365 	0x65746365
  41bf74:	65702064 	0x65702064
  41bf78:	73696d72 	0x73696d72
  41bf7c:	6e6f6973 	0x6e6f6973
  41bf80:	30252073 	andi	a1,at,0x2073
  41bf84:	66207838 	0x66207838
  41bf88:	6420726f 	0x6420726f
  41bf8c:	61767473 	0x61767473
  41bf90:	38302520 	xori	s0,at,0x2520
  41bf94:	00000078 	0x78
  41bf98:	70697366 	0x70697366
  41bf9c:	00632e63 	0x632e63
  41bfa0:	20746f6e 	addi	s4,v1,28526
  41bfa4:	21666c65 	addi	a2,t3,27749
  41bfa8:	00000000 	nop
  41bfac:	77617073 	jalx	d85c1cc <_end+0xd4363b8>
  41bfb0:	72653a6e 	0x72653a6e
  41bfb4:	20726f72 	addi	s2,v1,28530
  41bfb8:	72207461 	0x72207461
  41bfbc:	6d5f6461 	0x6d5f6461
  41bfc0:	000a7061 	0xa7061
  41bfc4:	77617073 	jalx	d85c1cc <_end+0xd4363b8>
  41bfc8:	3a3a206e 	xori	k0,s1,0x206e
  41bfcc:	6e65706f 	0x6e65706f
  41bfd0:	6e696c20 	0x6e696c20
  41bfd4:	30312065 	andi	s1,at,0x2065
  41bfd8:	44522032 	0x44522032
  41bfdc:	594c4e4f 	0x594c4e4f
  41bfe0:	6f727720 	0x6f727720
  41bfe4:	2120676e 	addi	zero,t1,26478
  41bfe8:	0000000a 	movz	zero,zero,zero
  41bfec:	77617073 	jalx	d85c1cc <_end+0xd4363b8>
  41bff0:	00632e6e 	0x632e6e
  41bff4:	3a3a3a0a 	xori	k0,s1,0x3a0a
  41bff8:	3a3a3a3a 	xori	k0,s1,0x3a3a
  41bffc:	733a3a3a 	0x733a3a3a
  41c000:	6e776170 	0x6e776170
  41c004:	7a697320 	ld.b	$w12,-407(t6)
  41c008:	203a2065 	addi	k0,at,8293
  41c00c:	20207825 	addi	zero,at,30757
  41c010:	3a207073 	xori	zero,s1,0x7073
  41c014:	3a782520 	xori	t8,s3,0x2520
  41c018:	3a3a3a3a 	xori	k0,s1,0x3a3a
  41c01c:	0a3a3a3a 	j	8e8e8e8 <_end+0x8a68ad4>
  41c020:	00000000 	nop
  41c024:	203a6176 	addi	k0,at,24950
  41c028:	20207825 	addi	zero,at,30757
  41c02c:	69686320 	0x69686320
  41c030:	655f646c 	0x655f646c
  41c034:	6469766e 	0x6469766e
  41c038:	7825203a 	0x7825203a
  41c03c:	0a202020 	j	8808080 <_end+0x83e226c>
  41c040:	00000000 	nop
  41c044:	40404040 	0x40404040
  41c048:	40404040 	0x40404040
  41c04c:	40404040 	0x40404040
  41c050:	40404040 	0x40404040
  41c054:	40404040 	0x40404040
  41c058:	40404040 	0x40404040
  41c05c:	40404040 	0x40404040
  41c060:	40404040 	0x40404040
  41c064:	00004040 	sll	t0,zero,0x1
  41c068:	20746573 	addi	s4,v1,25971
  41c06c:	6c696863 	0x6c696863
  41c070:	75722064 	jalx	5c88190 <_end+0x586237c>
  41c074:	62616e6e 	0x62616e6e
  41c078:	6920656c 	0x6920656c
  41c07c:	72772073 	0x72772073
  41c080:	0a676e6f 	j	99db9bc <_end+0x95b5ba8>
  41c084:	00000000 	nop
  41c088:	6e6f633c 	0x6e6f633c
  41c08c:	00003e73 	tltu	zero,zero,0xf9
  41c090:	00007325 	0x7325
  41c094:	00006325 	0x6325
  41c098:	736e6f63 	0x736e6f63
  41c09c:	00000000 	nop
  41c0a0:	64616f6c 	0x64616f6c
  41c0a4:	6f63695f 	0x6f63695f
  41c0a8:	6d5f6564 	0x6d5f6564
  41c0ac:	65707061 	0x65707061
  41c0b0:	61703a72 	0x61703a72
  41c0b4:	615f6567 	0x615f6567
  41c0b8:	636f6c6c 	0x636f6c6c
  41c0bc:	69616620 	0x69616620
  41c0c0:	0a64656c 	j	99195b0 <_end+0x94f379c>
  41c0c4:	00000000 	nop
  41c0c8:	64616f6c 	0x64616f6c
  41c0cc:	6f63695f 	0x6f63695f
  41c0d0:	6d5f6564 	0x6d5f6564
  41c0d4:	65707061 	0x65707061
  41c0d8:	61703a72 	0x61703a72
  41c0dc:	695f6567 	0x695f6567
  41c0e0:	7265736e 	0x7265736e
  41c0e4:	61662074 	0x61662074
  41c0e8:	64656c69 	0x64656c69
  41c0ec:	0000000a 	movz	zero,zero,zero
  41c0f0:	64616f6c 	0x64616f6c
  41c0f4:	6f63695f 	0x6f63695f
  41c0f8:	6d5f6564 	0x6d5f6564
  41c0fc:	65707061 	0x65707061
  41c100:	61703a72 	0x61703a72
  41c104:	615f6567 	0x615f6567
  41c108:	636f6c6c 	0x636f6c6c
  41c10c:	69616620 	0x69616620
  41c110:	6964656c 	0x6964656c
  41c114:	0000000a 	movz	zero,zero,zero
  41c118:	5f766e65 	0x5f766e65
  41c11c:	75746573 	jalx	5d195cc <_end+0x58f37b8>
  41c120:	6d765f70 	0x6d765f70
  41c124:	70202d20 	0x70202d20
  41c128:	20656761 	addi	a1,v1,26465
  41c12c:	6f6c6c61 	0x6f6c6c61
  41c130:	72652063 	0x72652063
  41c134:	0a726f72 	j	9c9bdc8 <_end+0x9875fb4>
  41c138:	00000000 	nop
  41c13c:	2e766e65 	sltiu	s6,s3,28261
  41c140:	00000063 	0x63
  41c144:	44444150 	0x44444150
  41c148:	61632052 	0x61632052
  41c14c:	64656c6c 	0x64656c6c
  41c150:	74697720 	jalx	1a5dc80 <_end+0x1637e6c>
  41c154:	6e692068 	0x6e692068
  41c158:	696c6176 	0x696c6176
  41c15c:	766b2064 	jalx	9ac8190 <_end+0x96a237c>
  41c160:	30252061 	andi	a1,at,0x2061
  41c164:	00786c38 	0x786c38
  41c168:	6b637566 	0x6b637566
  41c16c:	766e652c 	jalx	9b994b0 <_end+0x977369c>
  41c170:	6572635f 	0x6572635f
  41c174:	5f657461 	0x5f657461
  41c178:	6f697270 	0x6f697270
  41c17c:	79746972 	0x79746972
  41c180:	766e653a 	jalx	9b994e8 <_end+0x97736d4>
  41c184:	6c6c615f 	0x6c6c615f
  41c188:	6620636f 	0x6620636f
  41c18c:	656c6961 	0x656c6961
  41c190:	00000064 	0x64
  41c194:	3830255b 	xori	s0,at,0x255b
  41c198:	66205d78 	0x66205d78
  41c19c:	20656572 	addi	a1,v1,25970
  41c1a0:	20766e65 	addi	s6,v1,28261
  41c1a4:	78383025 	st.h	$w0,112(a2)
  41c1a8:	0000000a 	movz	zero,zero,zero
  41c1ac:	4444414b 	0x4444414b
  41c1b0:	61632052 	0x61632052
  41c1b4:	64656c6c 	0x64656c6c
  41c1b8:	74697720 	jalx	1a5dc80 <_end+0x1637e6c>
  41c1bc:	6e692068 	0x6e692068
  41c1c0:	696c6176 	0x696c6176
  41c1c4:	61702064 	0x61702064
  41c1c8:	38302520 	xori	s0,at,0x2520
  41c1cc:	0000786c 	0x786c
  41c1d0:	6d612069 	0x6d612069
  41c1d4:	6c696b20 	0x6c696b20
  41c1d8:	2064656c 	addi	a0,v1,25964
  41c1dc:	202e2e2e 	addi	t6,at,11822
  41c1e0:	0000000a 	movz	zero,zero,zero
  41c1e4:	5f766e65 	0x5f766e65
  41c1e8:	6f6c6c61 	0x6f6c6c61
  41c1ec:	70262863 	0x70262863
  41c1f0:	202c3065 	addi	t4,at,12389
  41c1f4:	3d202930 	0x3d202930
  41c1f8:	0030203d 	0x30203d
  41c1fc:	65737361 	0x65737361
  41c200:	6f697472 	0x6f697472
  41c204:	6166206e 	0x6166206e
  41c208:	64656c69 	0x64656c69
  41c20c:	7325203a 	0x7325203a
  41c210:	00000000 	nop
  41c214:	5f766e65 	0x5f766e65
  41c218:	6f6c6c61 	0x6f6c6c61
  41c21c:	70262863 	0x70262863
  41c220:	202c3165 	addi	t4,at,12645
  41c224:	3d202930 	0x3d202930
  41c228:	0030203d 	0x30203d
  41c22c:	5f766e65 	0x5f766e65
  41c230:	6f6c6c61 	0x6f6c6c61
  41c234:	70262863 	0x70262863
  41c238:	202c3265 	addi	t4,at,12901
  41c23c:	3d202930 	0x3d202930
  41c240:	0030203d 	0x30203d
  41c244:	20316570 	addi	s1,at,25968
  41c248:	70202626 	0x70202626
  41c24c:	21203165 	addi	zero,t1,12645
  41c250:	6570203d 	0x6570203d
  41c254:	00000030 	tge	zero,zero
  41c258:	20326570 	addi	s2,at,25968
  41c25c:	70202626 	0x70202626
  41c260:	21203265 	addi	zero,t1,12901
  41c264:	6570203d 	0x6570203d
  41c268:	26262031 	addiu	a2,s1,8241
  41c26c:	32657020 	andi	a1,s3,0x7020
  41c270:	203d2120 	addi	sp,at,8480
  41c274:	00306570 	tge	at,s0,0x195
  41c278:	5f766e65 	0x5f766e65
  41c27c:	6f6c6c61 	0x6f6c6c61
  41c280:	70262863 	0x70262863
  41c284:	30202c65 	andi	zero,at,0x2c65
  41c288:	3d3d2029 	0x3d3d2029
  41c28c:	5f452d20 	0x5f452d20
  41c290:	465f4f4e 	c1	0x5f4f4e
  41c294:	5f454552 	0x5f454552
  41c298:	00564e45 	0x564e45
  41c29c:	2d306570 	sltiu	s0,t1,25968
  41c2a0:	766e653e 	jalx	9b994f8 <_end+0x97736e4>
  41c2a4:	2064695f 	addi	a0,v1,26975
  41c2a8:	000a6425 	0xa6425
  41c2ac:	2d316570 	sltiu	s1,t1,25968
  41c2b0:	766e653e 	jalx	9b994f8 <_end+0x97736e4>
  41c2b4:	2064695f 	addi	a0,v1,26975
  41c2b8:	000a6425 	0xa6425
  41c2bc:	2d326570 	sltiu	s2,t1,25968
  41c2c0:	766e653e 	jalx	9b994f8 <_end+0x97736e4>
  41c2c4:	2064695f 	addi	a0,v1,26975
  41c2c8:	000a6425 	0xa6425
  41c2cc:	2d306570 	sltiu	s0,t1,25968
  41c2d0:	766e653e 	jalx	9b994f8 <_end+0x97736e4>
  41c2d4:	2064695f 	addi	a0,v1,26975
  41c2d8:	32203d3d 	andi	zero,s1,0x3d3d
  41c2dc:	00383430 	tge	at,t8,0xd0
  41c2e0:	2d316570 	sltiu	s1,t1,25968
  41c2e4:	766e653e 	jalx	9b994f8 <_end+0x97736e4>
  41c2e8:	2064695f 	addi	a0,v1,26975
  41c2ec:	34203d3d 	ori	zero,at,0x3d3d
  41c2f0:	00373930 	tge	at,s7,0xe4
  41c2f4:	2d326570 	sltiu	s2,t1,25968
  41c2f8:	766e653e 	jalx	9b994f8 <_end+0x97736e4>
  41c2fc:	2064695f 	addi	a0,v1,26975
  41c300:	36203d3d 	ori	zero,s1,0x3d3d
  41c304:	00363431 	tgeu	at,s6,0xd0
  41c308:	5f766e65 	0x5f766e65
  41c30c:	74696e69 	jalx	1a5b9a4 <_end+0x1635b90>
  41c310:	77202928 	jalx	c80a4a0 <_end+0xc3e468c>
  41c314:	206b726f 	addi	t3,v1,29295
  41c318:	6c6c6577 	0x6c6c6577
  41c31c:	00000a21 	0xa21
  41c320:	3d206570 	0x3d206570
  41c324:	2030203d 	addi	s0,at,8253
  41c328:	72202626 	0x72202626
  41c32c:	3d3d2065 	0x3d3d2065
  41c330:	5f452d20 	0x5f452d20
  41c334:	5f444142 	0x5f444142
  41c338:	00564e45 	0x564e45
  41c33c:	3e2d6570 	0x3e2d6570
  41c340:	5f766e65 	0x5f766e65
  41c344:	3d206469 	0x3d206469
  41c348:	6570203d 	0x6570203d
  41c34c:	653e2d32 	0x653e2d32
  41c350:	695f766e 	0x695f766e
  41c354:	26262064 	addiu	a2,s1,8292
  41c358:	3d206572 	0x3d206572
  41c35c:	0030203d 	0x30203d
  41c360:	69766e65 	0x69766e65
  41c364:	6e653264 	0x6e653264
  41c368:	20292876 	addi	t1,at,10358
  41c36c:	6b726f77 	0x6b726f77
  41c370:	6c657720 	0x6c657720
  41c374:	000a216c 	0xa216c
  41c378:	2d316570 	sltiu	s1,t1,25968
  41c37c:	766e653e 	jalx	9b994f8 <_end+0x97736e4>
  41c380:	6467705f 	0x6467705f
  41c384:	25207269 	addiu	zero,t1,29289
  41c388:	00000a78 	0xa78
  41c38c:	2d316570 	sltiu	s1,t1,25968
  41c390:	766e653e 	jalx	9b994f8 <_end+0x97736e4>
  41c394:	3372635f 	andi	s2,k1,0x635f
  41c398:	0a782520 	j	9e09480 <_end+0x99e366c>
  41c39c:	00000000 	nop
  41c3a0:	2d326570 	sltiu	s2,t1,25968
  41c3a4:	766e653e 	jalx	9b994f8 <_end+0x97736e4>
  41c3a8:	6467705f 	0x6467705f
  41c3ac:	505b7269 	beql	v0,k1,438d54 <_end+0x12f40>
  41c3b0:	55285844 	bnel	t1,t0,4324c4 <_end+0xc6b0>
  41c3b4:	29504f54 	slti	s0,t2,20308
  41c3b8:	3d3d205d 	0x3d3d205d
  41c3bc:	6f6f6220 	0x6f6f6220
  41c3c0:	67705f74 	0x67705f74
  41c3c4:	5b726964 	0x5b726964
  41c3c8:	28584450 	slti	t8,v0,17488
  41c3cc:	504f5455 	beql	v0,t7,431524 <_end+0xb710>
  41c3d0:	00005d29 	0x5d29
  41c3d4:	2d326570 	sltiu	s2,t1,25968
  41c3d8:	766e653e 	jalx	9b994f8 <_end+0x97736e4>
  41c3dc:	6467705f 	0x6467705f
  41c3e0:	505b7269 	beql	v0,k1,438d88 <_end+0x12f74>
  41c3e4:	55285844 	bnel	t1,t0,4324f8 <_end+0xc6e4>
  41c3e8:	29504f54 	slti	s0,t2,20308
  41c3ec:	205d312d 	addi	sp,v0,12589
  41c3f0:	30203d3d 	andi	zero,at,0x3d3d
  41c3f4:	00000000 	nop
  41c3f8:	5f766e65 	0x5f766e65
  41c3fc:	75746573 	jalx	5d195cc <_end+0x58f37b8>
  41c400:	6d765f70 	0x6d765f70
  41c404:	73617020 	clz	t6 or at,k1
  41c408:	21646573 	addi	a0,t3,25971
  41c40c:	0000000a 	movz	zero,zero,zero
  41c410:	2d326570 	sltiu	s2,t1,25968
  41c414:	766e653e 	jalx	9b994f8 <_end+0x97736e4>
  41c418:	2e66745f 	sltiu	a2,s3,29791
  41c41c:	5f307063 	0x5f307063
  41c420:	74617473 	jalx	185d1cc <_end+0x14373b8>
  41c424:	3d207375 	0x3d207375
  41c428:	7830203d 	0x7830203d
  41c42c:	30303031 	andi	s0,at,0x3031
  41c430:	34303031 	ori	s0,at,0x3031
  41c434:	00000000 	nop
  41c438:	60326570 	0x60326570
  41c43c:	70732073 	0x70732073
  41c440:	67657220 	0x67657220
  41c444:	65747369 	0x65747369
  41c448:	78252072 	0x78252072
  41c44c:	0000000a 	movz	zero,zero,zero
  41c450:	5f766e65 	0x5f766e65
  41c454:	63656863 	0x63656863
  41c458:	2029286b 	addi	t1,at,10347
  41c45c:	63637573 	0x63637573
  41c460:	65646565 	0x65646565
  41c464:	000a2164 	0xa2164
  41c468:	66206e69 	0x66206e69
  41c46c:	20636e75 	addi	v1,v1,28277
  41c470:	64616f6c 	0x64616f6c
  41c474:	666c655f 	0x666c655f
  41c478:	6e696620 	0x6e696620
  41c47c:	20687369 	addi	t0,v1,29545
  41c480:	70657473 	0x70657473
  41c484:	00000a31 	tgeu	zero,zero,0x28
  41c488:	66206e69 	0x66206e69
  41c48c:	20636e75 	addi	v1,v1,28277
  41c490:	64616f6c 	0x64616f6c
  41c494:	666c655f 	0x666c655f
  41c498:	206e6920 	addi	t6,v1,26912
  41c49c:	6c696877 	0x6c696877
  41c4a0:	6f6c2065 	0x6f6c2065
  41c4a4:	000a706f 	0xa706f
  41c4a8:	66206e69 	0x66206e69
  41c4ac:	20636e75 	addi	v1,v1,28277
  41c4b0:	64616f6c 	0x64616f6c
  41c4b4:	666c655f 	0x666c655f
  41c4b8:	206e6920 	addi	t6,v1,26912
  41c4bc:	6c696877 	0x6c696877
  41c4c0:	6f6c2065 	0x6f6c2065
  41c4c4:	6920706f 	0x6920706f
  41c4c8:	6669206e 	0x6669206e
  41c4cc:	66656220 	0x66656220
  41c4d0:	2065726f 	addi	a1,v1,29295
  41c4d4:	0a70616d 	j	9c185b4 <_end+0x97f27a0>
  41c4d8:	00000000 	nop
  41c4dc:	66206e69 	0x66206e69
  41c4e0:	20636e75 	addi	v1,v1,28277
  41c4e4:	64616f6c 	0x64616f6c
  41c4e8:	666c655f 	0x666c655f
  41c4ec:	206e6920 	addi	t6,v1,26912
  41c4f0:	6c696877 	0x6c696877
  41c4f4:	6f6c2065 	0x6f6c2065
  41c4f8:	6920706f 	0x6920706f
  41c4fc:	6669206e 	0x6669206e
  41c500:	74666120 	jalx	1998480 <_end+0x157266c>
  41c504:	6d207265 	0x6d207265
  41c508:	000a7061 	0xa7061
  41c50c:	64616572 	0x64616572
  41c510:	72726520 	0x72726520
  41c514:	203a726f 	addi	k0,at,29295
  41c518:	000a6525 	0xa6525
  41c51c:	6d206f6e 	0x6d206f6e
  41c520:	2065726f 	addi	a1,v1,29295
  41c524:	73766e65 	0x73766e65
  41c528:	6165643a 	0x6165643a
  41c52c:	6f6c2064 	0x6f6c2064
  41c530:	000a706f 	0xa706f
  41c534:	3830255b 	xori	s0,at,0x255b
  41c538:	64205d78 	0x64205d78
  41c53c:	72747365 	0x72747365
  41c540:	6e69796f 	0x6e69796f
  41c544:	30252067 	andi	a1,at,0x2067
  41c548:	000a7838 	0xa7838
  41c54c:	5f737973 	0x5f737973
  41c550:	5f746573 	0x5f746573
  41c554:	61666770 	0x61666770
  41c558:	5f746c75 	0x5f746c75
  41c55c:	646e6168 	0x646e6168
  41c560:	3a72656c 	xori	s2,s3,0x656c
  41c564:	276e6163 	addiu	t6,k1,24931
  41c568:	65672074 	0x65672074
  41c56c:	6e652074 	0x6e652074
  41c570:	00000076 	tne	zero,zero,0x1
  41c574:	5f737973 	0x5f737973
  41c578:	5f6d656d 	0x5f6d656d
  41c57c:	6f6c6c61 	0x6f6c6c61
  41c580:	65703a63 	0x65703a63
  41c584:	73696d72 	0x73696d72
  41c588:	6e6f6973 	0x6e6f6973
  41c58c:	6e656420 	0x6e656420
  41c590:	64656e69 	0x64656e69
  41c594:	0000000a 	movz	zero,zero,zero
  41c598:	5f737973 	0x5f737973
  41c59c:	5f6d656d 	0x5f6d656d
  41c5a0:	6f6c6c61 	0x6f6c6c61
  41c5a4:	61763a63 	0x61763a63
  41c5a8:	20736920 	addi	s3,v1,26912
  41c5ac:	656c6c69 	0x656c6c69
  41c5b0:	0a6c6167 	j	9b1859c <_end+0x96f2788>
  41c5b4:	00000029 	0x29
  41c5b8:	5f737973 	0x5f737973
  41c5bc:	5f6d656d 	0x5f6d656d
  41c5c0:	6f6c6c61 	0x6f6c6c61
  41c5c4:	61663a63 	0x61663a63
  41c5c8:	64656c69 	0x64656c69
  41c5cc:	206f7420 	addi	t7,v1,29728
  41c5d0:	6f6c6c61 	0x6f6c6c61
  41c5d4:	20612063 	addi	at,v1,8291
  41c5d8:	65676170 	0x65676170
  41c5dc:	0000000a 	movz	zero,zero,zero
  41c5e0:	5f737973 	0x5f737973
  41c5e4:	5f6d656d 	0x5f6d656d
  41c5e8:	6f6c6c61 	0x6f6c6c61
  41c5ec:	61663a63 	0x61663a63
  41c5f0:	64656c69 	0x64656c69
  41c5f4:	206f7420 	addi	t7,v1,29728
  41c5f8:	20746567 	addi	s4,v1,25959
  41c5fc:	20656874 	addi	a1,v1,26740
  41c600:	67726174 	0x67726174
  41c604:	65207465 	0x65207465
  41c608:	000a766e 	0xa766e
  41c60c:	5f737973 	0x5f737973
  41c610:	5f6d656d 	0x5f6d656d
  41c614:	6f6c6c61 	0x6f6c6c61
  41c618:	61703a63 	0x61703a63
  41c61c:	695f6567 	0x695f6567
  41c620:	7265736e 	0x7265736e
  41c624:	61662074 	0x61662074
  41c628:	64656c69 	0x64656c69
  41c62c:	00000000 	nop
  41c630:	5f737973 	0x5f737973
  41c634:	5f6d656d 	0x5f6d656d
  41c638:	3a70616d 	xori	s0,s3,0x616d
  41c63c:	65637273 	0x65637273
  41c640:	6420766e 	0x6420766e
  41c644:	6e73656f 	0x6e73656f
  41c648:	65207427 	0x65207427
  41c64c:	74736978 	jalx	1cda5e0 <_end+0x18b47cc>
  41c650:	0000000a 	movz	zero,zero,zero
  41c654:	5f737973 	0x5f737973
  41c658:	5f6d656d 	0x5f6d656d
  41c65c:	3a70616d 	xori	s0,s3,0x616d
  41c660:	65747364 	0x65747364
  41c664:	6420766e 	0x6420766e
  41c668:	6e73656f 	0x6e73656f
  41c66c:	65207427 	0x65207427
  41c670:	74736978 	jalx	1cda5e0 <_end+0x18b47cc>
  41c674:	0000000a 	movz	zero,zero,zero
  41c678:	5f737973 	0x5f737973
  41c67c:	5f6d656d 	0x5f6d656d
  41c680:	3a70616d 	xori	s0,s3,0x616d
  41c684:	69206176 	0x69206176
  41c688:	6e692073 	0x6e692073
  41c68c:	696c6176 	0x696c6176
  41c690:	00000a64 	0xa64
  41c694:	5f737973 	0x5f737973
  41c698:	5f6d656d 	0x5f6d656d
  41c69c:	3a70616d 	xori	s0,s3,0x616d
  41c6a0:	6d726570 	0x6d726570
  41c6a4:	69737369 	0x69737369
  41c6a8:	64206e6f 	0x64206e6f
  41c6ac:	65696e65 	0x65696e65
  41c6b0:	00000a64 	0xa64
  41c6b4:	5f737973 	0x5f737973
  41c6b8:	5f6d656d 	0x5f6d656d
  41c6bc:	3a70616d 	xori	s0,s3,0x616d
  41c6c0:	65676170 	0x65676170
  41c6c4:	20666f20 	addi	a2,v1,28448
  41c6c8:	76637273 	jalx	98dc9cc <_end+0x94b6bb8>
  41c6cc:	73692061 	0x73692061
  41c6d0:	766e6920 	jalx	9b9a480 <_end+0x977466c>
  41c6d4:	64696c61 	0x64696c61
  41c6d8:	0000000a 	movz	zero,zero,zero
  41c6dc:	5f737973 	0x5f737973
  41c6e0:	5f6d656d 	0x5f6d656d
  41c6e4:	3a70616d 	xori	s0,s3,0x616d
  41c6e8:	65676170 	0x65676170
  41c6ec:	736e695f 	udi15	k1,t6,t5,0x5
  41c6f0:	20747265 	addi	s4,v1,29285
  41c6f4:	696e6564 	0x696e6564
  41c6f8:	000a6465 	0xa6465
  41c6fc:	5f737973 	0x5f737973
  41c700:	5f6d656d 	0x5f6d656d
  41c704:	616d6e75 	0x616d6e75
  41c708:	61763a70 	0x61763a70
  41c70c:	20736920 	addi	s3,v1,26912
  41c710:	20746f6e 	addi	s4,v1,28526
  41c714:	696c6176 	0x696c6176
  41c718:	00000a64 	0xa64
  41c71c:	5f737973 	0x5f737973
  41c720:	5f766e65 	0x5f766e65
  41c724:	6f6c6c61 	0x6f6c6c61
  41c728:	6f6e3a63 	0x6f6e3a63
  41c72c:	65726620 	0x65726620
  41c730:	6e652065 	0x6e652065
  41c734:	00000076 	tne	zero,zero,0x1
  41c738:	5f746573 	0x5f746573
  41c73c:	5f766e65 	0x5f766e65
  41c740:	74617473 	jalx	185d1cc <_end+0x14373b8>
  41c744:	773a7375 	jalx	ce9cdd4 <_end+0xca76fc0>
  41c748:	676e6f72 	0x676e6f72
  41c74c:	61747320 	0x61747320
  41c750:	00737574 	teq	v1,s3,0x1d5
  41c754:	5f746573 	0x5f746573
  41c758:	74617473 	jalx	185d1cc <_end+0x14373b8>
  41c75c:	653a7375 	0x653a7375
  41c760:	6920766e 	0x6920766e
  41c764:	6e692073 	0x6e692073
  41c768:	696c6176 	0x696c6176
  41c76c:	00000a64 	0xa64
  41c770:	63737973 	0x63737973
  41c774:	5f6c6c61 	0x5f6c6c61
  41c778:	2e6c6c61 	sltiu	t4,s3,27745
  41c77c:	00000063 	0x63
  41c780:	5f637069 	0x5f637069
  41c784:	76636572 	jalx	98d95c8 <_end+0x94b37b4>
  41c788:	7473643a 	jalx	1cd90e8 <_end+0x18b32d4>
  41c78c:	69206176 	0x69206176
  41c790:	72672073 	0x72672073
  41c794:	65746165 	0x65746165
  41c798:	68742072 	0x68742072
  41c79c:	55206e61 	bnezl	t1,438124 <_end+0x12310>
  41c7a0:	00504f54 	0x504f54
  41c7a4:	5f637069 	0x5f637069
  41c7a8:	646e6573 	0x646e6573
  41c7ac:	7473643a 	jalx	1cd90e8 <_end+0x18b32d4>
  41c7b0:	20766e65 	addi	s6,v1,28261
  41c7b4:	69207369 	0x69207369
  41c7b8:	6c61766e 	0x6c61766e
  41c7bc:	000a6469 	0xa6469
  41c7c0:	5f637069 	0x5f637069
  41c7c4:	646e6573 	0x646e6573
  41c7c8:	7269763a 	0x7269763a
  41c7cc:	6c617574 	0x6c617574
  41c7d0:	64646120 	0x64646120
  41c7d4:	73736572 	0x73736572
  41c7d8:	65726720 	0x65726720
  41c7dc:	72657461 	0x72657461
  41c7e0:	61687420 	0x61687420
  41c7e4:	5455206e 	bnel	v0,s5,4249a0 <__bss_start+0x7264>
  41c7e8:	000a504f 	0xa504f
  41c7ec:	5f637069 	0x5f637069
  41c7f0:	646e6573 	0x646e6573
  41c7f4:	7365643a 	0x7365643a
  41c7f8:	616e6974 	0x616e6974
  41c7fc:	20646574 	addi	a0,v1,25972
  41c800:	67617020 	0x67617020
  41c804:	6f6e2065 	0x6f6e2065
  41c808:	78652074 	0x78652074
  41c80c:	00747369 	0x747369
  41c810:	5f637069 	0x5f637069
  41c814:	646e6573 	0x646e6573
  41c818:	6761703a 	0x6761703a
  41c81c:	6e695f65 	0x6e695f65
  41c820:	74726573 	jalx	1c995cc <_end+0x18737b8>
  41c824:	69616620 	0x69616620
  41c828:	0a64656c 	j	99195b0 <_end+0x94f379c>
  41c82c:	00000000 	nop
  41c830:	5f737973 	0x5f737973
  41c834:	74697277 	jalx	1a5c9dc <_end+0x1636bc8>
  41c838:	65645f65 	0x65645f65
  41c83c:	6e693a76 	0x6e693a76
  41c840:	696c6176 	0x696c6176
  41c844:	65642064 	0x65642064
  41c848:	00000a76 	tne	zero,zero,0x29
  41c84c:	5f737973 	0x5f737973
  41c850:	64616572 	0x64616572
  41c854:	7665645f 	jalx	995917c <_end+0x9533368>
  41c858:	766e693a 	jalx	9b9a4e8 <_end+0x97746d4>
  41c85c:	64696c61 	0x64696c61
  41c860:	76656420 	jalx	9959080 <_end+0x953326c>
  41c864:	0000000a 	movz	zero,zero,zero
  41c868:	20202020 	addi	zero,at,8224
  41c86c:	6d63202d 	0x6d63202d
  41c870:	64252064 	0x64252064
  41c874:	20736920 	addi	s3,v1,26912
  41c878:	646e6573 	0x646e6573
  41c87c:	20676e69 	addi	a3,v1,28265
  41c880:	202e2e2e 	addi	t6,at,11822
  41c884:	00000000 	nop
  41c888:	75677241 	jalx	59dc904 <_end+0x55b6af0>
  41c88c:	746e656d 	jalx	1b995b4 <_end+0x17737a0>
  41c890:	20736920 	addi	s3,v1,26912
  41c894:	2e206425 	sltiu	zero,s1,25637
  41c898:	00202e2e 	0x202e2e
  41c89c:	696e6946 	0x696e6946
  41c8a0:	64656873 	0x64656873
  41c8a4:	6572202c 	0x6572202c
  41c8a8:	73692073 	0x73692073
  41c8ac:	25203a20 	addiu	zero,t1,14880
  41c8b0:	0d0a2064 	jal	4288190 <_end+0x3e6237c>
  41c8b4:	00000000 	nop
  41c8b8:	5349445b 	beql	k0,t1,42da28 <_end+0x7c14>
  41c8bc:	4e495f4b 	c3	0x495f4b
  41c8c0:	645d5449 	0x645d5449
  41c8c4:	206b7369 	addi	t3,v1,29545
  41c8c8:	74696e69 	jalx	1a5b9a4 <_end+0x1635b90>
  41c8cc:	63757320 	0x63757320
  41c8d0:	73736563 	0x73736563
  41c8d4:	0a217365 	j	885cd94 <_end+0x8436f80>
  41c8d8:	0000000d 	break
  41c8dc:	5349445b 	beql	k0,t1,42da4c <_end+0x7c38>
  41c8e0:	4e495f4b 	c3	0x495f4b
  41c8e4:	645d5449 	0x645d5449
  41c8e8:	206b7369 	addi	t3,v1,29545
  41c8ec:	74696e69 	jalx	1a5b9a4 <_end+0x1635b90>
  41c8f0:	69616620 	0x69616620
  41c8f4:	2064656c 	addi	a0,v1,25964
  41c8f8:	0a2e2e2e 	j	8b8b8b8 <_end+0x8765aa4>
  41c8fc:	0000000d 	break
  41c900:	2a2a0d0a 	slti	t2,s1,3338
  41c904:	75502a2a 	jalx	540a8a8 <_end+0x4fe4a94>
  41c908:	4f206c6c 	c3	0x1206c6c
  41c90c:	53207475 	beqzl	t9,439ae4 <_end+0x13cd0>
  41c910:	61432044 	0x61432044
  41c914:	4e206472 	c3	0x206472
  41c918:	2a21776f 	slti	at,s1,30575
  41c91c:	0a2a2a2a 	j	8a8a8a8 <_end+0x8664a94>
  41c920:	0000000d 	break
  41c924:	0000003d 	0x3d
  41c928:	74530d0a 	jalx	14c3428 <_end+0x109d614>
  41c92c:	20747261 	addi	s4,v1,29281
  41c930:	74696e49 	jalx	1a5b924 <_end+0x1635b10>
  41c934:	49505320 	0x49505320
  41c938:	6e6f4320 	0x6e6f4320
  41c93c:	6c6f7274 	0x6c6f7274
  41c940:	0a72656c 	j	9c995b0 <_end+0x987379c>
  41c944:	0000000d 	break
  41c948:	3d3d3d0a 	0x3d3d3d0a
  41c94c:	3d3d3d3d 	0x3d3d3d3d
  41c950:	3d3d3d3d 	0x3d3d3d3d
  41c954:	3d3d3d3d 	0x3d3d3d3d
  41c958:	2044533d 	addi	a0,v0,21309
  41c95c:	4f525245 	c3	0x1525245
  41c960:	3d3d2052 	0x3d3d2052
  41c964:	3d3d3d3d 	0x3d3d3d3d
  41c968:	3d3d3d3d 	0x3d3d3d3d
  41c96c:	3d3d3d3d 	0x3d3d3d3d
  41c970:	0a3d3d3d 	j	8f4f4f4 <_end+0x8b296e0>
  41c974:	00000000 	nop
  41c978:	2a2a0d0a 	slti	t2,s1,3338
  41c97c:	6e492a2a 	0x6e492a2a
  41c980:	74726573 	jalx	1c995cc <_end+0x18737b8>
  41c984:	20445320 	addi	a0,v0,21280
  41c988:	64726143 	0x64726143
  41c98c:	776f4e20 	jalx	dbd3880 <_end+0xd7ada6c>
  41c990:	2a2a2a21 	slti	t2,s1,10785
  41c994:	000d0a2a 	0xd0a2a
  41c998:	44530d0a 	0x44530d0a
  41c99c:	72614320 	0x72614320
  41c9a0:	6e492064 	0x6e492064
  41c9a4:	61697469 	0x61697469
  41c9a8:	657a696c 	0x657a696c
  41c9ac:	0d0a2164 	jal	4288590 <_end+0x3e6277c>
  41c9b0:	00000000 	nop
  41c9b4:	00000d0a 	0xd0a
  41c9b8:	656d6954 	0x656d6954
  41c9bc:	20676e69 	addi	a3,v1,28265
  41c9c0:	65746e69 	0x65746e69
  41c9c4:	6c617672 	0x6c617672
  41c9c8:	6e616320 	0x6e616320
  41c9cc:	20746f6e 	addi	s4,v1,28526
  41c9d0:	6f206562 	0x6f206562
  41c9d4:	20726576 	addi	s2,v1,25974
  41c9d8:	73203538 	0x73203538
  41c9dc:	6e6f6365 	0x6e6f6365
  41c9e0:	0a2e7364 	j	8b9cd90 <_end+0x8776f7c>
  41c9e4:	00000000 	nop
  41c9e8:	642f2e2e 	0x642f2e2e
  41c9ec:	65766972 	0x65766972
  41c9f0:	742f7372 	jalx	bdcdc8 <_end+0x7b6fb4>
  41c9f4:	72656d69 	0x72656d69
  41c9f8:	0000632e 	0x632e
  41c9fc:	656d6954 	0x656d6954
  41ca00:	20676e69 	addi	a3,v1,28265
  41ca04:	65746e69 	0x65746e69
  41ca08:	6c617672 	0x6c617672
  41ca0c:	6e616320 	0x6e616320
  41ca10:	20746f6e 	addi	s4,v1,28526
  41ca14:	6f206562 	0x6f206562
  41ca18:	20726576 	addi	s2,v1,25974
  41ca1c:	39383538 	xori	t8,t1,0x3538
  41ca20:	696d2039 	0x696d2039
  41ca24:	73696c6c 	0x73696c6c
  41ca28:	6e6f6365 	0x6e6f6365
  41ca2c:	0a2e7364 	j	8b9cd90 <_end+0x8776f7c>
  41ca30:	00000000 	nop
  41ca34:	20202020 	addi	zero,at,8224
  41ca38:	20205f5f 	addi	zero,at,24415
  41ca3c:	5f5f5f5f 	0x5f5f5f5f
  41ca40:	20202020 	addi	zero,at,8224
  41ca44:	5f202020 	bgtzl	t9,424ac8 <__bss_start+0x738c>
  41ca48:	20202020 	addi	zero,at,8224
  41ca4c:	20202020 	addi	zero,at,8224
  41ca50:	20202020 	addi	zero,at,8224
  41ca54:	20202020 	addi	zero,at,8224
  41ca58:	20202020 	addi	zero,at,8224
  41ca5c:	5f5f5f5f 	0x5f5f5f5f
  41ca60:	5f5f2020 	0x5f5f2020
  41ca64:	0a5f5f5f 	j	97d7d7c <_end+0x93b1f68>
  41ca68:	00000000 	nop
  41ca6c:	2f202020 	sltiu	zero,t9,8224
  41ca70:	2f7c2020 	sltiu	gp,k1,8224
  41ca74:	5f282020 	0x5f282020
  41ca78:	5f5f5f29 	0x5f5f5f29
  41ca7c:	5f282020 	0x5f282020
  41ca80:	5f5f5f29 	0x5f5f5f29
  41ca84:	205f5f5f 	addi	ra,v0,24415
  41ca88:	5f5f5f20 	0x5f5f5f20
  41ca8c:	5f5f5f5f 	0x5f5f5f5f
  41ca90:	2f202020 	sltiu	zero,t9,8224
  41ca94:	205f5f20 	addi	ra,v0,24352
  41ca98:	5f202f5c 	bgtzl	t9,42880c <_end+0x29f8>
  41ca9c:	0a2f5f5f 	j	8bd7d7c <_end+0x87b1f68>
  41caa0:	00000000 	nop
  41caa4:	202f2020 	addi	t7,at,8224
  41caa8:	2f5f7c2f 	sltiu	ra,k0,31791
  41caac:	2f202f20 	sltiu	zero,t9,12064
  41cab0:	205f5f20 	addi	ra,v0,24352
  41cab4:	2f202f5c 	sltiu	zero,t9,12124
  41cab8:	5f5f5f20 	0x5f5f5f20
  41cabc:	202f202f 	addi	t7,at,8239
  41cac0:	202f202f 	addi	t7,at,8239
  41cac4:	2f5f5f5f 	sltiu	ra,k0,24415
  41cac8:	202f2020 	addi	t7,at,8224
  41cacc:	202f202f 	addi	t7,at,8239
  41cad0:	5f5f5c2f 	0x5f5f5c2f
  41cad4:	0a205c20 	j	8817080 <_end+0x83f126c>
  41cad8:	00000000 	nop
  41cadc:	2f202f20 	sltiu	zero,t9,12064
  41cae0:	202f2020 	addi	t7,at,8224
  41cae4:	202f202f 	addi	t7,at,8239
  41cae8:	202f202f 	addi	t7,at,8239
  41caec:	5f28202f 	0x5f28202f
  41caf0:	2920205f 	slti	zero,t1,8287
  41caf4:	2f5f2f20 	sltiu	ra,k0,12064
  41caf8:	5f5f2820 	0x5f5f2820
  41cafc:	20292020 	addi	t1,at,8224
  41cb00:	2f202f20 	sltiu	zero,t9,12064
  41cb04:	2f202f5f 	sltiu	zero,t9,12127
  41cb08:	2f5f5f5f 	sltiu	ra,k0,24415
  41cb0c:	0a202f20 	j	880bc80 <_end+0x83e5e6c>
  41cb10:	00000000 	nop
  41cb14:	202f5f2f 	addi	t7,at,24367
  41cb18:	2f5f2f20 	sltiu	ra,k0,12064
  41cb1c:	2f5f2f5f 	sltiu	ra,k0,12127
  41cb20:	2f5f2f20 	sltiu	ra,k0,12064
  41cb24:	5f5f2f5f 	0x5f5f2f5f
  41cb28:	5c2f5f5f 	0x5c2f5f5f
  41cb2c:	202c5f5f 	addi	t4,at,24415
  41cb30:	5f5f5f2f 	0x5f5f5f2f
  41cb34:	20202f5f 	addi	zero,at,12127
  41cb38:	5f5f5c20 	0x5f5f5c20
  41cb3c:	2f2f5f5f 	sltiu	t7,t9,24415
  41cb40:	5f5f5f5f 	0x5f5f5f5f
  41cb44:	0a20202f 	j	88080bc <_end+0x83e22a8>
  41cb48:	00000000 	nop
  41cb4c:	20202020 	addi	zero,at,8224
  41cb50:	20202020 	addi	zero,at,8224
  41cb54:	20202020 	addi	zero,at,8224
  41cb58:	20202020 	addi	zero,at,8224
  41cb5c:	20202020 	addi	zero,at,8224
  41cb60:	5f2f2020 	0x5f2f2020
  41cb64:	2f5f5f5f 	sltiu	ra,k0,24415
  41cb68:	20202020 	addi	zero,at,8224
  41cb6c:	20202020 	addi	zero,at,8224
  41cb70:	20202020 	addi	zero,at,8224
  41cb74:	20202020 	addi	zero,at,8224
  41cb78:	20202020 	addi	zero,at,8224
  41cb7c:	0a202020 	j	8808080 <_end+0x83e226c>
  41cb80:	00000000 	nop
  41cb84:	61656c50 	0x61656c50
  41cb88:	73206573 	0x73206573
  41cb8c:	70757465 	0x70757465
  41cb90:	65687420 	0x65687420
  41cb94:	73797320 	0x73797320
  41cb98:	206d6574 	addi	t5,v1,25972
  41cb9c:	656d6974 	0x656d6974
  41cba0:	3a787828 	xori	t8,s3,0x7828
  41cba4:	783a7878 	0x783a7878
  41cba8:	0a202978 	j	880a5e0 <_end+0x83e47cc>
  41cbac:	00000000 	nop
  41cbb0:	72756f68 	0x72756f68
  41cbb4:	0000203e 	0x203e
  41cbb8:	756e696d 	jalx	5b9a5b4 <_end+0x57747a0>
  41cbbc:	203e6574 	addi	s8,at,25972
  41cbc0:	00000000 	nop
  41cbc4:	3e636573 	0x3e636573
  41cbc8:	00000020 	add	zero,zero,zero
  41cbcc:	70617274 	0x70617274
  41cbd0:	696e6920 	0x696e6920
  41cbd4:	61682074 	0x61682074
  41cbd8:	65622073 	0x65622073
  41cbdc:	63206e65 	0x63206e65
  41cbe0:	6c706d6f 	0x6c706d6f
  41cbe4:	64657465 	0x64657465
  41cbe8:	0000000a 	movz	zero,zero,zero
  41cbec:	6f6c636b 	0x6f6c636b
  41cbf0:	69206b63 	0x69206b63
  41cbf4:	2074696e 	addi	s4,v1,26990
  41cbf8:	20736168 	addi	s3,v1,24936
  41cbfc:	6e656562 	0x6e656562
  41cc00:	6d6f6320 	0x6d6f6320
  41cc04:	74656c70 	jalx	195b1c0 <_end+0x15353ac>
  41cc08:	000a6465 	0xa6465
  41cc0c:	0000003f 	0x3f
  41cc10:	70616d70 	0x70616d70
  41cc14:	0000632e 	0x632e
  41cc18:	2074756f 	addi	s4,v1,30063
  41cc1c:	6d20666f 	0x6d20666f
  41cc20:	726f6d65 	0x726f6d65
  41cc24:	000a7974 	teq	zero,t2,0x1e5
  41cc28:	70326170 	0x70326170
  41cc2c:	20656761 	addi	a1,v1,26465
  41cc30:	6c6c6163 	0x6c6c6163
  41cc34:	77206465 	jalx	c819194 <_end+0xc3f3380>
  41cc38:	20687469 	addi	t0,v1,29801
  41cc3c:	61766e69 	0x61766e69
  41cc40:	2064696c 	addi	a0,v1,26988
  41cc44:	203a6170 	addi	k0,at,24944
  41cc48:	000a7825 	or	t7,zero,t2
  41cc4c:	73726966 	0x73726966
  41cc50:	61762074 	0x61762074
  41cc54:	20617032 	addi	at,v1,28722
  41cc58:	000a6669 	0xa6669
  41cc5c:	6f636573 	0x6f636573
  41cc60:	7620646e 	jalx	88191b8 <_end+0x83f33a4>
  41cc64:	61703261 	0x61703261
  41cc68:	0a666920 	j	999a480 <_end+0x957466c>
  41cc6c:	00000000 	nop
  41cc70:	73796850 	udi0	k1,t9,t5,0x1
  41cc74:	6c616369 	0x6c616369
  41cc78:	6d656d20 	0x6d656d20
  41cc7c:	3a79726f 	xori	t9,s3,0x726f
  41cc80:	4b642520 	c2	0x1642520
  41cc84:	61766120 	0x61766120
  41cc88:	62616c69 	0x62616c69
  41cc8c:	202c656c 	addi	t4,at,25964
  41cc90:	00000000 	nop
  41cc94:	65736162 	0x65736162
  41cc98:	25203d20 	addiu	zero,t1,15648
  41cc9c:	202c4b64 	addi	t4,at,19300
  41cca0:	65747865 	0x65747865
  41cca4:	6465646e 	0x6465646e
  41cca8:	25203d20 	addiu	zero,t1,15648
  41ccac:	000a4b64 	0xa4b64
  41ccb0:	70616d70 	0x70616d70
  41ccb4:	3a20632e 	xori	zero,s1,0x632e
  41ccb8:	3a343331 	xori	s4,s1,0x3331
  41ccbc:	657a6973 	0x657a6973
  41ccc0:	746f6e20 	jalx	1bdb880 <_end+0x17b5a6c>
  41ccc4:	696c6120 	0x696c6120
  41ccc8:	64656e67 	0x64656e67
  41cccc:	00000000 	nop
  41ccd0:	6d206f74 	0x6d206f74
  41ccd4:	726f6d65 	0x726f6d65
  41ccd8:	78252079 	0x78252079
  41ccdc:	726f6620 	0x726f6620
  41cce0:	72747320 	0x72747320
  41cce4:	20746375 	addi	s4,v1,25461
  41cce8:	65676170 	0x65676170
  41ccec:	72696420 	0x72696420
  41ccf0:	6f746365 	0x6f746365
  41ccf4:	0a2e7972 	j	8b9e5c8 <_end+0x87787b4>
  41ccf8:	00000000 	nop
  41ccfc:	6d206f74 	0x6d206f74
  41cd00:	726f6d65 	0x726f6d65
  41cd04:	78252079 	0x78252079
  41cd08:	726f6620 	0x726f6620
  41cd0c:	72747320 	0x72747320
  41cd10:	20746375 	addi	s4,v1,25461
  41cd14:	65676150 	0x65676150
  41cd18:	000a2e73 	tltu	zero,t2,0xb9
  41cd1c:	7370696d 	0x7370696d
  41cd20:	5f6d765f 	0x5f6d765f
  41cd24:	74696e69 	jalx	1a5b9a4 <_end+0x1635b90>
  41cd28:	6f6f623a 	0x6f6f623a
  41cd2c:	67705f74 	0x67705f74
  41cd30:	20726964 	addi	s2,v1,26980
  41cd34:	25207369 	addiu	zero,t1,29545
  41cd38:	00000a78 	0xa78
  41cd3c:	70616d70 	0x70616d70
  41cd40:	093a632e 	j	4e98cb8 <_end+0x4a72ea4>
  41cd44:	70696d20 	0x70696d20
  41cd48:	6d762073 	0x6d762073
  41cd4c:	696e6920 	0x696e6920
  41cd50:	75732074 	jalx	5cc81d0 <_end+0x58a23bc>
  41cd54:	73656363 	0x73656363
  41cd58:	00000a73 	tltu	zero,zero,0x29
  41cd5c:	6b6c6177 	0x6b6c6177
  41cd60:	67617020 	0x67617020
  41cd64:	61742065 	0x61742065
  41cd68:	20656c62 	addi	a1,v1,27746
  41cd6c:	6e696f70 	0x6e696f70
  41cd70:	3a726574 	xori	s2,s3,0x6574
  41cd74:	0a782520 	j	9e09480 <_end+0x99e366c>
  41cd78:	00000000 	nop
  41cd7c:	6b6c6177 	0x6b6c6177
  41cd80:	67617020 	0x67617020
  41cd84:	61742065 	0x61742065
  41cd88:	20656c62 	addi	a1,v1,27746
  41cd8c:	72746e65 	0x72746e65
  41cd90:	25203a79 	addiu	zero,t1,14969
  41cd94:	00000a78 	0xa78
  41cd98:	65676170 	0x65676170
  41cd9c:	736e695f 	udi15	k1,t6,t5,0x5
  41cda0:	20747265 	addi	s4,v1,29285
  41cda4:	69646770 	0x69646770
  41cda8:	78252072 	0x78252072
  41cdac:	20707020 	addi	s0,v1,28704
  41cdb0:	76207825 	jalx	881e094 <_end+0x83f8280>
  41cdb4:	78252061 	ld.h	$w1,74(a0)
  41cdb8:	72657020 	clz	t6 or a1,s3
  41cdbc:	7825206d 	0x7825206d
  41cdc0:	0000000a 	movz	zero,zero,zero
  41cdc4:	65676170 	0x65676170
  41cdc8:	6568635f 	0x6568635f
  41cdcc:	000a6b63 	0xa6b63
  41cdd0:	65676170 	0x65676170
  41cdd4:	6c6c615f 	0x6c6c615f
  41cdd8:	2628636f 	addiu	t0,s1,25455
  41cddc:	29307070 	slti	s0,t1,28784
  41cde0:	203d3d20 	addi	sp,at,15648
  41cde4:	00000030 	tge	zero,zero
  41cde8:	65676170 	0x65676170
  41cdec:	6c6c615f 	0x6c6c615f
  41cdf0:	2628636f 	addiu	t0,s1,25455
  41cdf4:	29317070 	slti	s1,t1,28784
  41cdf8:	203d3d20 	addi	sp,at,15648
  41cdfc:	00000030 	tge	zero,zero
  41ce00:	65676170 	0x65676170
  41ce04:	6c6c615f 	0x6c6c615f
  41ce08:	2628636f 	addiu	t0,s1,25455
  41ce0c:	29327070 	slti	s2,t1,28784
  41ce10:	203d3d20 	addi	sp,at,15648
  41ce14:	00000030 	tge	zero,zero
  41ce18:	20317070 	addi	s1,at,28784
  41ce1c:	70202626 	0x70202626
  41ce20:	21203170 	addi	zero,t1,12656
  41ce24:	7070203d 	0x7070203d
  41ce28:	00000030 	tge	zero,zero
  41ce2c:	20327070 	addi	s2,at,28784
  41ce30:	70202626 	0x70202626
  41ce34:	21203270 	addi	zero,t1,12912
  41ce38:	7070203d 	0x7070203d
  41ce3c:	26262031 	addiu	a2,s1,8241
  41ce40:	32707020 	andi	s0,s3,0x7020
  41ce44:	203d2120 	addi	sp,at,8480
  41ce48:	00307070 	tge	at,s0,0x1c1
  41ce4c:	65676170 	0x65676170
  41ce50:	6c6c615f 	0x6c6c615f
  41ce54:	2628636f 	addiu	t0,s1,25455
  41ce58:	20297070 	addi	t1,at,28784
  41ce5c:	2d203d3d 	sltiu	zero,t1,15677
  41ce60:	4f4e5f45 	c3	0x14e5f45
  41ce64:	4d454d5f 	0x4d454d5f
  41ce68:	00000000 	nop
  41ce6c:	65676170 	0x65676170
  41ce70:	736e695f 	udi15	k1,t6,t5,0x5
  41ce74:	28747265 	slti	s4,v1,29285
  41ce78:	746f6f62 	jalx	1bdbd88 <_end+0x17b5f74>
  41ce7c:	6467705f 	0x6467705f
  41ce80:	202c7269 	addi	t4,at,29289
  41ce84:	2c317070 	sltiu	s1,at,28784
  41ce88:	30783020 	andi	t8,v1,0x3020
  41ce8c:	2930202c 	slti	s0,t1,8236
  41ce90:	30203c20 	andi	zero,at,0x3c20
  41ce94:	00000000 	nop
  41ce98:	65676170 	0x65676170
  41ce9c:	736e695f 	udi15	k1,t6,t5,0x5
  41cea0:	28747265 	slti	s4,v1,29285
  41cea4:	746f6f62 	jalx	1bdbd88 <_end+0x17b5f74>
  41cea8:	6467705f 	0x6467705f
  41ceac:	202c7269 	addi	t4,at,29289
  41ceb0:	2c317070 	sltiu	s1,at,28784
  41ceb4:	30783020 	andi	t8,v1,0x3020
  41ceb8:	2930202c 	slti	s0,t1,8236
  41cebc:	203d3d20 	addi	sp,at,15648
  41cec0:	00000030 	tge	zero,zero
  41cec4:	5f455450 	0x5f455450
  41cec8:	52444441 	beql	s2,a0,42dfd0 <_end+0x81bc>
  41cecc:	6f6f6228 	0x6f6f6228
  41ced0:	67705f74 	0x67705f74
  41ced4:	5b726964 	0x5b726964
  41ced8:	20295d30 	addi	t1,at,23856
  41cedc:	70203d3d 	0x70203d3d
  41cee0:	32656761 	andi	a1,s3,0x6761
  41cee4:	70286170 	0x70286170
  41cee8:	00293070 	tge	at,t1,0xc1
  41ceec:	70326176 	0x70326176
  41cef0:	6f622861 	0x6f622861
  41cef4:	705f746f 	0x705f746f
  41cef8:	72696467 	0x72696467
  41cefc:	7830202c 	0x7830202c
  41cf00:	69202930 	0x69202930
  41cf04:	78252073 	0x78252073
  41cf08:	0000000a 	movz	zero,zero,zero
  41cf0c:	65676170 	0x65676170
  41cf10:	28617032 	slti	at,v1,28722
  41cf14:	29317070 	slti	s1,t1,28784
  41cf18:	20736920 	addi	s3,v1,26912
  41cf1c:	000a7825 	or	t7,zero,t2
  41cf20:	70326176 	0x70326176
  41cf24:	6f622861 	0x6f622861
  41cf28:	705f746f 	0x705f746f
  41cf2c:	72696467 	0x72696467
  41cf30:	7830202c 	0x7830202c
  41cf34:	3d202930 	0x3d202930
  41cf38:	6170203d 	0x6170203d
  41cf3c:	70326567 	0x70326567
  41cf40:	70702861 	0x70702861
  41cf44:	00002931 	tgeu	zero,zero,0xa4
  41cf48:	2d317070 	sltiu	s1,t1,28784
  41cf4c:	5f70703e 	0x5f70703e
  41cf50:	20666572 	addi	a2,v1,25970
  41cf54:	31203d3d 	andi	zero,t1,0x3d3d
  41cf58:	00000000 	nop
  41cf5c:	65676170 	0x65676170
  41cf60:	736e695f 	udi15	k1,t6,t5,0x5
  41cf64:	28747265 	slti	s4,v1,29285
  41cf68:	746f6f62 	jalx	1bdbd88 <_end+0x17b5f74>
  41cf6c:	6467705f 	0x6467705f
  41cf70:	202c7269 	addi	t4,at,29289
  41cf74:	2c327070 	sltiu	s2,at,28784
  41cf78:	32594220 	andi	t9,s2,0x4220
  41cf7c:	202c4750 	addi	t4,at,18256
  41cf80:	3d202930 	0x3d202930
  41cf84:	0030203d 	0x30203d
  41cf88:	70326176 	0x70326176
  41cf8c:	6f622861 	0x6f622861
  41cf90:	705f746f 	0x705f746f
  41cf94:	72696467 	0x72696467
  41cf98:	5942202c 	0x5942202c
  41cf9c:	29475032 	slti	a3,t2,20530
  41cfa0:	203d3d20 	addi	sp,at,15648
  41cfa4:	65676170 	0x65676170
  41cfa8:	28617032 	slti	at,v1,28722
  41cfac:	29327070 	slti	s2,t1,28784
  41cfb0:	00000000 	nop
  41cfb4:	2d327070 	sltiu	s2,t1,28784
  41cfb8:	5f70703e 	0x5f70703e
  41cfbc:	20666572 	addi	a2,v1,25970
  41cfc0:	31203d3d 	andi	zero,t1,0x3d3d
  41cfc4:	00000000 	nop
  41cfc8:	72617473 	0x72617473
  41cfcc:	61702074 	0x61702074
  41cfd0:	695f6567 	0x695f6567
  41cfd4:	7265736e 	0x7265736e
  41cfd8:	00000a74 	teq	zero,zero,0x29
  41cfdc:	65676170 	0x65676170
  41cfe0:	736e695f 	udi15	k1,t6,t5,0x5
  41cfe4:	28747265 	slti	s4,v1,29285
  41cfe8:	746f6f62 	jalx	1bdbd88 <_end+0x17b5f74>
  41cfec:	6467705f 	0x6467705f
  41cff0:	202c7269 	addi	t4,at,29289
  41cff4:	2c307070 	sltiu	s0,at,28784
  41cff8:	4d445020 	madd.s	$f0,$f10,$f10,$f4
  41cffc:	202c5041 	addi	t4,at,20545
  41d000:	3c202930 	0x3c202930
  41d004:	00003020 	add	a2,zero,zero
  41d008:	65676170 	0x65676170
  41d00c:	736e695f 	udi15	k1,t6,t5,0x5
  41d010:	28747265 	slti	s4,v1,29285
  41d014:	746f6f62 	jalx	1bdbd88 <_end+0x17b5f74>
  41d018:	6467705f 	0x6467705f
  41d01c:	202c7269 	addi	t4,at,29289
  41d020:	2c317070 	sltiu	s1,at,28784
  41d024:	32594220 	andi	t9,s2,0x4220
  41d028:	202c4750 	addi	t4,at,18256
  41d02c:	3d202930 	0x3d202930
  41d030:	0030203d 	0x30203d
  41d034:	70326176 	0x70326176
  41d038:	6f622861 	0x6f622861
  41d03c:	705f746f 	0x705f746f
  41d040:	72696467 	0x72696467
  41d044:	5942202c 	0x5942202c
  41d048:	29475032 	slti	a3,t2,20530
  41d04c:	203d3d20 	addi	sp,at,15648
  41d050:	65676170 	0x65676170
  41d054:	28617032 	slti	at,v1,28722
  41d058:	29317070 	slti	s1,t1,28784
  41d05c:	00000000 	nop
  41d060:	2d317070 	sltiu	s1,t1,28784
  41d064:	5f70703e 	0x5f70703e
  41d068:	20666572 	addi	a2,v1,25970
  41d06c:	32203d3d 	andi	zero,s1,0x3d3d
  41d070:	00000000 	nop
  41d074:	2d327070 	sltiu	s2,t1,28784
  41d078:	5f70703e 	0x5f70703e
  41d07c:	20666572 	addi	a2,v1,25970
  41d080:	000a6425 	0xa6425
  41d084:	2d327070 	sltiu	s2,t1,28784
  41d088:	5f70703e 	0x5f70703e
  41d08c:	20666572 	addi	a2,v1,25970
  41d090:	30203d3d 	andi	zero,at,0x3d3d
  41d094:	00000000 	nop
  41d098:	20646e65 	addi	a0,v1,28261
  41d09c:	65676170 	0x65676170
  41d0a0:	736e695f 	udi15	k1,t6,t5,0x5
  41d0a4:	0a747265 	j	9d1c994 <_end+0x98f6b80>
  41d0a8:	00000000 	nop
  41d0ac:	65676170 	0x65676170
  41d0b0:	6c6c615f 	0x6c6c615f
  41d0b4:	2628636f 	addiu	t0,s1,25455
  41d0b8:	20297070 	addi	t1,at,28784
  41d0bc:	30203d3d 	andi	zero,at,0x3d3d
  41d0c0:	20262620 	addi	a2,at,9760
  41d0c4:	3d207070 	0x3d207070
  41d0c8:	7070203d 	0x7070203d
  41d0cc:	00000032 	tlt	zero,zero
  41d0d0:	70326176 	0x70326176
  41d0d4:	6f622861 	0x6f622861
  41d0d8:	705f746f 	0x705f746f
  41d0dc:	72696467 	0x72696467
  41d0e0:	7830202c 	0x7830202c
  41d0e4:	3d202930 	0x3d202930
  41d0e8:	307e203d 	andi	s8,v1,0x203d
  41d0ec:	00000000 	nop
  41d0f0:	70326176 	0x70326176
  41d0f4:	6f622861 	0x6f622861
  41d0f8:	705f746f 	0x705f746f
  41d0fc:	72696467 	0x72696467
  41d100:	5942202c 	0x5942202c
  41d104:	29475032 	slti	a3,t2,20530
  41d108:	203d3d20 	addi	sp,at,15648
  41d10c:	0000307e 	0x307e
  41d110:	2d317070 	sltiu	s1,t1,28784
  41d114:	5f70703e 	0x5f70703e
  41d118:	20666572 	addi	a2,v1,25970
  41d11c:	30203d3d 	andi	zero,at,0x3d3d
  41d120:	00000000 	nop
  41d124:	65676170 	0x65676170
  41d128:	6c6c615f 	0x6c6c615f
  41d12c:	2628636f 	addiu	t0,s1,25455
  41d130:	20297070 	addi	t1,at,28784
  41d134:	30203d3d 	andi	zero,at,0x3d3d
  41d138:	20262620 	addi	a2,at,9760
  41d13c:	3d207070 	0x3d207070
  41d140:	7070203d 	0x7070203d
  41d144:	00000031 	tgeu	zero,zero
  41d148:	6e696f70 	0x6e696f70
  41d14c:	3a726574 	xori	s2,s3,0x6574
  41d150:	30707020 	andi	s0,v1,0x7020
  41d154:	70703e2d 	0x70703e2d
  41d158:	6665725f 	0x6665725f
  41d15c:	6425203a 	0x6425203a
  41d160:	0000000a 	movz	zero,zero,zero
  41d164:	2d307070 	sltiu	s0,t1,28784
  41d168:	5f70703e 	0x5f70703e
  41d16c:	20666572 	addi	a2,v1,25970
  41d170:	31203d3d 	andi	zero,t1,0x3d3d
  41d174:	00000000 	nop
  41d178:	65676170 	0x65676170
  41d17c:	6568635f 	0x6568635f
  41d180:	29286b63 	slti	t0,t1,27491
  41d184:	63757320 	0x63757320
  41d188:	64656563 	0x64656563
  41d18c:	0a216465 	j	8859194 <_end+0x8433380>
  41d190:	00000000 	nop
  41d194:	20626c74 	addi	v0,v1,27764
  41d198:	69666572 	0x69666572
  41d19c:	61206c6c 	0x61206c6c
  41d1a0:	6120646e 	0x6120646e
  41d1a4:	636f6c6c 	0x636f6c6c
  41d1a8:	72726520 	0x72726520
  41d1ac:	0021726f 	0x21726f
  41d1b0:	3e3e3e3e 	0x3e3e3e3e
  41d1b4:	3e3e3e3e 	0x3e3e3e3e
  41d1b8:	3e3e3e3e 	0x3e3e3e3e
  41d1bc:	3e3e3e3e 	0x3e3e3e3e
  41d1c0:	3e3e3e3e 	0x3e3e3e3e
  41d1c4:	74693e3e 	jalx	1a4f8f8 <_end+0x1629ae4>
  41d1c8:	65207327 	0x65207327
  41d1cc:	7327766e 	0x7327766e
  41d1d0:	6e6f7a20 	0x6e6f7a20
  41d1d4:	00000065 	0x65
  41d1d8:	72727563 	0x72727563
  41d1dc:	20746e65 	addi	s4,v1,28261
  41d1e0:	20766e65 	addi	s6,v1,28261
  41d1e4:	69206469 	0x69206469
  41d1e8:	64253a73 	0x64253a73
  41d1ec:	3a61762c 	xori	at,s3,0x762c
  41d1f0:	632c7825 	0x632c7825
  41d1f4:	65746e6f 	0x65746e6f
  41d1f8:	253a7478 	addiu	k0,t1,29816
  41d1fc:	00000a78 	0xa78
  41d200:	5e5e5e5e 	0x5e5e5e5e
  41d204:	4f545e5e 	alnv.ps	$f25,$f11,$f20,k0
  41d208:	4f4c204f 	c3	0x14c204f
  41d20c:	5e5e5e57 	0x5e5e5e57
  41d210:	5e5e5e5e 	0x5e5e5e5e
  41d214:	00005e5e 	0x5e5e
  41d218:	65676170 	0x65676170
  41d21c:	3a74756f 	xori	s4,s3,0x756f
  41d220:	40404009 	0x40404009
  41d224:	305f5f5f 	andi	ra,v0,0x5f5f
  41d228:	5f782578 	0x5f782578
  41d22c:	40405f5f 	0x40405f5f
  41d230:	69202040 	0x69202040
  41d234:	6120736e 	0x6120736e
  41d238:	67617020 	0x67617020
  41d23c:	000a2065 	0xa2065
  41d240:	20424c54 	addi	v0,v0,19540
  41d244:	657a6973 	0x657a6973
  41d248:	6425203a 	0x6425203a
  41d24c:	0000000a 	movz	zero,zero,zero
  41d250:	68206425 	0x68206425
  41d254:	78252069 	0x78252069
  41d258:	306f6c20 	andi	t7,v1,0x6c20
  41d25c:	20782520 	addi	t8,v1,9504
  41d260:	20316f6c 	addi	s1,at,28524
  41d264:	70207825 	0x70207825
  41d268:	206b736d 	addi	t3,v1,29549
  41d26c:	000a7825 	or	t7,zero,t2
  41d270:	6f626c74 	0x6f626c74
  41d274:	00632e70 	tge	v1,v1,0xb9
  41d278:	706f6362 	0x706f6362
  41d27c:	73642079 	0x73642079
  41d280:	25203a74 	addiu	zero,t1,14964
  41d284:	72732078 	0x72732078
  41d288:	25203a63 	addiu	zero,t1,14947
  41d28c:	00000a78 	0xa78
  41d290:	6b736964 	0x6b736964
  41d294:	72646461 	0x72646461
  41d298:	7272653a 	0x7272653a
  41d29c:	0000726f 	0x726f
  41d2a0:	662f2e2e 	0x662f2e2e
  41d2a4:	73662f73 	0x73662f73
  41d2a8:	0000632e 	0x632e
  41d2ac:	74697277 	jalx	1a5c9dc <_end+0x1636bc8>
  41d2b0:	6e752065 	0x6e752065
  41d2b4:	7070616d 	0x7070616d
  41d2b8:	62206465 	0x62206465
  41d2bc:	6b636f6c 	0x6b636f6c
  41d2c0:	38302520 	xori	s0,at,0x2520
  41d2c4:	00000078 	0x78
  41d2c8:	616d6e75 	0x616d6e75
  41d2cc:	6c625f70 	0x6c625f70
  41d2d0:	3a6b636f 	xori	t3,s3,0x636f
  41d2d4:	63737973 	0x63737973
  41d2d8:	206c6c61 	addi	t4,v1,27745
  41d2dc:	616d6e75 	0x616d6e75
  41d2e0:	72652070 	0x72652070
  41d2e4:	0a726f72 	j	9c9bdc8 <_end+0x9875fb4>
  41d2e8:	00000000 	nop
  41d2ec:	6f6c6221 	0x6f6c6221
  41d2f0:	695f6b63 	0x695f6b63
  41d2f4:	616d5f73 	0x616d5f73
  41d2f8:	64657070 	0x64657070
  41d2fc:	6f6c6228 	0x6f6c6228
  41d300:	6f6e6b63 	0x6f6e6b63
  41d304:	00000029 	0x29
  41d308:	64616572 	0x64616572
  41d30c:	20676e69 	addi	a3,v1,28265
  41d310:	2d6e6f6e 	sltiu	t6,t3,28526
  41d314:	73697865 	0x73697865
  41d318:	746e6574 	jalx	1b995d0 <_end+0x17737bc>
  41d31c:	6f6c6220 	0x6f6c6220
  41d320:	25206b63 	addiu	zero,t1,27491
  41d324:	0a783830 	j	9e0e0c0 <_end+0x99e82ac>
  41d328:	00000000 	nop
  41d32c:	64616572 	0x64616572
  41d330:	20676e69 	addi	a3,v1,28265
  41d334:	65657266 	0x65657266
  41d338:	6f6c6220 	0x6f6c6220
  41d33c:	25206b63 	addiu	zero,t1,27491
  41d340:	0a783830 	j	9e0e0c0 <_end+0x99e82ac>
  41d344:	00000000 	nop
  41d348:	65657266 	0x65657266
  41d34c:	6f6c625f 	0x6f6c625f
  41d350:	623a6b63 	0x623a6b63
  41d354:	6b636f6c 	0x6b636f6c
  41d358:	3d206f6e 	0x3d206f6e
  41d35c:	000a3020 	add	a2,zero,t2
  41d360:	6f727265 	0x6f727265
  41d364:	74612072 	jalx	18481c8 <_end+0x14223b4>
  41d368:	65726620 	0x65726620
  41d36c:	6c625f65 	0x6c625f65
  41d370:	0a6b636f 	j	9ad8dbc <_end+0x96b2fa8>
  41d374:	00000000 	nop
  41d378:	6e6e6163 	0x6e6e6163
  41d37c:	7220746f 	0x7220746f
  41d380:	20646165 	addi	a0,v1,24933
  41d384:	65707573 	0x65707573
  41d388:	6f6c6272 	0x6f6c6272
  41d38c:	203a6b63 	addi	k0,at,27491
  41d390:	00006525 	0x6525
  41d394:	20646162 	addi	a0,v1,24930
  41d398:	656c6966 	0x656c6966
  41d39c:	73797320 	0x73797320
  41d3a0:	206d6574 	addi	t5,v1,25972
  41d3a4:	6967616d 	0x6967616d
  41d3a8:	756e2063 	jalx	5b8818c <_end+0x5762378>
  41d3ac:	7265626d 	0x7265626d
  41d3b0:	20782520 	addi	t8,v1,9504
  41d3b4:	00007825 	move	t7,zero
  41d3b8:	656c6966 	0x656c6966
  41d3bc:	73797320 	0x73797320
  41d3c0:	206d6574 	addi	t5,v1,25972
  41d3c4:	74207369 	jalx	81cda4 <_end+0x3f6f90>
  41d3c8:	6c206f6f 	0x6c206f6f
  41d3cc:	65677261 	0x65677261
  41d3d0:	00000000 	nop
  41d3d4:	65707573 	0x65707573
  41d3d8:	6f6c6272 	0x6f6c6272
  41d3dc:	69206b63 	0x69206b63
  41d3e0:	6f672073 	0x6f672073
  41d3e4:	000a646f 	0xa646f
  41d3e8:	6f6c6221 	0x6f6c6221
  41d3ec:	695f6b63 	0x695f6b63
  41d3f0:	72665f73 	0x72665f73
  41d3f4:	30286565 	andi	t0,at,0x6565
  41d3f8:	00000029 	0x29
  41d3fc:	6f6c6221 	0x6f6c6221
  41d400:	695f6b63 	0x695f6b63
  41d404:	72665f73 	0x72665f73
  41d408:	31286565 	andi	t0,t1,0x6565
  41d40c:	00000029 	0x29
  41d410:	6f6c6221 	0x6f6c6221
  41d414:	695f6b63 	0x695f6b63
  41d418:	72665f73 	0x72665f73
  41d41c:	69286565 	0x69286565
  41d420:	32202b20 	andi	zero,s1,0x2b20
  41d424:	00000029 	0x29
  41d428:	64616572 	0x64616572
  41d42c:	7469625f 	jalx	1a5897c <_end+0x1632b68>
  41d430:	2070616d 	addi	s0,v1,24941
  41d434:	67207369 	0x67207369
  41d438:	0a646f6f 	j	991bdbc <_end+0x94f5fa8>
  41d43c:	00000000 	nop
  41d440:	53504f4f 	beql	k0,s0,431180 <_end+0xb36c>
  41d444:	00000a21 	0xa21
  41d448:	636f6c62 	0x636f6c62
  41d44c:	73695f6b 	0x73695f6b
  41d450:	70616d5f 	udi15	v1,at,t5,0x15
  41d454:	28646570 	slti	a0,v1,25968
  41d458:	00002931 	tgeu	zero,zero,0xa4
  41d45c:	6f6c6221 	0x6f6c6221
  41d460:	695f6b63 	0x695f6b63
  41d464:	616d5f73 	0x616d5f73
  41d468:	64657070 	0x64657070
  41d46c:	00293128 	0x293128
  41d470:	63727473 	0x63727473
  41d474:	2828706d 	slti	t0,at,28781
  41d478:	72616863 	0x72616863
  41d47c:	64292a20 	0x64292a20
  41d480:	616b7369 	0x616b7369
  41d484:	28726464 	slti	s2,v1,25700
  41d488:	202c2931 	addi	t4,at,10545
  41d48c:	504f4f22 	beql	v0,t7,431118 <_end+0xb304>
  41d490:	6e5c2153 	0x6e5c2153
  41d494:	3d202922 	0x3d202922
  41d498:	0030203d 	0x30203d
  41d49c:	5f726964 	0x5f726964
  41d4a0:	6b6f6f6c 	0x6b6f6f6c
  41d4a4:	653a7075 	0x653a7075
  41d4a8:	726f7272 	0x726f7272
  41d4ac:	20746120 	addi	s4,v1,24864
  41d4b0:	656c6966 	0x656c6966
  41d4b4:	7465675f 	jalx	1959d7c <_end+0x1533f68>
  41d4b8:	6f6c625f 	0x6f6c625f
  41d4bc:	29286b63 	slti	t0,t1,27491
  41d4c0:	0000000a 	movz	zero,zero,zero
  41d4c4:	64616572 	0x64616572
  41d4c8:	73696420 	0x73696420
  41d4cc:	7265206b 	0x7265206b
  41d4d0:	0a726f72 	j	9c9bdc8 <_end+0x9875fb4>
  41d4d4:	00000000 	nop
  41d4d8:	662f2e2e 	0x662f2e2e
  41d4dc:	64692f73 	0x64692f73
  41d4e0:	00632e65 	0x632e65
  41d4e4:	76726573 	jalx	9c995cc <_end+0x98737b8>
  41d4e8:	706f5f65 	0x706f5f65
  41d4ec:	25206e65 	addiu	zero,t1,28261
  41d4f0:	20783830 	addi	t8,v1,14384
  41d4f4:	30207825 	andi	zero,at,0x7825
  41d4f8:	0a782578 	j	9e095e0 <_end+0x99e37cc>
  41d4fc:	00000000 	nop
  41d500:	6e65706f 	0x6e65706f
  41d504:	6c6c615f 	0x6c6c615f
  41d508:	6620636f 	0x6620636f
  41d50c:	656c6961 	0x656c6961
  41d510:	25203a64 	addiu	zero,t1,14948
  41d514:	69202c64 	0x69202c64
  41d518:	6c61766e 	0x6c61766e
  41d51c:	70206469 	0x70206469
  41d520:	3a687461 	xori	t0,s3,0x7461
  41d524:	00732520 	0x732520
  41d528:	662f2e2e 	0x662f2e2e
  41d52c:	65732f73 	0x65732f73
  41d530:	632e7672 	0x632e7672
  41d534:	00000000 	nop
  41d538:	76726573 	jalx	9c995cc <_end+0x98737b8>
  41d53c:	65725f65 	0x65725f65
  41d540:	65766f6d 	0x65766f6d
  41d544:	6d65723a 	0x6d65723a
  41d548:	2065766f 	addi	a1,v1,30319
  41d54c:	6c696166 	0x6c696166
  41d550:	00006465 	0x6465
  41d554:	61766e49 	0x61766e49
  41d558:	2064696c 	addi	a0,v1,26988
  41d55c:	75716572 	jalx	5c595c8 <_end+0x58337b4>
  41d560:	20747365 	addi	s4,v1,29541
  41d564:	6d6f7266 	0x6d6f7266
  41d568:	38302520 	xori	s0,at,0x2520
  41d56c:	6e203a78 	0x6e203a78
  41d570:	7261206f 	0x7261206f
  41d574:	656d7567 	0x656d7567
  41d578:	7020746e 	0x7020746e
  41d57c:	0a656761 	j	9959d84 <_end+0x9533f70>
  41d580:	00000000 	nop
  41d584:	61766e49 	0x61766e49
  41d588:	2064696c 	addi	a0,v1,26988
  41d58c:	75716572 	jalx	5c595c8 <_end+0x58337b4>
  41d590:	20747365 	addi	s4,v1,29541
  41d594:	65646f63 	0x65646f63
  41d598:	20642520 	addi	a0,v1,9504
  41d59c:	6d6f7266 	0x6d6f7266
  41d5a0:	38302520 	xori	s0,at,0x2520
  41d5a4:	00000a78 	0xa78
  41d5a8:	63737973 	0x63737973
  41d5ac:	5f6c6c61 	0x5f6c6c61
  41d5b0:	5f6d656d 	0x5f6d656d
  41d5b4:	6f6c6c61 	0x6f6c6c61
  41d5b8:	25203a63 	addiu	zero,t1,14947
  41d5bc:	00000065 	0x65
  41d5c0:	662f2e2e 	0x662f2e2e
  41d5c4:	65742f73 	0x65742f73
  41d5c8:	632e7473 	0x632e7473
  41d5cc:	00000000 	nop
  41d5d0:	6f6c6c61 	0x6f6c6c61
  41d5d4:	6c625f63 	0x6c625f63
  41d5d8:	3a6b636f 	xori	t3,s3,0x636f
  41d5dc:	00652520 	0x652520
  41d5e0:	73746962 	0x73746962
  41d5e4:	332f725b 	andi	t7,t9,0x725b
  41d5e8:	28265d32 	slti	a2,at,23858
  41d5ec:	283c3c31 	slti	gp,at,15409
  41d5f0:	32332572 	andi	s3,s1,0x2572
  41d5f4:	00002929 	0x2929
  41d5f8:	69622821 	0x69622821
  41d5fc:	70616d74 	0x70616d74
  41d600:	332f725b 	andi	t7,t9,0x725b
  41d604:	28265d32 	slti	a2,at,23858
  41d608:	283c3c31 	slti	gp,at,15409
  41d60c:	32332572 	andi	s3,s1,0x2572
  41d610:	00292929 	0x292929
  41d614:	746f6e2f 	jalx	1bdb8bc <_end+0x17b5aa8>
  41d618:	756f662d 	jalx	5bd98b4 <_end+0x57b3aa0>
  41d61c:	0000646e 	0x646e
  41d620:	656c6966 	0x656c6966
  41d624:	65706f5f 	0x65706f5f
  41d628:	6e2f206e 	0x6e2f206e
  41d62c:	662d746f 	0x662d746f
  41d630:	646e756f 	0x646e756f
  41d634:	6525203a 	0x6525203a
  41d638:	00000000 	nop
  41d63c:	656c6966 	0x656c6966
  41d640:	65706f5f 	0x65706f5f
  41d644:	6e2f206e 	0x6e2f206e
  41d648:	662d746f 	0x662d746f
  41d64c:	646e756f 	0x646e756f
  41d650:	63757320 	0x63757320
  41d654:	64656563 	0x64656563
  41d658:	00216465 	0x216465
  41d65c:	77656e2f 	jalx	d95b8bc <_end+0xd535aa8>
  41d660:	64746f6d 	0x64746f6d
  41d664:	00000000 	nop
  41d668:	656c6966 	0x656c6966
  41d66c:	65706f5f 	0x65706f5f
  41d670:	6e2f206e 	0x6e2f206e
  41d674:	6f6d7765 	0x6f6d7765
  41d678:	203a6474 	addi	k0,at,25716
  41d67c:	00006425 	0x6425
  41d680:	656c6966 	0x656c6966
  41d684:	7465675f 	jalx	1959d7c <_end+0x1533f68>
  41d688:	6f6c625f 	0x6f6c625f
  41d68c:	203a6b63 	addi	k0,at,27491
  41d690:	00006525 	0x6525
  41d694:	73696854 	udi4	k1,t1,t5,0x1
  41d698:	20736920 	addi	s3,v1,26912
  41d69c:	20656874 	addi	a1,v1,26740
  41d6a0:	2057454e 	addi	s7,v0,17742
  41d6a4:	7373656d 	0x7373656d
  41d6a8:	20656761 	addi	a1,v1,26465
  41d6ac:	7420666f 	jalx	8199bc <_end+0x3f3ba8>
  41d6b0:	64206568 	0x64206568
  41d6b4:	0d217961 	jal	485e584 <_end+0x4438770>
  41d6b8:	000a0d0a 	0xa0d0a
  41d6bc:	656c6966 	0x656c6966
  41d6c0:	7465675f 	jalx	1959d7c <_end+0x1533f68>
  41d6c4:	6f6c625f 	0x6f6c625f
  41d6c8:	72206b63 	0x72206b63
  41d6cc:	72757465 	0x72757465
  41d6d0:	2064656e 	addi	a0,v1,25966
  41d6d4:	6e6f7277 	0x6e6f7277
  41d6d8:	61642067 	0x61642067
  41d6dc:	00006174 	teq	zero,zero,0x185
  41d6e0:	656c6966 	0x656c6966
  41d6e4:	7465735f 	jalx	195cd7c <_end+0x1536f68>
  41d6e8:	7a69735f 	0x7a69735f
  41d6ec:	25203a65 	addiu	zero,t1,14949
  41d6f0:	00000065 	0x65
  41d6f4:	663e2d66 	0x663e2d66
  41d6f8:	7269645f 	udi15	s3,t1,t4,0x11
  41d6fc:	5b746365 	0x5b746365
  41d700:	3d205d30 	0x3d205d30
  41d704:	0030203d 	0x30203d
  41d708:	656c6966 	0x656c6966
  41d70c:	7465735f 	jalx	195cd7c <_end+0x1536f68>
  41d710:	7a69735f 	0x7a69735f
  41d714:	3a322065 	xori	s2,s1,0x2065
  41d718:	00652520 	0x652520
  41d71c:	656c6966 	0x656c6966
  41d720:	7465675f 	jalx	1959d7c <_end+0x1533f68>
  41d724:	6f6c625f 	0x6f6c625f
  41d728:	32206b63 	andi	zero,s1,0x6b63
  41d72c:	6525203a 	0x6525203a
  41d730:	00000000 	nop
  41d734:	454c4449 	bc1any4f	$fcc3,42e85c <_end+0x8a48>
  41d738:	00000021 	move	zero,zero

Disassembly of section .data.stk:

0041d73c <KERNEL_STACK>:
	...

Disassembly of section .bss:

0042573c <cur_sched>:
  42573c:	00000000 	nop

00425740 <curenv>:
  425740:	00000000 	nop

00425744 <envs>:
  425744:	00000000 	nop

00425748 <next_env_id.1688>:
  425748:	00000000 	nop

0042574c <env_free_list>:
  42574c:	00000000 	nop

00425750 <buf>:
	...

00425b50 <cons>:
	...

00425d58 <CardType>:
  425d58:	00000000 	nop

00425d5c <page_free_list>:
  425d5c:	00000000 	nop

00425d60 <freemem>:
  425d60:	00000000 	nop

00425d64 <env>:
  425d64:	00000000 	nop

00425d68 <env_sched_list>:
	...

00425d70 <remaining_time>:
  425d70:	00000000 	nop

00425d74 <exception_handlers>:
	...

00425df4 <npage>:
  425df4:	00000000 	nop

00425df8 <boot_pgdir>:
  425df8:	00000000 	nop

00425dfc <maxpa>:
  425dfc:	00000000 	nop

00425e00 <basemem>:
  425e00:	00000000 	nop

00425e04 <extmem>:
  425e04:	00000000 	nop

00425e08 <bitmap>:
  425e08:	00000000 	nop

00425e0c <super>:
  425e0c:	00000000 	nop

00425e10 <nbitmap>:
  425e10:	00000000 	nop

Disassembly of section .pdr:

00000000 <.pdr>:
       0:	004000c0 	0x4000c0
	...
      18:	0000001d 	0x1d
      1c:	0000001f 	0x1f
      20:	004000dc 	0x4000dc
	...
      38:	0000001d 	0x1d
      3c:	0000001f 	0x1f
      40:	00400108 	0x400108
      44:	80000000 	lb	zero,0(zero)
      48:	fffffffc 	sdc3	$31,-4(ra)
	...
      54:	00000020 	add	zero,zero,zero
      58:	0000001d 	0x1d
      5c:	0000001f 	0x1f
      60:	00400144 	0x400144
      64:	80010000 	lb	at,0(zero)
      68:	fffffffc 	sdc3	$31,-4(ra)
	...
      74:	00000020 	add	zero,zero,zero
      78:	0000001d 	0x1d
      7c:	0000001f 	0x1f
      80:	004001a0 	0x4001a0
	...
      98:	0000001d 	0x1d
      9c:	0000001f 	0x1f
      a0:	0040021c 	0x40021c
	...
      b8:	0000001d 	0x1d
      bc:	0000001f 	0x1f
      c0:	0040032c 	0x40032c
	...
      d8:	0000001d 	0x1d
      dc:	0000001f 	0x1f
      e0:	004004d0 	0x4004d0
      e4:	807f0000 	lb	ra,0(v1)
      e8:	fffffffc 	sdc3	$31,-4(ra)
	...
      f4:	00000428 	0x428
      f8:	0000001d 	0x1d
      fc:	0000001f 	0x1f
     100:	00400a3c 	0x400a3c
     104:	80000000 	lb	zero,0(zero)
     108:	fffffffc 	sdc3	$31,-4(ra)
	...
     114:	00000018 	mult	zero,zero
     118:	0000001d 	0x1d
     11c:	0000001f 	0x1f
     120:	00400a58 	0x400a58
     124:	80070000 	lb	a3,0(zero)
     128:	fffffffc 	sdc3	$31,-4(ra)
	...
     134:	00000020 	add	zero,zero,zero
     138:	0000001d 	0x1d
     13c:	0000001f 	0x1f
     140:	00400abc 	0x400abc
	...
     158:	0000001d 	0x1d
     15c:	0000001f 	0x1f
     160:	00400b44 	0x400b44
     164:	80070000 	lb	a3,0(zero)
     168:	fffffffc 	sdc3	$31,-4(ra)
	...
     174:	00000028 	0x28
     178:	0000001d 	0x1d
     17c:	0000001f 	0x1f
     180:	00400c5c 	0x400c5c
	...
     198:	0000001d 	0x1d
     19c:	0000001f 	0x1f
     1a0:	00400c80 	0x400c80
     1a4:	c0ff0000 	ll	ra,0(a3)
     1a8:	fffffffc 	sdc3	$31,-4(ra)
	...
     1b4:	00000040 	ssnop
     1b8:	0000001d 	0x1d
     1bc:	0000001f 	0x1f
     1c0:	00400ed4 	0x400ed4
     1c4:	80000000 	lb	zero,0(zero)
     1c8:	fffffffc 	sdc3	$31,-4(ra)
	...
     1d4:	00000018 	mult	zero,zero
     1d8:	0000001d 	0x1d
     1dc:	0000001f 	0x1f
     1e0:	00400ef4 	teq	v0,zero,0x3b
     1e4:	80010000 	lb	at,0(zero)
     1e8:	fffffffc 	sdc3	$31,-4(ra)
	...
     1f4:	00000018 	mult	zero,zero
     1f8:	0000001d 	0x1d
     1fc:	0000001f 	0x1f
     200:	00400f70 	tge	v0,zero,0x3d
     204:	80000000 	lb	zero,0(zero)
     208:	fffffffc 	sdc3	$31,-4(ra)
	...
     214:	00000020 	add	zero,zero,zero
     218:	0000001d 	0x1d
     21c:	0000001f 	0x1f
     220:	00400fa0 	0x400fa0
     224:	80000000 	lb	zero,0(zero)
     228:	fffffffc 	sdc3	$31,-4(ra)
	...
     234:	00000020 	add	zero,zero,zero
     238:	0000001d 	0x1d
     23c:	0000001f 	0x1f
     240:	00400fd0 	0x400fd0
     244:	80000000 	lb	zero,0(zero)
     248:	fffffffc 	sdc3	$31,-4(ra)
	...
     254:	00000020 	add	zero,zero,zero
     258:	0000001d 	0x1d
     25c:	0000001f 	0x1f
     260:	00401000 	0x401000
     264:	80000000 	lb	zero,0(zero)
     268:	fffffffc 	sdc3	$31,-4(ra)
	...
     274:	00000020 	add	zero,zero,zero
     278:	0000001d 	0x1d
     27c:	0000001f 	0x1f
     280:	00401030 	tge	v0,zero,0x40
     284:	80000000 	lb	zero,0(zero)
     288:	fffffffc 	sdc3	$31,-4(ra)
	...
     294:	00000020 	add	zero,zero,zero
     298:	0000001d 	0x1d
     29c:	0000001f 	0x1f
     2a0:	00401060 	0x401060
     2a4:	80000000 	lb	zero,0(zero)
     2a8:	fffffffc 	sdc3	$31,-4(ra)
	...
     2b4:	00000020 	add	zero,zero,zero
     2b8:	0000001d 	0x1d
     2bc:	0000001f 	0x1f
     2c0:	00401090 	0x401090
     2c4:	80000000 	lb	zero,0(zero)
     2c8:	fffffffc 	sdc3	$31,-4(ra)
	...
     2d4:	00000020 	add	zero,zero,zero
     2d8:	0000001d 	0x1d
     2dc:	0000001f 	0x1f
     2e0:	004010c4 	0x4010c4
     2e4:	80000000 	lb	zero,0(zero)
     2e8:	fffffffc 	sdc3	$31,-4(ra)
	...
     2f4:	00000020 	add	zero,zero,zero
     2f8:	0000001d 	0x1d
     2fc:	0000001f 	0x1f
     300:	004010f4 	teq	v0,zero,0x43
     304:	80000000 	lb	zero,0(zero)
     308:	fffffffc 	sdc3	$31,-4(ra)
	...
     314:	00000020 	add	zero,zero,zero
     318:	0000001d 	0x1d
     31c:	0000001f 	0x1f
     320:	00401124 	0x401124
     324:	80000000 	lb	zero,0(zero)
     328:	fffffffc 	sdc3	$31,-4(ra)
	...
     334:	00000020 	add	zero,zero,zero
     338:	0000001d 	0x1d
     33c:	0000001f 	0x1f
     340:	00401154 	0x401154
     344:	80000000 	lb	zero,0(zero)
     348:	fffffffc 	sdc3	$31,-4(ra)
	...
     354:	00000020 	add	zero,zero,zero
     358:	0000001d 	0x1d
     35c:	0000001f 	0x1f
     360:	00401184 	0x401184
     364:	80000000 	lb	zero,0(zero)
     368:	fffffffc 	sdc3	$31,-4(ra)
	...
     374:	00000020 	add	zero,zero,zero
     378:	0000001d 	0x1d
     37c:	0000001f 	0x1f
     380:	004011b4 	teq	v0,zero,0x46
     384:	80000000 	lb	zero,0(zero)
     388:	fffffffc 	sdc3	$31,-4(ra)
	...
     394:	00000020 	add	zero,zero,zero
     398:	0000001d 	0x1d
     39c:	0000001f 	0x1f
     3a0:	004011e4 	0x4011e4
     3a4:	80000000 	lb	zero,0(zero)
     3a8:	fffffffc 	sdc3	$31,-4(ra)
	...
     3b4:	00000020 	add	zero,zero,zero
     3b8:	0000001d 	0x1d
     3bc:	0000001f 	0x1f
     3c0:	00401214 	0x401214
     3c4:	80000000 	lb	zero,0(zero)
     3c8:	fffffffc 	sdc3	$31,-4(ra)
	...
     3d4:	00000020 	add	zero,zero,zero
     3d8:	0000001d 	0x1d
     3dc:	0000001f 	0x1f
     3e0:	00401244 	0x401244
     3e4:	80000000 	lb	zero,0(zero)
     3e8:	fffffffc 	sdc3	$31,-4(ra)
	...
     3f4:	00000020 	add	zero,zero,zero
     3f8:	0000001d 	0x1d
     3fc:	0000001f 	0x1f
     400:	00401274 	teq	v0,zero,0x49
     404:	801f0000 	lb	ra,0(zero)
     408:	fffffffc 	sdc3	$31,-4(ra)
	...
     414:	00000028 	0x28
     418:	0000001d 	0x1d
     41c:	0000001f 	0x1f
     420:	0040130c 	syscall	0x1004c
     424:	80030000 	lb	v1,0(zero)
     428:	fffffffc 	sdc3	$31,-4(ra)
	...
     434:	00000020 	add	zero,zero,zero
     438:	0000001d 	0x1d
     43c:	0000001f 	0x1f
     440:	00401374 	teq	v0,zero,0x4d
     444:	80000000 	lb	zero,0(zero)
     448:	fffffffc 	sdc3	$31,-4(ra)
	...
     454:	00000018 	mult	zero,zero
     458:	0000001d 	0x1d
     45c:	0000001f 	0x1f
     460:	004013f8 	0x4013f8
	...
     478:	0000001d 	0x1d
     47c:	0000001f 	0x1f
     480:	004014a0 	0x4014a0
     484:	80000000 	lb	zero,0(zero)
     488:	fffffffc 	sdc3	$31,-4(ra)
	...
     494:	00000018 	mult	zero,zero
     498:	0000001d 	0x1d
     49c:	0000001f 	0x1f
     4a0:	004014c0 	0x4014c0
	...
     4b8:	0000001d 	0x1d
     4bc:	0000001f 	0x1f
     4c0:	00401518 	0x401518
	...
     4d8:	0000001d 	0x1d
     4dc:	0000001f 	0x1f
     4e0:	00401530 	tge	v0,zero,0x54
	...
     4f8:	0000001d 	0x1d
     4fc:	0000001f 	0x1f
     500:	00401540 	0x401540
	...
     518:	0000001d 	0x1d
     51c:	0000001f 	0x1f
     520:	00401554 	0x401554
     524:	80010000 	lb	at,0(zero)
     528:	fffffffc 	sdc3	$31,-4(ra)
	...
     534:	00000020 	add	zero,zero,zero
     538:	0000001d 	0x1d
     53c:	0000001f 	0x1f
     540:	004015b8 	0x4015b8
     544:	80030000 	lb	v1,0(zero)
     548:	fffffffc 	sdc3	$31,-4(ra)
	...
     554:	00000020 	add	zero,zero,zero
     558:	0000001d 	0x1d
     55c:	0000001f 	0x1f
     560:	004015f4 	teq	v0,zero,0x57
     564:	80ff0000 	lb	ra,0(a3)
     568:	fffffffc 	sdc3	$31,-4(ra)
	...
     574:	00000048 	0x48
     578:	0000001d 	0x1d
     57c:	0000001f 	0x1f
     580:	00401784 	0x401784
     584:	80070000 	lb	a3,0(zero)
     588:	fffffffc 	sdc3	$31,-4(ra)
	...
     594:	00000028 	0x28
     598:	0000001d 	0x1d
     59c:	0000001f 	0x1f
     5a0:	0040184c 	syscall	0x10061
     5a4:	800f0000 	lb	t7,0(zero)
     5a8:	fffffffc 	sdc3	$31,-4(ra)
	...
     5b4:	00000028 	0x28
     5b8:	0000001d 	0x1d
     5bc:	0000001f 	0x1f
     5c0:	004018dc 	0x4018dc
     5c4:	80070000 	lb	a3,0(zero)
     5c8:	fffffffc 	sdc3	$31,-4(ra)
	...
     5d4:	00000028 	0x28
     5d8:	0000001d 	0x1d
     5dc:	0000001f 	0x1f
     5e0:	00401998 	0x401998
     5e4:	80010000 	lb	at,0(zero)
     5e8:	fffffffc 	sdc3	$31,-4(ra)
	...
     5f4:	00000020 	add	zero,zero,zero
     5f8:	0000001d 	0x1d
     5fc:	0000001f 	0x1f
     600:	004019d4 	0x4019d4
     604:	80010000 	lb	at,0(zero)
     608:	fffffffc 	sdc3	$31,-4(ra)
	...
     614:	00000020 	add	zero,zero,zero
     618:	0000001d 	0x1d
     61c:	0000001f 	0x1f
     620:	00401a38 	0x401a38
     624:	80030000 	lb	v1,0(zero)
     628:	fffffffc 	sdc3	$31,-4(ra)
	...
     634:	00000020 	add	zero,zero,zero
     638:	0000001d 	0x1d
     63c:	0000001f 	0x1f
     640:	00401a90 	0x401a90
	...
     658:	0000001d 	0x1d
     65c:	0000001f 	0x1f
     660:	00401b00 	0x401b00
     664:	80030000 	lb	v1,0(zero)
     668:	fffffffc 	sdc3	$31,-4(ra)
	...
     674:	00000020 	add	zero,zero,zero
     678:	0000001d 	0x1d
     67c:	0000001f 	0x1f
     680:	00401b54 	0x401b54
     684:	800f0000 	lb	t7,0(zero)
     688:	fffffffc 	sdc3	$31,-4(ra)
	...
     694:	00000028 	0x28
     698:	0000001d 	0x1d
     69c:	0000001f 	0x1f
     6a0:	00401c38 	0x401c38
     6a4:	80070000 	lb	a3,0(zero)
     6a8:	fffffffc 	sdc3	$31,-4(ra)
	...
     6b4:	00000020 	add	zero,zero,zero
     6b8:	0000001d 	0x1d
     6bc:	0000001f 	0x1f
     6c0:	00401ca8 	0x401ca8
     6c4:	800f0000 	lb	t7,0(zero)
     6c8:	fffffffc 	sdc3	$31,-4(ra)
	...
     6d4:	00000030 	tge	zero,zero
     6d8:	0000001d 	0x1d
     6dc:	0000001f 	0x1f
     6e0:	00401d54 	0x401d54
     6e4:	80030000 	lb	v1,0(zero)
     6e8:	fffffffc 	sdc3	$31,-4(ra)
	...
     6f4:	00000028 	0x28
     6f8:	0000001d 	0x1d
     6fc:	0000001f 	0x1f
     700:	00401e1c 	0x401e1c
     704:	80ff0000 	lb	ra,0(a3)
     708:	fffffffc 	sdc3	$31,-4(ra)
	...
     714:	00000048 	0x48
     718:	0000001d 	0x1d
     71c:	0000001f 	0x1f
     720:	00401fa0 	0x401fa0
     724:	801f0000 	lb	ra,0(zero)
     728:	fffffffc 	sdc3	$31,-4(ra)
	...
     734:	00000028 	0x28
     738:	0000001d 	0x1d
     73c:	0000001f 	0x1f
     740:	0040204c 	syscall	0x10081
     744:	80000000 	lb	zero,0(zero)
     748:	fffffffc 	sdc3	$31,-4(ra)
	...
     754:	00000018 	mult	zero,zero
     758:	0000001d 	0x1d
     75c:	0000001f 	0x1f
     760:	00402068 	0x402068
     764:	80000000 	lb	zero,0(zero)
     768:	fffffffc 	sdc3	$31,-4(ra)
	...
     774:	00000018 	mult	zero,zero
     778:	0000001d 	0x1d
     77c:	0000001f 	0x1f
     780:	00402084 	0x402084
	...
     798:	0000001d 	0x1d
     79c:	0000001f 	0x1f
     7a0:	0040208c 	syscall	0x10082
     7a4:	80010000 	lb	at,0(zero)
     7a8:	fffffffc 	sdc3	$31,-4(ra)
	...
     7b4:	00000018 	mult	zero,zero
     7b8:	0000001d 	0x1d
     7bc:	0000001f 	0x1f
     7c0:	004020d0 	0x4020d0
     7c4:	801f0000 	lb	ra,0(zero)
     7c8:	fffffffc 	sdc3	$31,-4(ra)
	...
     7d4:	00000028 	0x28
     7d8:	0000001d 	0x1d
     7dc:	0000001f 	0x1f
     7e0:	0040214c 	syscall	0x10085
     7e4:	801f0000 	lb	ra,0(zero)
     7e8:	fffffffc 	sdc3	$31,-4(ra)
	...
     7f4:	00000028 	0x28
     7f8:	0000001d 	0x1d
     7fc:	0000001f 	0x1f
     800:	00402204 	0x402204
     804:	801f0000 	lb	ra,0(zero)
     808:	fffffffc 	sdc3	$31,-4(ra)
	...
     814:	00000028 	0x28
     818:	0000001d 	0x1d
     81c:	0000001f 	0x1f
     820:	004022cc 	syscall	0x1008b
     824:	80070000 	lb	a3,0(zero)
     828:	fffffffc 	sdc3	$31,-4(ra)
	...
     834:	00000030 	tge	zero,zero
     838:	0000001d 	0x1d
     83c:	0000001f 	0x1f
     840:	00402444 	0x402444
     844:	80000000 	lb	zero,0(zero)
     848:	fffffffc 	sdc3	$31,-4(ra)
	...
     854:	00000020 	add	zero,zero,zero
     858:	0000001d 	0x1d
     85c:	0000001f 	0x1f
     860:	0040247c 	0x40247c
     864:	80030000 	lb	v1,0(zero)
     868:	fffffffc 	sdc3	$31,-4(ra)
	...
     874:	00000028 	0x28
     878:	0000001d 	0x1d
     87c:	0000001f 	0x1f
     880:	004024d4 	0x4024d4
     884:	80070000 	lb	a3,0(zero)
     888:	fffffffc 	sdc3	$31,-4(ra)
	...
     894:	00000028 	0x28
     898:	0000001d 	0x1d
     89c:	0000001f 	0x1f
     8a0:	0040254c 	syscall	0x10095
     8a4:	80010000 	lb	at,0(zero)
     8a8:	fffffffc 	sdc3	$31,-4(ra)
	...
     8b4:	00000028 	0x28
     8b8:	0000001d 	0x1d
     8bc:	0000001f 	0x1f
     8c0:	004025cc 	syscall	0x10097
     8c4:	80000000 	lb	zero,0(zero)
     8c8:	fffffffc 	sdc3	$31,-4(ra)
	...
     8d4:	00000018 	mult	zero,zero
     8d8:	0000001d 	0x1d
     8dc:	0000001f 	0x1f
     8e0:	0040260c 	syscall	0x10098
     8e4:	80000000 	lb	zero,0(zero)
     8e8:	fffffffc 	sdc3	$31,-4(ra)
	...
     8f4:	00000018 	mult	zero,zero
     8f8:	0000001d 	0x1d
     8fc:	0000001f 	0x1f
     900:	00402640 	0x402640
     904:	80000000 	lb	zero,0(zero)
     908:	fffffffc 	sdc3	$31,-4(ra)
	...
     914:	00000018 	mult	zero,zero
     918:	0000001d 	0x1d
     91c:	0000001f 	0x1f
     920:	00402680 	0x402680
     924:	80010000 	lb	at,0(zero)
     928:	fffffffc 	sdc3	$31,-4(ra)
	...
     934:	00000018 	mult	zero,zero
     938:	0000001d 	0x1d
     93c:	0000001f 	0x1f
     940:	004026d8 	0x4026d8
     944:	80000000 	lb	zero,0(zero)
     948:	fffffffc 	sdc3	$31,-4(ra)
	...
     954:	00000018 	mult	zero,zero
     958:	0000001d 	0x1d
     95c:	0000001f 	0x1f
     960:	00402704 	0x402704
     964:	80030000 	lb	v1,0(zero)
     968:	fffffffc 	sdc3	$31,-4(ra)
	...
     974:	00000020 	add	zero,zero,zero
     978:	0000001d 	0x1d
     97c:	0000001f 	0x1f
     980:	00402780 	0x402780
     984:	c0ff0000 	ll	ra,0(a3)
     988:	fffffffc 	sdc3	$31,-4(ra)
	...
     994:	00000050 	0x50
     998:	0000001d 	0x1d
     99c:	0000001f 	0x1f
     9a0:	004029f8 	0x4029f8
	...
     9b8:	0000001d 	0x1d
     9bc:	0000001f 	0x1f
     9c0:	00402a10 	0x402a10
	...
     9d8:	0000001d 	0x1d
     9dc:	0000001f 	0x1f
     9e0:	00402a18 	0x402a18
     9e4:	c0ff0000 	ll	ra,0(a3)
     9e8:	fffffffc 	sdc3	$31,-4(ra)
	...
     9f4:	00000048 	0x48
     9f8:	0000001d 	0x1d
     9fc:	0000001f 	0x1f
     a00:	00402be8 	0x402be8
     a04:	c0ff0000 	ll	ra,0(a3)
     a08:	fffffffc 	sdc3	$31,-4(ra)
	...
     a14:	00000050 	0x50
     a18:	0000001d 	0x1d
     a1c:	0000001f 	0x1f
     a20:	00402dfc 	0x402dfc
     a24:	80000000 	lb	zero,0(zero)
     a28:	fffffffc 	sdc3	$31,-4(ra)
	...
     a34:	00000018 	mult	zero,zero
     a38:	0000001d 	0x1d
     a3c:	0000001f 	0x1f
     a40:	00402e24 	0x402e24
	...
     a58:	0000001d 	0x1d
     a5c:	0000001f 	0x1f
     a60:	00402e2c 	0x402e2c
	...
     a78:	0000001d 	0x1d
     a7c:	0000001f 	0x1f
     a80:	00402e60 	0x402e60
     a84:	803f0000 	lb	ra,0(at)
     a88:	fffffffc 	sdc3	$31,-4(ra)
	...
     a94:	000000b0 	tge	zero,zero,0x2
     a98:	0000001d 	0x1d
     a9c:	0000001f 	0x1f
     aa0:	00402f14 	0x402f14
     aa4:	80030000 	lb	v1,0(zero)
     aa8:	fffffffc 	sdc3	$31,-4(ra)
	...
     ab4:	00000020 	add	zero,zero,zero
     ab8:	0000001d 	0x1d
     abc:	0000001f 	0x1f
     ac0:	00402fac 	0x402fac
     ac4:	80000000 	lb	zero,0(zero)
     ac8:	fffffffc 	sdc3	$31,-4(ra)
	...
     ad4:	00000020 	add	zero,zero,zero
     ad8:	0000001d 	0x1d
     adc:	0000001f 	0x1f
     ae0:	00403004 	sllv	a2,zero,v0
	...
     af8:	0000001d 	0x1d
     afc:	0000001f 	0x1f
     b00:	0040304c 	syscall	0x100c1
     b04:	80010000 	lb	at,0(zero)
     b08:	fffffffc 	sdc3	$31,-4(ra)
	...
     b14:	00000220 	0x220
     b18:	0000001d 	0x1d
     b1c:	0000001f 	0x1f
     b20:	004030c0 	0x4030c0
     b24:	c0ff0000 	ll	ra,0(a3)
     b28:	fffffffc 	sdc3	$31,-4(ra)
	...
     b34:	00000048 	0x48
     b38:	0000001d 	0x1d
     b3c:	0000001f 	0x1f
     b40:	004032a4 	0x4032a4
	...
     b58:	0000001d 	0x1d
     b5c:	0000001f 	0x1f
     b60:	004032dc 	0x4032dc
	...
     b78:	0000001d 	0x1d
     b7c:	0000001f 	0x1f
     b80:	00403374 	teq	v0,zero,0xcd
	...
     b98:	0000001d 	0x1d
     b9c:	0000001f 	0x1f
     ba0:	004033f4 	teq	v0,zero,0xcf
     ba4:	80070000 	lb	a3,0(zero)
     ba8:	fffffffc 	sdc3	$31,-4(ra)
	...
     bb4:	00000028 	0x28
     bb8:	0000001d 	0x1d
     bbc:	0000001f 	0x1f
     bc0:	0040355c 	0x40355c
     bc4:	800f0000 	lb	t7,0(zero)
     bc8:	fffffffc 	sdc3	$31,-4(ra)
	...
     bd4:	00000040 	ssnop
     bd8:	0000001d 	0x1d
     bdc:	0000001f 	0x1f
     be0:	0040366c 	0x40366c
     be4:	80000000 	lb	zero,0(zero)
     be8:	fffffffc 	sdc3	$31,-4(ra)
	...
     bf4:	00000018 	mult	zero,zero
     bf8:	0000001d 	0x1d
     bfc:	0000001f 	0x1f
     c00:	00403688 	0x403688
     c04:	c0ff0000 	ll	ra,0(a3)
     c08:	fffffffc 	sdc3	$31,-4(ra)
	...
     c14:	00000040 	ssnop
     c18:	0000001d 	0x1d
     c1c:	0000001f 	0x1f
     c20:	00403844 	0x403844
     c24:	80010000 	lb	at,0(zero)
     c28:	fffffffc 	sdc3	$31,-4(ra)
	...
     c34:	00000018 	mult	zero,zero
     c38:	0000001d 	0x1d
     c3c:	0000001f 	0x1f
     c40:	004038b8 	0x4038b8
     c44:	80030000 	lb	v1,0(zero)
     c48:	fffffffc 	sdc3	$31,-4(ra)
	...
     c54:	00000020 	add	zero,zero,zero
     c58:	0000001d 	0x1d
     c5c:	0000001f 	0x1f
     c60:	00403944 	0x403944
     c64:	80010000 	lb	at,0(zero)
     c68:	fffffffc 	sdc3	$31,-4(ra)
	...
     c74:	00000028 	0x28
     c78:	0000001d 	0x1d
     c7c:	0000001f 	0x1f
     c80:	00403d8c 	syscall	0x100f6
	...
     c98:	0000001d 	0x1d
     c9c:	0000001f 	0x1f
     ca0:	00403d94 	0x403d94
     ca4:	80000000 	lb	zero,0(zero)
     ca8:	fffffffc 	sdc3	$31,-4(ra)
	...
     cb4:	00000018 	mult	zero,zero
     cb8:	0000001d 	0x1d
     cbc:	0000001f 	0x1f
     cc0:	00403db0 	tge	v0,zero,0xf6
	...
     cd8:	0000001d 	0x1d
     cdc:	0000001f 	0x1f
     ce0:	00403dc8 	0x403dc8
     ce4:	c0ff0000 	ll	ra,0(a3)
     ce8:	fffffffc 	sdc3	$31,-4(ra)
	...
     cf4:	00000048 	0x48
     cf8:	0000001d 	0x1d
     cfc:	0000001f 	0x1f
     d00:	00403f1c 	0x403f1c
	...
     d18:	0000001d 	0x1d
     d1c:	0000001f 	0x1f
     d20:	00403f98 	0x403f98
	...
     d38:	0000001d 	0x1d
     d3c:	0000001f 	0x1f
     d40:	004040a8 	0x4040a8
	...
     d58:	0000001d 	0x1d
     d5c:	0000001f 	0x1f
     d60:	0040424c 	syscall	0x10109
     d64:	807f0000 	lb	ra,0(v1)
     d68:	fffffffc 	sdc3	$31,-4(ra)
	...
     d74:	00000428 	0x428
     d78:	0000001d 	0x1d
     d7c:	0000001f 	0x1f
     d80:	00404834 	teq	v0,zero,0x120
     d84:	80070000 	lb	a3,0(zero)
     d88:	fffffffc 	sdc3	$31,-4(ra)
	...
     d94:	00000020 	add	zero,zero,zero
     d98:	0000001d 	0x1d
     d9c:	0000001f 	0x1f
     da0:	004048ac 	0x4048ac
     da4:	80010000 	lb	at,0(zero)
     da8:	fffffffc 	sdc3	$31,-4(ra)
	...
     db4:	00000020 	add	zero,zero,zero
     db8:	0000001d 	0x1d
     dbc:	0000001f 	0x1f
     dc0:	004048fc 	0x4048fc
     dc4:	80010000 	lb	at,0(zero)
     dc8:	fffffffc 	sdc3	$31,-4(ra)
	...
     dd4:	00000020 	add	zero,zero,zero
     dd8:	0000001d 	0x1d
     ddc:	0000001f 	0x1f
     de0:	00404958 	0x404958
     de4:	807f0000 	lb	ra,0(v1)
     de8:	fffffffc 	sdc3	$31,-4(ra)
	...
     df4:	00000030 	tge	zero,zero
     df8:	0000001d 	0x1d
     dfc:	0000001f 	0x1f
     e00:	00404aa8 	0x404aa8
     e04:	80000000 	lb	zero,0(zero)
     e08:	fffffffc 	sdc3	$31,-4(ra)
	...
     e14:	00000018 	mult	zero,zero
     e18:	0000001d 	0x1d
     e1c:	0000001f 	0x1f
     e20:	00404bb4 	teq	v0,zero,0x12e
	...
     e38:	0000001d 	0x1d
     e3c:	0000001f 	0x1f
     e40:	00404be4 	0x404be4
	...
     e58:	0000001d 	0x1d
     e5c:	0000001f 	0x1f
     e60:	00404c30 	tge	v0,zero,0x130
	...
     e78:	0000001d 	0x1d
     e7c:	0000001f 	0x1f
     e80:	00404c54 	0x404c54
     e84:	80030000 	lb	v1,0(zero)
     e88:	fffffffc 	sdc3	$31,-4(ra)
	...
     e94:	00000020 	add	zero,zero,zero
     e98:	0000001d 	0x1d
     e9c:	0000001f 	0x1f
     ea0:	00404c94 	0x404c94
	...
     eb8:	0000001d 	0x1d
     ebc:	0000001f 	0x1f
     ec0:	00404cc8 	0x404cc8
	...
     ed8:	0000001d 	0x1d
     edc:	0000001f 	0x1f
     ee0:	00404d1c 	0x404d1c
	...
     ef8:	0000001d 	0x1d
     efc:	0000001f 	0x1f
     f00:	00404d58 	0x404d58
	...
     f18:	0000001d 	0x1d
     f1c:	0000001f 	0x1f
     f20:	00404db8 	0x404db8
	...
     f38:	0000001d 	0x1d
     f3c:	0000001f 	0x1f
     f40:	00404e04 	0x404e04
	...
     f58:	0000001d 	0x1d
     f5c:	0000001f 	0x1f
     f60:	00404e40 	0x404e40
	...
     f78:	0000001d 	0x1d
     f7c:	0000001f 	0x1f
     f80:	00404e68 	0x404e68
	...
     f98:	0000001d 	0x1d
     f9c:	0000001f 	0x1f
     fa0:	00404ed4 	0x404ed4
     fa4:	80000000 	lb	zero,0(zero)
     fa8:	fffffffc 	sdc3	$31,-4(ra)
	...
     fb4:	00000018 	mult	zero,zero
     fb8:	0000001d 	0x1d
     fbc:	0000001f 	0x1f
     fc0:	00404ef0 	tge	v0,zero,0x13b
	...
     fd8:	0000001d 	0x1d
     fdc:	0000001f 	0x1f
     fe0:	00404f3c 	0x404f3c
	...
     ff8:	0000001d 	0x1d
     ffc:	0000001f 	0x1f
    1000:	00404f84 	0x404f84
	...
    1018:	0000001d 	0x1d
    101c:	0000001f 	0x1f
    1020:	00405090 	0x405090
    1024:	80000000 	lb	zero,0(zero)
    1028:	fffffffc 	sdc3	$31,-4(ra)
	...
    1034:	00000018 	mult	zero,zero
    1038:	0000001d 	0x1d
    103c:	0000001f 	0x1f
    1040:	004050ac 	0x4050ac
	...
    1058:	0000001d 	0x1d
    105c:	0000001f 	0x1f
    1060:	004050bc 	0x4050bc
    1064:	80000000 	lb	zero,0(zero)
    1068:	fffffffc 	sdc3	$31,-4(ra)
	...
    1074:	00000018 	mult	zero,zero
    1078:	0000001d 	0x1d
    107c:	0000001f 	0x1f
    1080:	004050f8 	0x4050f8
    1084:	80000000 	lb	zero,0(zero)
    1088:	fffffffc 	sdc3	$31,-4(ra)
	...
    1094:	00000020 	add	zero,zero,zero
    1098:	0000001d 	0x1d
    109c:	0000001f 	0x1f
    10a0:	0040514c 	syscall	0x10145
    10a4:	80030000 	lb	v1,0(zero)
    10a8:	fffffffc 	sdc3	$31,-4(ra)
	...
    10b4:	00000028 	0x28
    10b8:	0000001d 	0x1d
    10bc:	0000001f 	0x1f
    10c0:	004051b0 	tge	v0,zero,0x146
    10c4:	80070000 	lb	a3,0(zero)
    10c8:	fffffffc 	sdc3	$31,-4(ra)
	...
    10d4:	00000028 	0x28
    10d8:	0000001d 	0x1d
    10dc:	0000001f 	0x1f
    10e0:	004052a8 	0x4052a8
    10e4:	803f0000 	lb	ra,0(at)
    10e8:	fffffffc 	sdc3	$31,-4(ra)
	...
    10f4:	00000040 	ssnop
    10f8:	0000001d 	0x1d
    10fc:	0000001f 	0x1f
    1100:	00405404 	0x405404
    1104:	80030000 	lb	v1,0(zero)
    1108:	fffffffc 	sdc3	$31,-4(ra)
	...
    1114:	00000028 	0x28
    1118:	0000001d 	0x1d
    111c:	0000001f 	0x1f
    1120:	0040548c 	syscall	0x10152
    1124:	80010000 	lb	at,0(zero)
    1128:	fffffffc 	sdc3	$31,-4(ra)
	...
    1134:	00000020 	add	zero,zero,zero
    1138:	0000001d 	0x1d
    113c:	0000001f 	0x1f
    1140:	00405520 	0x405520
    1144:	80010000 	lb	at,0(zero)
    1148:	fffffffc 	sdc3	$31,-4(ra)
	...
    1154:	00000020 	add	zero,zero,zero
    1158:	0000001d 	0x1d
    115c:	0000001f 	0x1f
    1160:	00405624 	0x405624
    1164:	80010000 	lb	at,0(zero)
    1168:	fffffffc 	sdc3	$31,-4(ra)
	...
    1174:	00000020 	add	zero,zero,zero
    1178:	0000001d 	0x1d
    117c:	0000001f 	0x1f
    1180:	004056ac 	0x4056ac
    1184:	80000000 	lb	zero,0(zero)
    1188:	fffffffc 	sdc3	$31,-4(ra)
	...
    1194:	00000018 	mult	zero,zero
    1198:	0000001d 	0x1d
    119c:	0000001f 	0x1f
    11a0:	004056e0 	0x4056e0
    11a4:	80000000 	lb	zero,0(zero)
    11a8:	fffffffc 	sdc3	$31,-4(ra)
	...
    11b4:	00000018 	mult	zero,zero
    11b8:	0000001d 	0x1d
    11bc:	0000001f 	0x1f
    11c0:	00405778 	0x405778
    11c4:	80030000 	lb	v1,0(zero)
    11c8:	fffffffc 	sdc3	$31,-4(ra)
	...
    11d4:	00000028 	0x28
    11d8:	0000001d 	0x1d
    11dc:	0000001f 	0x1f
    11e0:	004058f0 	tge	v0,zero,0x163
    11e4:	80000000 	lb	zero,0(zero)
    11e8:	fffffffc 	sdc3	$31,-4(ra)
	...
    11f4:	00000018 	mult	zero,zero
    11f8:	0000001d 	0x1d
    11fc:	0000001f 	0x1f
    1200:	00405998 	0x405998
    1204:	80000000 	lb	zero,0(zero)
    1208:	fffffffc 	sdc3	$31,-4(ra)
	...
    1214:	00000018 	mult	zero,zero
    1218:	0000001d 	0x1d
    121c:	0000001f 	0x1f
    1220:	00405a3c 	0x405a3c
	...
    1238:	0000001d 	0x1d
    123c:	0000001f 	0x1f
    1240:	00405aa4 	0x405aa4
	...
    1258:	0000001d 	0x1d
    125c:	0000001f 	0x1f
    1260:	00405ac0 	0x405ac0
	...
    1274:	000000a0 	0xa0
    1278:	0000001d 	0x1d
    127c:	0000001f 	0x1f
    1280:	00405c5c 	0x405c5c
	...
    1298:	0000001d 	0x1d
    129c:	0000001f 	0x1f
    12a0:	00405c6c 	0x405c6c
	...
    12b4:	00000008 	jr	zero
    12b8:	0000001d 	0x1d
    12bc:	0000001f 	0x1f
    12c0:	00405cb8 	0x405cb8
    12c4:	80000000 	lb	zero,0(zero)
    12c8:	fffffffc 	sdc3	$31,-4(ra)
	...
    12d4:	00000020 	add	zero,zero,zero
    12d8:	0000001d 	0x1d
    12dc:	0000001f 	0x1f
    12e0:	00405d30 	tge	v0,zero,0x174
    12e4:	80000000 	lb	zero,0(zero)
    12e8:	fffffffc 	sdc3	$31,-4(ra)
	...
    12f4:	00000020 	add	zero,zero,zero
    12f8:	0000001d 	0x1d
    12fc:	0000001f 	0x1f
    1300:	00405da8 	0x405da8
    1304:	80000000 	lb	zero,0(zero)
    1308:	fffffffc 	sdc3	$31,-4(ra)
	...
    1314:	00000020 	add	zero,zero,zero
    1318:	0000001d 	0x1d
    131c:	0000001f 	0x1f
    1320:	00405e20 	0x405e20
    1324:	80000000 	lb	zero,0(zero)
    1328:	fffffffc 	sdc3	$31,-4(ra)
	...
    1334:	00000020 	add	zero,zero,zero
    1338:	0000001d 	0x1d
    133c:	0000001f 	0x1f
    1340:	00405e98 	0x405e98
    1344:	80000000 	lb	zero,0(zero)
    1348:	fffffffc 	sdc3	$31,-4(ra)
	...
    1354:	00000020 	add	zero,zero,zero
    1358:	0000001d 	0x1d
    135c:	0000001f 	0x1f
    1360:	00405f10 	0x405f10
    1364:	80000000 	lb	zero,0(zero)
    1368:	fffffffc 	sdc3	$31,-4(ra)
	...
    1374:	00000020 	add	zero,zero,zero
    1378:	0000001d 	0x1d
    137c:	0000001f 	0x1f
    1380:	00405f88 	0x405f88
    1384:	80000000 	lb	zero,0(zero)
    1388:	fffffffc 	sdc3	$31,-4(ra)
	...
    1394:	00000020 	add	zero,zero,zero
    1398:	0000001d 	0x1d
    139c:	0000001f 	0x1f
    13a0:	00406000 	0x406000
    13a4:	80000000 	lb	zero,0(zero)
    13a8:	fffffffc 	sdc3	$31,-4(ra)
	...
    13b4:	00000020 	add	zero,zero,zero
    13b8:	0000001d 	0x1d
    13bc:	0000001f 	0x1f
    13c0:	00406078 	0x406078
    13c4:	80000000 	lb	zero,0(zero)
    13c8:	fffffffc 	sdc3	$31,-4(ra)
	...
    13d4:	00000018 	mult	zero,zero
    13d8:	0000001d 	0x1d
    13dc:	0000001f 	0x1f
    13e0:	0040612c 	0x40612c
    13e4:	80000000 	lb	zero,0(zero)
    13e8:	fffffffc 	sdc3	$31,-4(ra)
	...
    13f4:	00000018 	mult	zero,zero
    13f8:	0000001d 	0x1d
    13fc:	0000001f 	0x1f
    1400:	00406188 	0x406188
    1404:	80000000 	lb	zero,0(zero)
    1408:	fffffffc 	sdc3	$31,-4(ra)
	...
    1414:	00000018 	mult	zero,zero
    1418:	0000001d 	0x1d
    141c:	0000001f 	0x1f
    1420:	00406244 	0x406244
    1424:	80000000 	lb	zero,0(zero)
    1428:	fffffffc 	sdc3	$31,-4(ra)
	...
    1434:	00000018 	mult	zero,zero
    1438:	0000001d 	0x1d
    143c:	0000001f 	0x1f
    1440:	00406278 	0x406278
    1444:	80010000 	lb	at,0(zero)
    1448:	fffffffc 	sdc3	$31,-4(ra)
	...
    1454:	00000018 	mult	zero,zero
    1458:	0000001d 	0x1d
    145c:	0000001f 	0x1f
    1460:	004062b8 	0x4062b8
    1464:	80070000 	lb	a3,0(zero)
    1468:	fffffffc 	sdc3	$31,-4(ra)
	...
    1474:	00000020 	add	zero,zero,zero
    1478:	0000001d 	0x1d
    147c:	0000001f 	0x1f
    1480:	00406328 	0x406328
    1484:	80000000 	lb	zero,0(zero)
    1488:	fffffffc 	sdc3	$31,-4(ra)
	...
    1494:	00000018 	mult	zero,zero
    1498:	0000001d 	0x1d
    149c:	0000001f 	0x1f
    14a0:	0040638c 	syscall	0x1018e
    14a4:	80000000 	lb	zero,0(zero)
    14a8:	fffffffc 	sdc3	$31,-4(ra)
	...
    14b4:	00000018 	mult	zero,zero
    14b8:	0000001d 	0x1d
    14bc:	0000001f 	0x1f
    14c0:	004063a8 	0x4063a8
    14c4:	80000000 	lb	zero,0(zero)
    14c8:	fffffffc 	sdc3	$31,-4(ra)
	...
    14d4:	00000018 	mult	zero,zero
    14d8:	0000001d 	0x1d
    14dc:	0000001f 	0x1f
    14e0:	004063e4 	0x4063e4
    14e4:	80000000 	lb	zero,0(zero)
    14e8:	fffffffc 	sdc3	$31,-4(ra)
	...
    14f4:	00000018 	mult	zero,zero
    14f8:	0000001d 	0x1d
    14fc:	0000001f 	0x1f
    1500:	00406404 	0x406404
	...
    1518:	0000001d 	0x1d
    151c:	0000001f 	0x1f
    1520:	0040640c 	syscall	0x10190
    1524:	80000000 	lb	zero,0(zero)
    1528:	fffffffc 	sdc3	$31,-4(ra)
	...
    1534:	00000018 	mult	zero,zero
    1538:	0000001d 	0x1d
    153c:	0000001f 	0x1f
    1540:	00406428 	0x406428
    1544:	80030000 	lb	v1,0(zero)
    1548:	fffffffc 	sdc3	$31,-4(ra)
	...
    1554:	00000020 	add	zero,zero,zero
    1558:	0000001d 	0x1d
    155c:	0000001f 	0x1f
    1560:	00406498 	0x406498
    1564:	80000000 	lb	zero,0(zero)
    1568:	fffffffc 	sdc3	$31,-4(ra)
	...
    1574:	00000018 	mult	zero,zero
    1578:	0000001d 	0x1d
    157c:	0000001f 	0x1f
    1580:	004064b4 	teq	v0,zero,0x192
    1584:	80010000 	lb	at,0(zero)
    1588:	fffffffc 	sdc3	$31,-4(ra)
	...
    1594:	00000018 	mult	zero,zero
    1598:	0000001d 	0x1d
    159c:	0000001f 	0x1f
    15a0:	004064fc 	0x4064fc
    15a4:	80070000 	lb	a3,0(zero)
    15a8:	fffffffc 	sdc3	$31,-4(ra)
	...
    15b4:	00000020 	add	zero,zero,zero
    15b8:	0000001d 	0x1d
    15bc:	0000001f 	0x1f
    15c0:	00406684 	0x406684
    15c4:	800f0000 	lb	t7,0(zero)
    15c8:	fffffffc 	sdc3	$31,-4(ra)
	...
    15d4:	00000028 	0x28
    15d8:	0000001d 	0x1d
    15dc:	0000001f 	0x1f
    15e0:	00406760 	0x406760
    15e4:	800f0000 	lb	t7,0(zero)
    15e8:	fffffffc 	sdc3	$31,-4(ra)
	...
    15f4:	00000028 	0x28
    15f8:	0000001d 	0x1d
    15fc:	0000001f 	0x1f
    1600:	0040684c 	syscall	0x101a1
    1604:	801f0000 	lb	ra,0(zero)
    1608:	fffffffc 	sdc3	$31,-4(ra)
	...
    1614:	00000030 	tge	zero,zero
    1618:	0000001d 	0x1d
    161c:	0000001f 	0x1f
    1620:	00406ad0 	0x406ad0
	...
    1638:	0000001d 	0x1d
    163c:	0000001f 	0x1f
    1640:	00406aec 	0x406aec
    1644:	80070000 	lb	a3,0(zero)
    1648:	fffffffc 	sdc3	$31,-4(ra)
	...
    1654:	00000020 	add	zero,zero,zero
    1658:	0000001d 	0x1d
    165c:	0000001f 	0x1f
    1660:	00406bc4 	0x406bc4
    1664:	80070000 	lb	a3,0(zero)
    1668:	fffffffc 	sdc3	$31,-4(ra)
	...
    1674:	00000020 	add	zero,zero,zero
    1678:	0000001d 	0x1d
    167c:	0000001f 	0x1f
    1680:	00406cf0 	tge	v0,zero,0x1b3
    1684:	80030000 	lb	v1,0(zero)
    1688:	fffffffc 	sdc3	$31,-4(ra)
	...
    1694:	00000030 	tge	zero,zero
    1698:	0000001d 	0x1d
    169c:	0000001f 	0x1f
    16a0:	00407044 	0x407044
	...
    16b8:	0000001d 	0x1d
    16bc:	0000001f 	0x1f
    16c0:	00407054 	0x407054
    16c4:	80030000 	lb	v1,0(zero)
    16c8:	fffffffc 	sdc3	$31,-4(ra)
	...
    16d4:	00000020 	add	zero,zero,zero
    16d8:	0000001d 	0x1d
    16dc:	0000001f 	0x1f
    16e0:	004071a4 	0x4071a4
    16e4:	80030000 	lb	v1,0(zero)
    16e8:	fffffffc 	sdc3	$31,-4(ra)
	...
    16f4:	00000020 	add	zero,zero,zero
    16f8:	0000001d 	0x1d
    16fc:	0000001f 	0x1f
    1700:	00407244 	0x407244
	...
    1718:	0000001d 	0x1d
    171c:	0000001f 	0x1f
    1720:	0040726c 	0x40726c
	...
    1738:	0000001d 	0x1d
    173c:	0000001f 	0x1f
    1740:	004072c0 	0x4072c0
	...
    1758:	0000001d 	0x1d
    175c:	0000001f 	0x1f
    1760:	00407338 	0x407338
	...
    1778:	0000001d 	0x1d
    177c:	0000001f 	0x1f
    1780:	00407350 	0x407350
	...
    1798:	0000001d 	0x1d
    179c:	0000001f 	0x1f
    17a0:	00407368 	0x407368
	...
    17b8:	0000001d 	0x1d
    17bc:	0000001f 	0x1f
    17c0:	00407378 	0x407378
	...
    17d8:	0000001d 	0x1d
    17dc:	0000001f 	0x1f
    17e0:	00407388 	0x407388
	...
    17f8:	0000001d 	0x1d
    17fc:	0000001f 	0x1f
    1800:	00407398 	0x407398
	...
    1818:	0000001d 	0x1d
    181c:	0000001f 	0x1f
    1820:	004073a8 	0x4073a8
	...
    1838:	0000001d 	0x1d
    183c:	0000001f 	0x1f
    1840:	004073c0 	0x4073c0
	...
    1858:	0000001d 	0x1d
    185c:	0000001f 	0x1f
    1860:	004073f0 	tge	v0,zero,0x1cf
	...
    1878:	0000001d 	0x1d
    187c:	0000001f 	0x1f
    1880:	00407404 	0x407404
	...
    1898:	0000001d 	0x1d
    189c:	0000001f 	0x1f
    18a0:	00407438 	0x407438
	...
    18b8:	0000001d 	0x1d
    18bc:	0000001f 	0x1f
    18c0:	00407448 	0x407448
	...
    18d8:	0000001d 	0x1d
    18dc:	0000001f 	0x1f
    18e0:	00407494 	0x407494
	...
    18f8:	0000001d 	0x1d
    18fc:	0000001f 	0x1f
    1900:	004074a4 	0x4074a4
	...
    1918:	0000001d 	0x1d
    191c:	0000001f 	0x1f
    1920:	004074b4 	teq	v0,zero,0x1d2
	...
    1938:	0000001d 	0x1d
    193c:	0000001f 	0x1f
    1940:	004074c4 	0x4074c4
	...
    1958:	0000001d 	0x1d
    195c:	0000001f 	0x1f
    1960:	004074d4 	0x4074d4
	...
    1978:	0000001d 	0x1d
    197c:	0000001f 	0x1f
    1980:	004074e4 	0x4074e4
	...
    1998:	0000001d 	0x1d
    199c:	0000001f 	0x1f
    19a0:	004074f4 	teq	v0,zero,0x1d3
	...
    19b8:	0000001d 	0x1d
    19bc:	0000001f 	0x1f
    19c0:	00407504 	0x407504
	...
    19d8:	0000001d 	0x1d
    19dc:	0000001f 	0x1f
    19e0:	00407514 	0x407514
	...
    19f8:	0000001d 	0x1d
    19fc:	0000001f 	0x1f
    1a00:	0040752c 	0x40752c
	...
    1a18:	0000001d 	0x1d
    1a1c:	0000001f 	0x1f
    1a20:	00407544 	0x407544
	...
    1a38:	0000001d 	0x1d
    1a3c:	0000001f 	0x1f
    1a40:	0040755c 	0x40755c
    1a44:	80000000 	lb	zero,0(zero)
    1a48:	fffffffc 	sdc3	$31,-4(ra)
	...
    1a54:	00000018 	mult	zero,zero
    1a58:	0000001d 	0x1d
    1a5c:	0000001f 	0x1f
    1a60:	004075a4 	0x4075a4
    1a64:	80000000 	lb	zero,0(zero)
    1a68:	fffffffc 	sdc3	$31,-4(ra)
	...
    1a74:	00000018 	mult	zero,zero
    1a78:	0000001d 	0x1d
    1a7c:	0000001f 	0x1f
    1a80:	0040760c 	syscall	0x101d8
    1a84:	80000000 	lb	zero,0(zero)
    1a88:	fffffffc 	sdc3	$31,-4(ra)
	...
    1a94:	00000018 	mult	zero,zero
    1a98:	0000001d 	0x1d
    1a9c:	0000001f 	0x1f
    1aa0:	00407644 	0x407644
	...
    1ab8:	0000001d 	0x1d
    1abc:	0000001f 	0x1f
    1ac0:	00407654 	0x407654
	...
    1ad8:	0000001d 	0x1d
    1adc:	0000001f 	0x1f
    1ae0:	00407664 	0x407664
	...
    1af8:	0000001d 	0x1d
    1afc:	0000001f 	0x1f
    1b00:	00407674 	teq	v0,zero,0x1d9
	...
    1b18:	0000001d 	0x1d
    1b1c:	0000001f 	0x1f
    1b20:	00407684 	0x407684
	...
    1b38:	0000001d 	0x1d
    1b3c:	0000001f 	0x1f
    1b40:	00407694 	0x407694
	...
    1b58:	0000001d 	0x1d
    1b5c:	0000001f 	0x1f
    1b60:	004076a4 	0x4076a4
	...
    1b78:	0000001d 	0x1d
    1b7c:	0000001f 	0x1f
    1b80:	004076b4 	teq	v0,zero,0x1da
	...
    1b98:	0000001d 	0x1d
    1b9c:	0000001f 	0x1f
    1ba0:	004076c4 	0x4076c4
	...
    1bb8:	0000001d 	0x1d
    1bbc:	0000001f 	0x1f
    1bc0:	004076d4 	0x4076d4
	...
    1bd8:	0000001d 	0x1d
    1bdc:	0000001f 	0x1f
    1be0:	004076e4 	0x4076e4
	...
    1bf8:	0000001d 	0x1d
    1bfc:	0000001f 	0x1f
    1c00:	004076f4 	teq	v0,zero,0x1db
	...
    1c18:	0000001d 	0x1d
    1c1c:	0000001f 	0x1f
    1c20:	00407704 	0x407704
	...
    1c38:	0000001d 	0x1d
    1c3c:	0000001f 	0x1f
    1c40:	00407714 	0x407714
	...
    1c58:	0000001d 	0x1d
    1c5c:	0000001f 	0x1f
    1c60:	00407724 	0x407724
	...
    1c78:	0000001d 	0x1d
    1c7c:	0000001f 	0x1f
    1c80:	00407734 	teq	v0,zero,0x1dc
	...
    1c98:	0000001d 	0x1d
    1c9c:	0000001f 	0x1f
    1ca0:	00407744 	0x407744
	...
    1cb8:	0000001d 	0x1d
    1cbc:	0000001f 	0x1f
    1cc0:	00407754 	0x407754
	...
    1cd8:	0000001d 	0x1d
    1cdc:	0000001f 	0x1f
    1ce0:	00407764 	0x407764
	...
    1cf8:	0000001d 	0x1d
    1cfc:	0000001f 	0x1f
    1d00:	00407774 	teq	v0,zero,0x1dd
	...
    1d18:	0000001d 	0x1d
    1d1c:	0000001f 	0x1f
    1d20:	00407784 	0x407784
	...
    1d38:	0000001d 	0x1d
    1d3c:	0000001f 	0x1f
    1d40:	00407794 	0x407794
	...
    1d58:	0000001d 	0x1d
    1d5c:	0000001f 	0x1f
    1d60:	0040779c 	0x40779c
	...
    1d78:	0000001d 	0x1d
    1d7c:	0000001f 	0x1f
    1d80:	004077a4 	0x4077a4
	...
    1d98:	0000001d 	0x1d
    1d9c:	0000001f 	0x1f
    1da0:	004077ac 	0x4077ac
	...
    1db8:	0000001d 	0x1d
    1dbc:	0000001f 	0x1f
    1dc0:	004077b4 	teq	v0,zero,0x1de
	...
    1dd8:	0000001d 	0x1d
    1ddc:	0000001f 	0x1f
    1de0:	004077bc 	0x4077bc
	...
    1df8:	0000001d 	0x1d
    1dfc:	0000001f 	0x1f
    1e00:	004077c4 	0x4077c4
	...
    1e18:	0000001d 	0x1d
    1e1c:	0000001f 	0x1f
    1e20:	004077cc 	syscall	0x101df
	...
    1e38:	0000001d 	0x1d
    1e3c:	0000001f 	0x1f
    1e40:	004077d4 	0x4077d4
	...
    1e58:	0000001d 	0x1d
    1e5c:	0000001f 	0x1f
    1e60:	00407800 	0x407800
    1e64:	80010000 	lb	at,0(zero)
    1e68:	fffffffc 	sdc3	$31,-4(ra)
	...
    1e74:	00000018 	mult	zero,zero
    1e78:	0000001d 	0x1d
    1e7c:	0000001f 	0x1f
    1e80:	00407890 	0x407890
    1e84:	80000000 	lb	zero,0(zero)
    1e88:	fffffffc 	sdc3	$31,-4(ra)
	...
    1e94:	00000018 	mult	zero,zero
    1e98:	0000001d 	0x1d
    1e9c:	0000001f 	0x1f
    1ea0:	004078dc 	0x4078dc
    1ea4:	80000000 	lb	zero,0(zero)
    1ea8:	fffffffc 	sdc3	$31,-4(ra)
	...
    1eb4:	00000018 	mult	zero,zero
    1eb8:	0000001d 	0x1d
    1ebc:	0000001f 	0x1f
    1ec0:	00407928 	0x407928
    1ec4:	80000000 	lb	zero,0(zero)
    1ec8:	fffffffc 	sdc3	$31,-4(ra)
	...
    1ed4:	00000018 	mult	zero,zero
    1ed8:	0000001d 	0x1d
    1edc:	0000001f 	0x1f
    1ee0:	004079a8 	0x4079a8
    1ee4:	80000000 	lb	zero,0(zero)
    1ee8:	fffffffc 	sdc3	$31,-4(ra)
	...
    1ef4:	00000018 	mult	zero,zero
    1ef8:	0000001d 	0x1d
    1efc:	0000001f 	0x1f
    1f00:	004079c4 	0x4079c4
    1f04:	80000000 	lb	zero,0(zero)
    1f08:	fffffffc 	sdc3	$31,-4(ra)
	...
    1f14:	00000018 	mult	zero,zero
    1f18:	0000001d 	0x1d
    1f1c:	0000001f 	0x1f
    1f20:	00407a00 	0x407a00
    1f24:	80030000 	lb	v1,0(zero)
    1f28:	fffffffc 	sdc3	$31,-4(ra)
	...
    1f34:	00000020 	add	zero,zero,zero
    1f38:	0000001d 	0x1d
    1f3c:	0000001f 	0x1f
    1f40:	00407ad4 	0x407ad4
	...
    1f58:	0000001d 	0x1d
    1f5c:	0000001f 	0x1f
    1f60:	00407b0c 	syscall	0x101ec
	...
    1f78:	0000001d 	0x1d
    1f7c:	0000001f 	0x1f
    1f80:	00407b48 	0x407b48
    1f84:	80000000 	lb	zero,0(zero)
    1f88:	fffffffc 	sdc3	$31,-4(ra)
	...
    1f94:	00000018 	mult	zero,zero
    1f98:	0000001d 	0x1d
    1f9c:	0000001f 	0x1f
    1fa0:	00407b9c 	0x407b9c
    1fa4:	80000000 	lb	zero,0(zero)
    1fa8:	fffffffc 	sdc3	$31,-4(ra)
	...
    1fb4:	00000018 	mult	zero,zero
    1fb8:	0000001d 	0x1d
    1fbc:	0000001f 	0x1f
    1fc0:	00407bf0 	tge	v0,zero,0x1ef
    1fc4:	80000000 	lb	zero,0(zero)
    1fc8:	fffffffc 	sdc3	$31,-4(ra)
	...
    1fd4:	00000018 	mult	zero,zero
    1fd8:	0000001d 	0x1d
    1fdc:	0000001f 	0x1f
    1fe0:	00407c98 	0x407c98
    1fe4:	80030000 	lb	v1,0(zero)
    1fe8:	fffffffc 	sdc3	$31,-4(ra)
	...
    1ff4:	00000020 	add	zero,zero,zero
    1ff8:	0000001d 	0x1d
    1ffc:	0000001f 	0x1f
    2000:	00407d10 	0x407d10
    2004:	c0ff0000 	ll	ra,0(a3)
    2008:	fffffffc 	sdc3	$31,-4(ra)
	...
    2014:	00000040 	ssnop
    2018:	0000001d 	0x1d
    201c:	0000001f 	0x1f
    2020:	00407ea4 	0x407ea4
    2024:	800f0000 	lb	t7,0(zero)
    2028:	fffffffc 	sdc3	$31,-4(ra)
	...
    2034:	00000030 	tge	zero,zero
    2038:	0000001d 	0x1d
    203c:	0000001f 	0x1f
    2040:	0040801c 	0x40801c
    2044:	80000000 	lb	zero,0(zero)
    2048:	fffffffc 	sdc3	$31,-4(ra)
	...
    2054:	00000018 	mult	zero,zero
    2058:	0000001d 	0x1d
    205c:	0000001f 	0x1f
    2060:	00408144 	0x408144
    2064:	80010000 	lb	at,0(zero)
    2068:	fffffffc 	sdc3	$31,-4(ra)
	...
    2074:	00000018 	mult	zero,zero
    2078:	0000001d 	0x1d
    207c:	0000001f 	0x1f
    2080:	004081b0 	tge	v0,zero,0x206
	...
    2098:	0000001d 	0x1d
    209c:	0000001f 	0x1f
    20a0:	004081f0 	tge	v0,zero,0x207
    20a4:	801f0000 	lb	ra,0(zero)
    20a8:	fffffffc 	sdc3	$31,-4(ra)
	...
    20b4:	00000030 	tge	zero,zero
    20b8:	0000001d 	0x1d
    20bc:	0000001f 	0x1f
    20c0:	00408364 	0x408364
    20c4:	80030000 	lb	v1,0(zero)
    20c8:	fffffffc 	sdc3	$31,-4(ra)
	...
    20d4:	00000028 	0x28
    20d8:	0000001d 	0x1d
    20dc:	0000001f 	0x1f
    20e0:	004083cc 	syscall	0x1020f
    20e4:	80000000 	lb	zero,0(zero)
    20e8:	fffffffc 	sdc3	$31,-4(ra)
	...
    20f4:	00000018 	mult	zero,zero
    20f8:	0000001d 	0x1d
    20fc:	0000001f 	0x1f
    2100:	00408404 	0x408404
    2104:	80000000 	lb	zero,0(zero)
    2108:	fffffffc 	sdc3	$31,-4(ra)
	...
    2114:	00000018 	mult	zero,zero
    2118:	0000001d 	0x1d
    211c:	0000001f 	0x1f
    2120:	00408450 	0x408450
    2124:	80030000 	lb	v1,0(zero)
    2128:	fffffffc 	sdc3	$31,-4(ra)
	...
    2134:	00000028 	0x28
    2138:	0000001d 	0x1d
    213c:	0000001f 	0x1f
    2140:	004084c4 	0x4084c4
    2144:	800f0000 	lb	t7,0(zero)
    2148:	fffffffc 	sdc3	$31,-4(ra)
	...
    2154:	00000038 	0x38
    2158:	0000001d 	0x1d
    215c:	0000001f 	0x1f
    2160:	004085ec 	0x4085ec
    2164:	80070000 	lb	a3,0(zero)
    2168:	fffffffc 	sdc3	$31,-4(ra)
	...
    2174:	00000030 	tge	zero,zero
    2178:	0000001d 	0x1d
    217c:	0000001f 	0x1f
    2180:	00408f1c 	0x408f1c
    2184:	80030000 	lb	v1,0(zero)
    2188:	fffffffc 	sdc3	$31,-4(ra)
	...
    2194:	00000028 	0x28
    2198:	0000001d 	0x1d
    219c:	0000001f 	0x1f
    21a0:	0040901c 	0x40901c
    21a4:	80070000 	lb	a3,0(zero)
    21a8:	fffffffc 	sdc3	$31,-4(ra)
	...
    21b4:	00000038 	0x38
    21b8:	0000001d 	0x1d
    21bc:	0000001f 	0x1f
    21c0:	004090b8 	0x4090b8
    21c4:	80010000 	lb	at,0(zero)
    21c8:	fffffffc 	sdc3	$31,-4(ra)
	...
    21d4:	00000020 	add	zero,zero,zero
    21d8:	0000001d 	0x1d
    21dc:	0000001f 	0x1f
    21e0:	004091a0 	0x4091a0
    21e4:	c0ff0000 	ll	ra,0(a3)
    21e8:	fffffffc 	sdc3	$31,-4(ra)
	...
    21f4:	00000038 	0x38
    21f8:	0000001d 	0x1d
    21fc:	0000001f 	0x1f
    2200:	004092a4 	0x4092a4
	...
    2218:	0000001d 	0x1d
    221c:	0000001f 	0x1f
    2220:	00409304 	0x409304
    2224:	80000000 	lb	zero,0(zero)
    2228:	fffffffc 	sdc3	$31,-4(ra)
	...
    2234:	00000018 	mult	zero,zero
    2238:	0000001d 	0x1d
    223c:	0000001f 	0x1f
    2240:	00409350 	0x409350
	...
    2258:	0000001d 	0x1d
    225c:	0000001f 	0x1f
    2260:	00409398 	0x409398
    2264:	80010000 	lb	at,0(zero)
    2268:	fffffffc 	sdc3	$31,-4(ra)
	...
    2274:	00000018 	mult	zero,zero
    2278:	0000001d 	0x1d
    227c:	0000001f 	0x1f
    2280:	004093cc 	syscall	0x1024f
	...
    2298:	0000001d 	0x1d
    229c:	0000001f 	0x1f
    22a0:	004093ec 	0x4093ec
    22a4:	80010000 	lb	at,0(zero)
    22a8:	fffffffc 	sdc3	$31,-4(ra)
	...
    22b4:	00000018 	mult	zero,zero
    22b8:	0000001d 	0x1d
    22bc:	0000001f 	0x1f
    22c0:	00409434 	teq	v0,zero,0x250
    22c4:	80010000 	lb	at,0(zero)
    22c8:	fffffffc 	sdc3	$31,-4(ra)
	...
    22d4:	00000018 	mult	zero,zero
    22d8:	0000001d 	0x1d
    22dc:	0000001f 	0x1f
    22e0:	00409484 	0x409484
    22e4:	80030000 	lb	v1,0(zero)
    22e8:	fffffffc 	sdc3	$31,-4(ra)
	...
    22f4:	00000028 	0x28
    22f8:	0000001d 	0x1d
    22fc:	0000001f 	0x1f
    2300:	0040950c 	syscall	0x10254
    2304:	80010000 	lb	at,0(zero)
    2308:	fffffffc 	sdc3	$31,-4(ra)
	...
    2314:	00000018 	mult	zero,zero
    2318:	0000001d 	0x1d
    231c:	0000001f 	0x1f
    2320:	004095b0 	tge	v0,zero,0x256
	...
    2338:	0000001d 	0x1d
    233c:	0000001f 	0x1f
    2340:	00409604 	0x409604
    2344:	800f0000 	lb	t7,0(zero)
    2348:	fffffffc 	sdc3	$31,-4(ra)
	...
    2354:	00000028 	0x28
    2358:	0000001d 	0x1d
    235c:	0000001f 	0x1f
    2360:	00409718 	0x409718
    2364:	80000000 	lb	zero,0(zero)
    2368:	fffffffc 	sdc3	$31,-4(ra)
	...
    2374:	00000018 	mult	zero,zero
    2378:	0000001d 	0x1d
    237c:	0000001f 	0x1f
    2380:	0040979c 	0x40979c
    2384:	80010000 	lb	at,0(zero)
    2388:	fffffffc 	sdc3	$31,-4(ra)
	...
    2394:	00000018 	mult	zero,zero
    2398:	0000001d 	0x1d
    239c:	0000001f 	0x1f
    23a0:	00409860 	0x409860
    23a4:	80030000 	lb	v1,0(zero)
    23a8:	fffffffc 	sdc3	$31,-4(ra)
	...
    23b4:	00000020 	add	zero,zero,zero
    23b8:	0000001d 	0x1d
    23bc:	0000001f 	0x1f
    23c0:	004098b4 	teq	v0,zero,0x262
    23c4:	80000000 	lb	zero,0(zero)
    23c8:	fffffffc 	sdc3	$31,-4(ra)
	...
    23d4:	00000028 	0x28
    23d8:	0000001d 	0x1d
    23dc:	0000001f 	0x1f
    23e0:	00409968 	0x409968
    23e4:	80070000 	lb	a3,0(zero)
    23e8:	fffffffc 	sdc3	$31,-4(ra)
	...
    23f4:	00000020 	add	zero,zero,zero
    23f8:	0000001d 	0x1d
    23fc:	0000001f 	0x1f
    2400:	00409a98 	0x409a98
    2404:	80010000 	lb	at,0(zero)
    2408:	fffffffc 	sdc3	$31,-4(ra)
	...
    2414:	00000018 	mult	zero,zero
    2418:	0000001d 	0x1d
    241c:	0000001f 	0x1f
    2420:	00409c18 	0x409c18
    2424:	80000000 	lb	zero,0(zero)
    2428:	fffffffc 	sdc3	$31,-4(ra)
	...
    2434:	00000018 	mult	zero,zero
    2438:	0000001d 	0x1d
    243c:	0000001f 	0x1f
    2440:	00409c44 	0x409c44
    2444:	80070000 	lb	a3,0(zero)
    2448:	fffffffc 	sdc3	$31,-4(ra)
	...
    2454:	00000028 	0x28
    2458:	0000001d 	0x1d
    245c:	0000001f 	0x1f
    2460:	00409cf8 	0x409cf8
    2464:	80030000 	lb	v1,0(zero)
    2468:	fffffffc 	sdc3	$31,-4(ra)
	...
    2474:	00000028 	0x28
    2478:	0000001d 	0x1d
    247c:	0000001f 	0x1f
    2480:	00409d70 	tge	v0,zero,0x275
    2484:	80000000 	lb	zero,0(zero)
    2488:	fffffffc 	sdc3	$31,-4(ra)
	...
    2494:	00000020 	add	zero,zero,zero
    2498:	0000001d 	0x1d
    249c:	0000001f 	0x1f
    24a0:	00409dc0 	0x409dc0
    24a4:	80010000 	lb	at,0(zero)
    24a8:	fffffffc 	sdc3	$31,-4(ra)
	...
    24b4:	00000020 	add	zero,zero,zero
    24b8:	0000001d 	0x1d
    24bc:	0000001f 	0x1f
    24c0:	00409e08 	0x409e08
    24c4:	80000000 	lb	zero,0(zero)
    24c8:	fffffffc 	sdc3	$31,-4(ra)
	...
    24d4:	00000020 	add	zero,zero,zero
    24d8:	0000001d 	0x1d
    24dc:	0000001f 	0x1f
    24e0:	00409e40 	0x409e40
    24e4:	80ff0000 	lb	ra,0(a3)
    24e8:	fffffffc 	sdc3	$31,-4(ra)
	...
    24f4:	00000040 	ssnop
    24f8:	0000001d 	0x1d
    24fc:	0000001f 	0x1f
    2500:	00409f20 	0x409f20
    2504:	800f0000 	lb	t7,0(zero)
    2508:	fffffffc 	sdc3	$31,-4(ra)
	...
    2514:	00000030 	tge	zero,zero
    2518:	0000001d 	0x1d
    251c:	0000001f 	0x1f
    2520:	0040a000 	0x40a000
	...
    2538:	0000001d 	0x1d
    253c:	0000001f 	0x1f
    2540:	0040a030 	tge	v0,zero,0x280
    2544:	c0ff0000 	ll	ra,0(a3)
    2548:	fffffffc 	sdc3	$31,-4(ra)
	...
    2554:	000000c0 	ehb
    2558:	0000001d 	0x1d
    255c:	0000001f 	0x1f
    2560:	0040a1c0 	0x40a1c0
    2564:	80000000 	lb	zero,0(zero)
    2568:	fffffffc 	sdc3	$31,-4(ra)
	...
    2574:	00000018 	mult	zero,zero
    2578:	0000001d 	0x1d
    257c:	0000001f 	0x1f
    2580:	0040a1e4 	0x40a1e4
    2584:	80030000 	lb	v1,0(zero)
    2588:	fffffffc 	sdc3	$31,-4(ra)
	...
    2594:	000000a8 	0xa8
    2598:	0000001d 	0x1d
    259c:	0000001f 	0x1f
    25a0:	0040a26c 	0x40a26c
    25a4:	800f0000 	lb	t7,0(zero)
    25a8:	fffffffc 	sdc3	$31,-4(ra)
	...
    25b4:	00000028 	0x28
    25b8:	0000001d 	0x1d
    25bc:	0000001f 	0x1f
    25c0:	0040a328 	0x40a328
    25c4:	80070000 	lb	a3,0(zero)
    25c8:	fffffffc 	sdc3	$31,-4(ra)
	...
    25d4:	00000028 	0x28
    25d8:	0000001d 	0x1d
    25dc:	0000001f 	0x1f
    25e0:	0040a3ac 	0x40a3ac
    25e4:	80030000 	lb	v1,0(zero)
    25e8:	fffffffc 	sdc3	$31,-4(ra)
	...
    25f4:	00000020 	add	zero,zero,zero
    25f8:	0000001d 	0x1d
    25fc:	0000001f 	0x1f
    2600:	0040a410 	0x40a410
    2604:	80030000 	lb	v1,0(zero)
    2608:	fffffffc 	sdc3	$31,-4(ra)
	...
    2614:	00000020 	add	zero,zero,zero
    2618:	0000001d 	0x1d
    261c:	0000001f 	0x1f
    2620:	0040a488 	0x40a488
    2624:	80010000 	lb	at,0(zero)
    2628:	fffffffc 	sdc3	$31,-4(ra)
	...
    2634:	00000018 	mult	zero,zero
    2638:	0000001d 	0x1d
    263c:	0000001f 	0x1f
    2640:	0040a4c0 	0x40a4c0
    2644:	80000000 	lb	zero,0(zero)
    2648:	fffffffc 	sdc3	$31,-4(ra)
	...
    2654:	00000020 	add	zero,zero,zero
    2658:	0000001d 	0x1d
    265c:	0000001f 	0x1f
    2660:	0040a520 	0x40a520
    2664:	803f0000 	lb	ra,0(at)
    2668:	fffffffc 	sdc3	$31,-4(ra)
	...
    2674:	00000040 	ssnop
    2678:	0000001d 	0x1d
    267c:	0000001f 	0x1f
    2680:	0040a620 	0x40a620
    2684:	803f0000 	lb	ra,0(at)
    2688:	fffffffc 	sdc3	$31,-4(ra)
	...
    2694:	00000040 	ssnop
    2698:	0000001d 	0x1d
    269c:	0000001f 	0x1f
    26a0:	0040a704 	0x40a704
	...
    26b8:	0000001d 	0x1d
    26bc:	0000001f 	0x1f
    26c0:	0040a738 	0x40a738
    26c4:	801f0000 	lb	ra,0(zero)
    26c8:	fffffffc 	sdc3	$31,-4(ra)
	...
    26d4:	00000028 	0x28
    26d8:	0000001d 	0x1d
    26dc:	0000001f 	0x1f
    26e0:	0040a80c 	syscall	0x102a0
    26e4:	800f0000 	lb	t7,0(zero)
    26e8:	fffffffc 	sdc3	$31,-4(ra)
	...
    26f4:	00000028 	0x28
    26f8:	0000001d 	0x1d
    26fc:	0000001f 	0x1f
    2700:	0040a88c 	syscall	0x102a2
    2704:	80030000 	lb	v1,0(zero)
    2708:	fffffffc 	sdc3	$31,-4(ra)
	...
    2714:	00000430 	tge	zero,zero,0x10
    2718:	0000001d 	0x1d
    271c:	0000001f 	0x1f
    2720:	0040a9c4 	0x40a9c4
    2724:	80030000 	lb	v1,0(zero)
    2728:	fffffffc 	sdc3	$31,-4(ra)
	...
    2734:	00000028 	0x28
    2738:	0000001d 	0x1d
    273c:	0000001f 	0x1f
    2740:	0040aa68 	0x40aa68
    2744:	80030000 	lb	v1,0(zero)
    2748:	fffffffc 	sdc3	$31,-4(ra)
	...
    2754:	00000028 	0x28
    2758:	0000001d 	0x1d
    275c:	0000001f 	0x1f
    2760:	0040ab00 	0x40ab00
    2764:	80010000 	lb	at,0(zero)
    2768:	fffffffc 	sdc3	$31,-4(ra)
	...
    2774:	00000020 	add	zero,zero,zero
    2778:	0000001d 	0x1d
    277c:	0000001f 	0x1f
    2780:	0040ab6c 	0x40ab6c
    2784:	80030000 	lb	v1,0(zero)
    2788:	fffffffc 	sdc3	$31,-4(ra)
	...
    2794:	00000420 	0x420
    2798:	0000001d 	0x1d
    279c:	0000001f 	0x1f
    27a0:	0040abe0 	0x40abe0
    27a4:	80030000 	lb	v1,0(zero)
    27a8:	fffffffc 	sdc3	$31,-4(ra)
	...
    27b4:	00000028 	0x28
    27b8:	0000001d 	0x1d
    27bc:	0000001f 	0x1f
    27c0:	0040ac78 	0x40ac78
    27c4:	80010000 	lb	at,0(zero)
    27c8:	fffffffc 	sdc3	$31,-4(ra)
	...
    27d4:	00000018 	mult	zero,zero
    27d8:	0000001d 	0x1d
    27dc:	0000001f 	0x1f
    27e0:	0040acb0 	tge	v0,zero,0x2b2
    27e4:	80070000 	lb	a3,0(zero)
    27e8:	fffffffc 	sdc3	$31,-4(ra)
	...
    27f4:	00000028 	0x28
    27f8:	0000001d 	0x1d
    27fc:	0000001f 	0x1f
    2800:	0040adf0 	tge	v0,zero,0x2b7
    2804:	80000000 	lb	zero,0(zero)
    2808:	fffffffc 	sdc3	$31,-4(ra)
	...
    2814:	00000018 	mult	zero,zero
    2818:	0000001d 	0x1d
    281c:	0000001f 	0x1f
    2820:	0040ae18 	0x40ae18
	...
    2838:	0000001d 	0x1d
    283c:	0000001f 	0x1f
    2840:	0040ae40 	0x40ae40
    2844:	80010000 	lb	at,0(zero)
    2848:	fffffffc 	sdc3	$31,-4(ra)
	...
    2854:	00000020 	add	zero,zero,zero
    2858:	0000001d 	0x1d
    285c:	0000001f 	0x1f
    2860:	0040b168 	0x40b168
    2864:	80010000 	lb	at,0(zero)
    2868:	fffffffc 	sdc3	$31,-4(ra)
	...
    2874:	00000018 	mult	zero,zero
    2878:	0000001d 	0x1d
    287c:	0000001f 	0x1f
    2880:	0040c0ac 	0x40c0ac
	...
    28a0:	0040c1f0 	tge	v0,zero,0x307
	...
    28b8:	0000001d 	0x1d
    28bc:	0000001d 	0x1d
    28c0:	0040b18c 	syscall	0x102c6
	...
    28d8:	0000001d 	0x1d
    28dc:	0000001f 	0x1f
    28e0:	0040b1f4 	teq	v0,zero,0x2c7
	...
    2900:	0040b2a4 	0x40b2a4
	...
    2920:	0040b3a0 	0x40b3a0
	...
    2934:	0000009c 	0x9c
    2938:	0000001d 	0x1d
    293c:	0000001d 	0x1d
    2940:	0040b4e8 	0x40b4e8
	...
    2958:	0000001d 	0x1d
    295c:	0000001f 	0x1f
    2960:	0040b4e8 	0x40b4e8
	...
    2978:	0000001d 	0x1d
    297c:	0000001d 	0x1d
    2980:	0040b5e0 	0x40b5e0
	...
    2994:	0000009c 	0x9c
    2998:	0000001d 	0x1d
    299c:	0000001d 	0x1d
    29a0:	0040b720 	0x40b720
	...
    29b4:	0000009c 	0x9c
    29b8:	0000001d 	0x1d
    29bc:	0000001d 	0x1d
    29c0:	0040b860 	0x40b860
	...
    29d4:	0000009c 	0x9c
    29d8:	0000001d 	0x1d
    29dc:	0000001d 	0x1d
    29e0:	0040b9a0 	0x40b9a0
	...
    29f8:	0000001d 	0x1d
    29fc:	0000001f 	0x1f
    2a00:	0040b9bc 	0x40b9bc
	...
    2a18:	0000001d 	0x1d
    2a1c:	0000001f 	0x1f
    2a20:	0040b9f0 	tge	v0,zero,0x2e7
	...
    2a34:	0000009c 	0x9c
    2a38:	0000001d 	0x1d
    2a3c:	0000001d 	0x1d
    2a40:	0040bbe0 	0x40bbe0
	...
    2a60:	0040bc08 	0x40bc08
	...
    2a80:	0040bc28 	0x40bc28
	...
    2aa0:	0040bc74 	teq	v0,zero,0x2f1
	...
    2ac0:	0040bcac 	0x40bcac
	...
    2ae0:	0040bd08 	0x40bd08
	...
    2b00:	0040bda0 	0x40bda0
	...
    2b20:	0040bf24 	0x40bf24
	...
    2b40:	0040bff8 	0x40bff8
	...
    2b58:	0000001d 	0x1d
    2b5c:	0000001f 	0x1f
    2b60:	0040c048 	0x40c048
	...
    2b78:	0000001d 	0x1d
    2b7c:	0000001f 	0x1f
    2b80:	0040c07c 	0x40c07c
	...
    2b98:	0000001d 	0x1d
    2b9c:	0000001f 	0x1f

Disassembly of section .gnu.attributes:

00000000 <.gnu.attributes>:
   0:	00000f41 	0xf41
   4:	756e6700 	jalx	5b99c00 <_end+0x5773dec>
   8:	00070100 	sll	zero,a3,0x4
   c:	03040000 	0x3040000
